
UnplacedTrapezoid.cpp.o:     file format elf64-x86-64


Disassembly of section .text:

0000000000000000 <_ZN7vecgeom3cxx17UnplacedTrapezoidD1Ev>:
       0:	48 8b 05 00 00 00 00 	mov    0x0(%rip),%rax        # 7 <_ZN7vecgeom3cxx17UnplacedTrapezoidD1Ev+0x7>
       7:	48 83 c0 10          	add    $0x10,%rax
       b:	48 89 47 10          	mov    %rax,0x10(%rdi)
       f:	48 8b 05 00 00 00 00 	mov    0x0(%rip),%rax        # 16 <_ZN7vecgeom3cxx17UnplacedTrapezoidD1Ev+0x16>
      16:	48 83 c0 10          	add    $0x10,%rax
      1a:	48 89 07             	mov    %rax,(%rdi)
      1d:	c3                   	retq   
      1e:	66 90                	xchg   %ax,%ax

0000000000000020 <_ZThn16_N7vecgeom3cxx17UnplacedTrapezoidD1Ev>:
      20:	48 83 ef 10          	sub    $0x10,%rdi
      24:	eb da                	jmp    0 <_ZN7vecgeom3cxx17UnplacedTrapezoidD1Ev>
      26:	66 2e 0f 1f 84 00 00 	nopw   %cs:0x0(%rax,%rax,1)
      2d:	00 00 00 

0000000000000030 <_ZNK7vecgeom3cxx17UnplacedTrapezoid5PrintEv>:
      30:	48 83 ec 28          	sub    $0x28,%rsp
      34:	b8 08 00 00 00       	mov    $0x8,%eax
      39:	f2 44 0f 10 47 78    	movsd  0x78(%rdi),%xmm8
      3f:	f2 0f 10 7f 68       	movsd  0x68(%rdi),%xmm7
      44:	f2 0f 10 77 60       	movsd  0x60(%rdi),%xmm6
      49:	f2 0f 10 6f 58       	movsd  0x58(%rdi),%xmm5
      4e:	f2 0f 10 67 50       	movsd  0x50(%rdi),%xmm4
      53:	f2 0f 10 5f 48       	movsd  0x48(%rdi),%xmm3
      58:	f2 0f 10 57 40       	movsd  0x40(%rdi),%xmm2
      5d:	f2 0f 10 4f 38       	movsd  0x38(%rdi),%xmm1
      62:	f2 0f 10 47 20       	movsd  0x20(%rdi),%xmm0
      67:	f2 44 0f 11 44 24 10 	movsd  %xmm8,0x10(%rsp)
      6e:	f2 44 0f 10 87 80 00 	movsd  0x80(%rdi),%xmm8
      75:	00 00 
      77:	f2 44 0f 11 44 24 08 	movsd  %xmm8,0x8(%rsp)
      7e:	f2 44 0f 10 47 70    	movsd  0x70(%rdi),%xmm8
      84:	48 8d 3d 00 00 00 00 	lea    0x0(%rip),%rdi        # 8b <_ZNK7vecgeom3cxx17UnplacedTrapezoid5PrintEv+0x5b>
      8b:	f2 44 0f 11 04 24    	movsd  %xmm8,(%rsp)
      91:	e8 00 00 00 00       	callq  96 <_ZNK7vecgeom3cxx17UnplacedTrapezoid5PrintEv+0x66>
      96:	48 83 c4 28          	add    $0x28,%rsp
      9a:	c3                   	retq   
      9b:	90                   	nop
      9c:	0f 1f 40 00          	nopl   0x0(%rax)

00000000000000a0 <_ZNK7vecgeom3cxx17UnplacedTrapezoid17SpecializedVolumeEPKNS0_13LogicalVolumeEPKNS0_16Transformation3DEiiPNS0_13VPlacedVolumeE>:
      a0:	55                   	push   %rbp
      a1:	53                   	push   %rbx
      a2:	4c 89 cb             	mov    %r9,%rbx
      a5:	48 83 ec 18          	sub    $0x18,%rsp
      a9:	4d 85 c9             	test   %r9,%r9
      ac:	74 32                	je     e0 <_ZNK7vecgeom3cxx17UnplacedTrapezoid17SpecializedVolumeEPKNS0_13LogicalVolumeEPKNS0_16Transformation3DEiiPNS0_13VPlacedVolumeE+0x40>
      ae:	48 89 d1             	mov    %rdx,%rcx
      b1:	48 89 f2             	mov    %rsi,%rdx
      b4:	48 8d 35 00 00 00 00 	lea    0x0(%rip),%rsi        # bb <_ZNK7vecgeom3cxx17UnplacedTrapezoid17SpecializedVolumeEPKNS0_13LogicalVolumeEPKNS0_16Transformation3DEiiPNS0_13VPlacedVolumeE+0x1b>
      bb:	45 31 c0             	xor    %r8d,%r8d
      be:	4c 89 cf             	mov    %r9,%rdi
      c1:	e8 00 00 00 00       	callq  c6 <_ZNK7vecgeom3cxx17UnplacedTrapezoid17SpecializedVolumeEPKNS0_13LogicalVolumeEPKNS0_16Transformation3DEiiPNS0_13VPlacedVolumeE+0x26>
      c6:	48 8b 05 00 00 00 00 	mov    0x0(%rip),%rax        # cd <_ZNK7vecgeom3cxx17UnplacedTrapezoid17SpecializedVolumeEPKNS0_13LogicalVolumeEPKNS0_16Transformation3DEiiPNS0_13VPlacedVolumeE+0x2d>
      cd:	48 83 c0 10          	add    $0x10,%rax
      d1:	48 89 03             	mov    %rax,(%rbx)
      d4:	48 89 d8             	mov    %rbx,%rax
      d7:	48 83 c4 18          	add    $0x18,%rsp
      db:	5b                   	pop    %rbx
      dc:	5d                   	pop    %rbp
      dd:	c3                   	retq   
      de:	66 90                	xchg   %ax,%ax
      e0:	bf 30 00 00 00       	mov    $0x30,%edi
      e5:	48 89 54 24 08       	mov    %rdx,0x8(%rsp)
      ea:	48 89 34 24          	mov    %rsi,(%rsp)
      ee:	e8 00 00 00 00       	callq  f3 <_ZNK7vecgeom3cxx17UnplacedTrapezoid17SpecializedVolumeEPKNS0_13LogicalVolumeEPKNS0_16Transformation3DEiiPNS0_13VPlacedVolumeE+0x53>
      f3:	48 8b 54 24 08       	mov    0x8(%rsp),%rdx
      f8:	48 8b 34 24          	mov    (%rsp),%rsi
      fc:	45 31 c0             	xor    %r8d,%r8d
      ff:	48 89 c7             	mov    %rax,%rdi
     102:	48 89 c3             	mov    %rax,%rbx
     105:	48 89 d1             	mov    %rdx,%rcx
     108:	48 89 f2             	mov    %rsi,%rdx
     10b:	48 8d 35 00 00 00 00 	lea    0x0(%rip),%rsi        # 112 <_ZNK7vecgeom3cxx17UnplacedTrapezoid17SpecializedVolumeEPKNS0_13LogicalVolumeEPKNS0_16Transformation3DEiiPNS0_13VPlacedVolumeE+0x72>
     112:	e8 00 00 00 00       	callq  117 <_ZNK7vecgeom3cxx17UnplacedTrapezoid17SpecializedVolumeEPKNS0_13LogicalVolumeEPKNS0_16Transformation3DEiiPNS0_13VPlacedVolumeE+0x77>
     117:	48 8b 05 00 00 00 00 	mov    0x0(%rip),%rax        # 11e <_ZNK7vecgeom3cxx17UnplacedTrapezoid17SpecializedVolumeEPKNS0_13LogicalVolumeEPKNS0_16Transformation3DEiiPNS0_13VPlacedVolumeE+0x7e>
     11e:	48 83 c0 10          	add    $0x10,%rax
     122:	48 89 03             	mov    %rax,(%rbx)
     125:	48 89 d8             	mov    %rbx,%rax
     128:	eb ad                	jmp    d7 <_ZNK7vecgeom3cxx17UnplacedTrapezoid17SpecializedVolumeEPKNS0_13LogicalVolumeEPKNS0_16Transformation3DEiiPNS0_13VPlacedVolumeE+0x37>
     12a:	48 89 c5             	mov    %rax,%rbp
     12d:	48 89 df             	mov    %rbx,%rdi
     130:	e8 00 00 00 00       	callq  135 <_ZNK7vecgeom3cxx17UnplacedTrapezoid17SpecializedVolumeEPKNS0_13LogicalVolumeEPKNS0_16Transformation3DEiiPNS0_13VPlacedVolumeE+0x95>
     135:	48 89 ef             	mov    %rbp,%rdi
     138:	e8 00 00 00 00       	callq  13d <_ZNK7vecgeom3cxx17UnplacedTrapezoid17SpecializedVolumeEPKNS0_13LogicalVolumeEPKNS0_16Transformation3DEiiPNS0_13VPlacedVolumeE+0x9d>
     13d:	90                   	nop
     13e:	66 90                	xchg   %ax,%ax

0000000000000140 <_ZNK7vecgeom3cxx17UnplacedTrapezoid9CopyToGpuENS0_9DevicePtrINS_4cuda15VUnplacedVolumeEEE>:
     140:	53                   	push   %rbx
     141:	48 89 fb             	mov    %rdi,%rbx
     144:	48 83 ec 30          	sub    $0x30,%rsp
     148:	48 8b 02             	mov    (%rdx),%rax
     14b:	f2 44 0f 10 56 70    	movsd  0x70(%rsi),%xmm10
     151:	48 8d 7c 24 20       	lea    0x20(%rsp),%rdi
     156:	f2 44 0f 10 4e 68    	movsd  0x68(%rsi),%xmm9
     15c:	f2 44 0f 10 46 60    	movsd  0x60(%rsi),%xmm8
     162:	48 89 44 24 20       	mov    %rax,0x20(%rsp)
     167:	f2 44 0f 11 54 24 10 	movsd  %xmm10,0x10(%rsp)
     16e:	f2 44 0f 11 4c 24 08 	movsd  %xmm9,0x8(%rsp)
     175:	f2 44 0f 11 04 24    	movsd  %xmm8,(%rsp)
     17b:	f2 0f 10 7e 58       	movsd  0x58(%rsi),%xmm7
     180:	f2 0f 10 76 50       	movsd  0x50(%rsi),%xmm6
     185:	f2 0f 10 6e 48       	movsd  0x48(%rsi),%xmm5
     18a:	f2 0f 10 66 40       	movsd  0x40(%rsi),%xmm4
     18f:	f2 0f 10 5e 38       	movsd  0x38(%rsi),%xmm3
     194:	f2 0f 10 56 30       	movsd  0x30(%rsi),%xmm2
     199:	f2 0f 10 4e 28       	movsd  0x28(%rsi),%xmm1
     19e:	f2 0f 10 46 20       	movsd  0x20(%rsi),%xmm0
     1a3:	e8 00 00 00 00       	callq  1a8 <_ZNK7vecgeom3cxx17UnplacedTrapezoid9CopyToGpuENS0_9DevicePtrINS_4cuda15VUnplacedVolumeEEE+0x68>
     1a8:	e8 00 00 00 00       	callq  1ad <_ZNK7vecgeom3cxx17UnplacedTrapezoid9CopyToGpuENS0_9DevicePtrINS_4cuda15VUnplacedVolumeEEE+0x6d>
     1ad:	48 8b 44 24 20       	mov    0x20(%rsp),%rax
     1b2:	48 89 03             	mov    %rax,(%rbx)
     1b5:	48 83 c4 30          	add    $0x30,%rsp
     1b9:	48 89 d8             	mov    %rbx,%rax
     1bc:	5b                   	pop    %rbx
     1bd:	c3                   	retq   
     1be:	66 90                	xchg   %ax,%ax

00000000000001c0 <_ZNK7vecgeom3cxx17UnplacedTrapezoid9CopyToGpuEv>:
     1c0:	55                   	push   %rbp
     1c1:	48 89 f5             	mov    %rsi,%rbp
     1c4:	53                   	push   %rbx
     1c5:	48 89 fb             	mov    %rdi,%rbx
     1c8:	48 83 ec 28          	sub    $0x28,%rsp
     1cc:	48 c7 04 24 00 00 00 	movq   $0x0,(%rsp)
     1d3:	00 
     1d4:	e8 00 00 00 00       	callq  1d9 <_ZNK7vecgeom3cxx17UnplacedTrapezoid9CopyToGpuEv+0x19>
     1d9:	48 89 e7             	mov    %rsp,%rdi
     1dc:	89 c6                	mov    %eax,%esi
     1de:	e8 00 00 00 00       	callq  1e3 <_ZNK7vecgeom3cxx17UnplacedTrapezoid9CopyToGpuEv+0x23>
     1e3:	89 c7                	mov    %eax,%edi
     1e5:	e8 00 00 00 00       	callq  1ea <_ZNK7vecgeom3cxx17UnplacedTrapezoid9CopyToGpuEv+0x2a>
     1ea:	48 8b 14 24          	mov    (%rsp),%rdx
     1ee:	48 8b 45 00          	mov    0x0(%rbp),%rax
     1f2:	48 89 ee             	mov    %rbp,%rsi
     1f5:	48 89 df             	mov    %rbx,%rdi
     1f8:	48 89 54 24 10       	mov    %rdx,0x10(%rsp)
     1fd:	48 8b 40 28          	mov    0x28(%rax),%rax
     201:	48 8d 54 24 10       	lea    0x10(%rsp),%rdx
     206:	ff d0                	callq  *%rax
     208:	48 83 c4 28          	add    $0x28,%rsp
     20c:	48 89 d8             	mov    %rbx,%rax
     20f:	5b                   	pop    %rbx
     210:	5d                   	pop    %rbp
     211:	c3                   	retq   
     212:	66 66 66 66 66 2e 0f 	data32 data32 data32 data32 nopw %cs:0x0(%rax,%rax,1)
     219:	1f 84 00 00 00 00 00 

0000000000000220 <_ZNK7vecgeom3cxx17UnplacedTrapezoid5PrintERSo>:
     220:	53                   	push   %rbx
     221:	48 89 f3             	mov    %rsi,%rbx
     224:	48 8d 35 00 00 00 00 	lea    0x0(%rip),%rsi        # 22b <_ZNK7vecgeom3cxx17UnplacedTrapezoid5PrintERSo+0xb>
     22b:	ba 13 00 00 00       	mov    $0x13,%edx
     230:	48 83 ec 70          	sub    $0x70,%rsp
     234:	f2 0f 10 4f 78       	movsd  0x78(%rdi),%xmm1
     239:	f2 0f 10 97 80 00 00 	movsd  0x80(%rdi),%xmm2
     240:	00 
     241:	f2 0f 10 5f 70       	movsd  0x70(%rdi),%xmm3
     246:	f2 0f 10 67 68       	movsd  0x68(%rdi),%xmm4
     24b:	f2 0f 10 6f 60       	movsd  0x60(%rdi),%xmm5
     250:	f2 0f 10 77 58       	movsd  0x58(%rdi),%xmm6
     255:	f2 0f 10 7f 50       	movsd  0x50(%rdi),%xmm7
     25a:	f2 44 0f 10 47 48    	movsd  0x48(%rdi),%xmm8
     260:	f2 44 0f 10 4f 40    	movsd  0x40(%rdi),%xmm9
     266:	f2 44 0f 10 57 38    	movsd  0x38(%rdi),%xmm10
     26c:	f2 0f 10 47 20       	movsd  0x20(%rdi),%xmm0
     271:	48 89 df             	mov    %rbx,%rdi
     274:	f2 0f 11 4c 24 58    	movsd  %xmm1,0x58(%rsp)
     27a:	f2 0f 11 54 24 50    	movsd  %xmm2,0x50(%rsp)
     280:	f2 0f 11 5c 24 48    	movsd  %xmm3,0x48(%rsp)
     286:	f2 0f 11 64 24 40    	movsd  %xmm4,0x40(%rsp)
     28c:	f2 0f 11 6c 24 38    	movsd  %xmm5,0x38(%rsp)
     292:	f2 0f 11 74 24 30    	movsd  %xmm6,0x30(%rsp)
     298:	f2 0f 11 7c 24 28    	movsd  %xmm7,0x28(%rsp)
     29e:	f2 44 0f 11 44 24 20 	movsd  %xmm8,0x20(%rsp)
     2a5:	f2 44 0f 11 4c 24 18 	movsd  %xmm9,0x18(%rsp)
     2ac:	f2 44 0f 11 54 24 10 	movsd  %xmm10,0x10(%rsp)
     2b3:	f2 0f 11 44 24 08    	movsd  %xmm0,0x8(%rsp)
     2b9:	e8 00 00 00 00       	callq  2be <_ZNK7vecgeom3cxx17UnplacedTrapezoid5PrintERSo+0x9e>
     2be:	48 8d 74 24 65       	lea    0x65(%rsp),%rsi
     2c3:	ba 01 00 00 00       	mov    $0x1,%edx
     2c8:	48 89 df             	mov    %rbx,%rdi
     2cb:	c6 44 24 65 20       	movb   $0x20,0x65(%rsp)
     2d0:	e8 00 00 00 00       	callq  2d5 <_ZNK7vecgeom3cxx17UnplacedTrapezoid5PrintERSo+0xb5>
     2d5:	f2 0f 10 44 24 08    	movsd  0x8(%rsp),%xmm0
     2db:	48 89 c7             	mov    %rax,%rdi
     2de:	e8 00 00 00 00       	callq  2e3 <_ZNK7vecgeom3cxx17UnplacedTrapezoid5PrintERSo+0xc3>
     2e3:	48 8d 74 24 66       	lea    0x66(%rsp),%rsi
     2e8:	ba 01 00 00 00       	mov    $0x1,%edx
     2ed:	48 89 c7             	mov    %rax,%rdi
     2f0:	c6 44 24 66 20       	movb   $0x20,0x66(%rsp)
     2f5:	e8 00 00 00 00       	callq  2fa <_ZNK7vecgeom3cxx17UnplacedTrapezoid5PrintERSo+0xda>
     2fa:	f2 44 0f 10 54 24 10 	movsd  0x10(%rsp),%xmm10
     301:	48 89 c7             	mov    %rax,%rdi
     304:	66 41 0f 28 c2       	movapd %xmm10,%xmm0
     309:	e8 00 00 00 00       	callq  30e <_ZNK7vecgeom3cxx17UnplacedTrapezoid5PrintERSo+0xee>
     30e:	48 8d 74 24 67       	lea    0x67(%rsp),%rsi
     313:	ba 01 00 00 00       	mov    $0x1,%edx
     318:	48 89 c7             	mov    %rax,%rdi
     31b:	c6 44 24 67 20       	movb   $0x20,0x67(%rsp)
     320:	e8 00 00 00 00       	callq  325 <_ZNK7vecgeom3cxx17UnplacedTrapezoid5PrintERSo+0x105>
     325:	f2 44 0f 10 4c 24 18 	movsd  0x18(%rsp),%xmm9
     32c:	48 89 c7             	mov    %rax,%rdi
     32f:	66 41 0f 28 c1       	movapd %xmm9,%xmm0
     334:	e8 00 00 00 00       	callq  339 <_ZNK7vecgeom3cxx17UnplacedTrapezoid5PrintERSo+0x119>
     339:	48 8d 74 24 68       	lea    0x68(%rsp),%rsi
     33e:	ba 01 00 00 00       	mov    $0x1,%edx
     343:	48 89 c7             	mov    %rax,%rdi
     346:	c6 44 24 68 20       	movb   $0x20,0x68(%rsp)
     34b:	e8 00 00 00 00       	callq  350 <_ZNK7vecgeom3cxx17UnplacedTrapezoid5PrintERSo+0x130>
     350:	f2 44 0f 10 44 24 20 	movsd  0x20(%rsp),%xmm8
     357:	48 89 c7             	mov    %rax,%rdi
     35a:	66 41 0f 28 c0       	movapd %xmm8,%xmm0
     35f:	e8 00 00 00 00       	callq  364 <_ZNK7vecgeom3cxx17UnplacedTrapezoid5PrintERSo+0x144>
     364:	48 8d 74 24 69       	lea    0x69(%rsp),%rsi
     369:	ba 01 00 00 00       	mov    $0x1,%edx
     36e:	48 89 c7             	mov    %rax,%rdi
     371:	c6 44 24 69 20       	movb   $0x20,0x69(%rsp)
     376:	e8 00 00 00 00       	callq  37b <_ZNK7vecgeom3cxx17UnplacedTrapezoid5PrintERSo+0x15b>
     37b:	f2 0f 10 7c 24 28    	movsd  0x28(%rsp),%xmm7
     381:	48 89 c7             	mov    %rax,%rdi
     384:	66 0f 28 c7          	movapd %xmm7,%xmm0
     388:	e8 00 00 00 00       	callq  38d <_ZNK7vecgeom3cxx17UnplacedTrapezoid5PrintERSo+0x16d>
     38d:	48 8d 74 24 6a       	lea    0x6a(%rsp),%rsi
     392:	ba 01 00 00 00       	mov    $0x1,%edx
     397:	48 89 c7             	mov    %rax,%rdi
     39a:	c6 44 24 6a 20       	movb   $0x20,0x6a(%rsp)
     39f:	e8 00 00 00 00       	callq  3a4 <_ZNK7vecgeom3cxx17UnplacedTrapezoid5PrintERSo+0x184>
     3a4:	f2 0f 10 74 24 30    	movsd  0x30(%rsp),%xmm6
     3aa:	48 89 c7             	mov    %rax,%rdi
     3ad:	66 0f 28 c6          	movapd %xmm6,%xmm0
     3b1:	e8 00 00 00 00       	callq  3b6 <_ZNK7vecgeom3cxx17UnplacedTrapezoid5PrintERSo+0x196>
     3b6:	48 8d 74 24 6b       	lea    0x6b(%rsp),%rsi
     3bb:	ba 01 00 00 00       	mov    $0x1,%edx
     3c0:	48 89 c7             	mov    %rax,%rdi
     3c3:	c6 44 24 6b 20       	movb   $0x20,0x6b(%rsp)
     3c8:	e8 00 00 00 00       	callq  3cd <_ZNK7vecgeom3cxx17UnplacedTrapezoid5PrintERSo+0x1ad>
     3cd:	f2 0f 10 6c 24 38    	movsd  0x38(%rsp),%xmm5
     3d3:	48 89 c7             	mov    %rax,%rdi
     3d6:	66 0f 28 c5          	movapd %xmm5,%xmm0
     3da:	e8 00 00 00 00       	callq  3df <_ZNK7vecgeom3cxx17UnplacedTrapezoid5PrintERSo+0x1bf>
     3df:	48 8d 74 24 6c       	lea    0x6c(%rsp),%rsi
     3e4:	ba 01 00 00 00       	mov    $0x1,%edx
     3e9:	48 89 c7             	mov    %rax,%rdi
     3ec:	c6 44 24 6c 20       	movb   $0x20,0x6c(%rsp)
     3f1:	e8 00 00 00 00       	callq  3f6 <_ZNK7vecgeom3cxx17UnplacedTrapezoid5PrintERSo+0x1d6>
     3f6:	f2 0f 10 64 24 40    	movsd  0x40(%rsp),%xmm4
     3fc:	48 89 c7             	mov    %rax,%rdi
     3ff:	66 0f 28 c4          	movapd %xmm4,%xmm0
     403:	e8 00 00 00 00       	callq  408 <_ZNK7vecgeom3cxx17UnplacedTrapezoid5PrintERSo+0x1e8>
     408:	48 8d 74 24 6d       	lea    0x6d(%rsp),%rsi
     40d:	ba 01 00 00 00       	mov    $0x1,%edx
     412:	48 89 c7             	mov    %rax,%rdi
     415:	c6 44 24 6d 20       	movb   $0x20,0x6d(%rsp)
     41a:	e8 00 00 00 00       	callq  41f <_ZNK7vecgeom3cxx17UnplacedTrapezoid5PrintERSo+0x1ff>
     41f:	f2 0f 10 5c 24 48    	movsd  0x48(%rsp),%xmm3
     425:	48 89 c7             	mov    %rax,%rdi
     428:	66 0f 28 c3          	movapd %xmm3,%xmm0
     42c:	e8 00 00 00 00       	callq  431 <_ZNK7vecgeom3cxx17UnplacedTrapezoid5PrintERSo+0x211>
     431:	48 8d 74 24 6e       	lea    0x6e(%rsp),%rsi
     436:	ba 01 00 00 00       	mov    $0x1,%edx
     43b:	48 89 c7             	mov    %rax,%rdi
     43e:	c6 44 24 6e 20       	movb   $0x20,0x6e(%rsp)
     443:	e8 00 00 00 00       	callq  448 <_ZNK7vecgeom3cxx17UnplacedTrapezoid5PrintERSo+0x228>
     448:	f2 0f 10 54 24 50    	movsd  0x50(%rsp),%xmm2
     44e:	48 89 c7             	mov    %rax,%rdi
     451:	66 0f 28 c2          	movapd %xmm2,%xmm0
     455:	e8 00 00 00 00       	callq  45a <_ZNK7vecgeom3cxx17UnplacedTrapezoid5PrintERSo+0x23a>
     45a:	48 8d 74 24 6f       	lea    0x6f(%rsp),%rsi
     45f:	ba 01 00 00 00       	mov    $0x1,%edx
     464:	48 89 c7             	mov    %rax,%rdi
     467:	c6 44 24 6f 20       	movb   $0x20,0x6f(%rsp)
     46c:	e8 00 00 00 00       	callq  471 <_ZNK7vecgeom3cxx17UnplacedTrapezoid5PrintERSo+0x251>
     471:	f2 0f 10 4c 24 58    	movsd  0x58(%rsp),%xmm1
     477:	48 89 c7             	mov    %rax,%rdi
     47a:	66 0f 28 c1          	movapd %xmm1,%xmm0
     47e:	e8 00 00 00 00       	callq  483 <_ZNK7vecgeom3cxx17UnplacedTrapezoid5PrintERSo+0x263>
     483:	48 8d 35 00 00 00 00 	lea    0x0(%rip),%rsi        # 48a <_ZNK7vecgeom3cxx17UnplacedTrapezoid5PrintERSo+0x26a>
     48a:	ba 02 00 00 00       	mov    $0x2,%edx
     48f:	48 89 c7             	mov    %rax,%rdi
     492:	e8 00 00 00 00       	callq  497 <_ZNK7vecgeom3cxx17UnplacedTrapezoid5PrintERSo+0x277>
     497:	48 83 c4 70          	add    $0x70,%rsp
     49b:	5b                   	pop    %rbx
     49c:	c3                   	retq   
     49d:	90                   	nop
     49e:	66 90                	xchg   %ax,%ax

00000000000004a0 <_ZN7vecgeom3cxx17UnplacedTrapezoidD0Ev>:
     4a0:	53                   	push   %rbx
     4a1:	48 89 fb             	mov    %rdi,%rbx
     4a4:	e8 00 00 00 00       	callq  4a9 <_ZN7vecgeom3cxx17UnplacedTrapezoidD0Ev+0x9>
     4a9:	48 89 df             	mov    %rbx,%rdi
     4ac:	5b                   	pop    %rbx
     4ad:	e9 00 00 00 00       	jmpq   4b2 <_ZN7vecgeom3cxx17UnplacedTrapezoidD0Ev+0x12>
     4b2:	66 66 66 66 66 2e 0f 	data32 data32 data32 data32 nopw %cs:0x0(%rax,%rax,1)
     4b9:	1f 84 00 00 00 00 00 

00000000000004c0 <_ZThn16_N7vecgeom3cxx17UnplacedTrapezoidD0Ev>:
     4c0:	48 83 ef 10          	sub    $0x10,%rdi
     4c4:	eb da                	jmp    4a0 <_ZN7vecgeom3cxx17UnplacedTrapezoidD0Ev>
     4c6:	66 2e 0f 1f 84 00 00 	nopw   %cs:0x0(%rax,%rax,1)
     4cd:	00 00 00 

00000000000004d0 <_ZN7vecgeom3cxx17UnplacedTrapezoid9MakePlaneERKNS0_8Vector3DIdEES5_S5_S5_j>:
     4d0:	41 54                	push   %r12
     4d2:	49 89 cc             	mov    %rcx,%r12
     4d5:	55                   	push   %rbp
     4d6:	48 89 d5             	mov    %rdx,%rbp
     4d9:	53                   	push   %rbx
     4da:	48 89 f3             	mov    %rsi,%rbx
     4dd:	48 83 ec 40          	sub    $0x40,%rsp
     4e1:	f2 0f 10 7a 10       	movsd  0x10(%rdx),%xmm7
     4e6:	f2 0f 10 62 18       	movsd  0x18(%rdx),%xmm4
     4eb:	f2 44 0f 10 4e 10    	movsd  0x10(%rsi),%xmm9
     4f1:	66 44 0f 28 ef       	movapd %xmm7,%xmm13
     4f6:	f2 44 0f 10 46 18    	movsd  0x18(%rsi),%xmm8
     4fc:	f2 0f 10 69 10       	movsd  0x10(%rcx),%xmm5
     501:	66 0f 28 c4          	movapd %xmm4,%xmm0
     505:	f2 0f 11 24 24       	movsd  %xmm4,(%rsp)
     50a:	f2 45 0f 5c e9       	subsd  %xmm9,%xmm13
     50f:	f2 0f 10 61 18       	movsd  0x18(%rcx),%xmm4
     514:	f2 41 0f 5c c0       	subsd  %xmm8,%xmm0
     519:	66 44 0f 28 e5       	movapd %xmm5,%xmm12
     51e:	f2 0f 10 72 20       	movsd  0x20(%rdx),%xmm6
     523:	66 44 0f 28 dc       	movapd %xmm4,%xmm11
     528:	f2 0f 11 7c 24 30    	movsd  %xmm7,0x30(%rsp)
     52e:	f2 45 0f 5c e1       	subsd  %xmm9,%xmm12
     533:	f2 0f 10 7e 20       	movsd  0x20(%rsi),%xmm7
     538:	f2 45 0f 5c d8       	subsd  %xmm8,%xmm11
     53d:	66 0f 28 de          	movapd %xmm6,%xmm3
     541:	66 41 0f 28 cd       	movapd %xmm13,%xmm1
     546:	f2 0f 11 74 24 08    	movsd  %xmm6,0x8(%rsp)
     54c:	66 0f 28 d0          	movapd %xmm0,%xmm2
     550:	f2 0f 11 6c 24 10    	movsd  %xmm5,0x10(%rsp)
     556:	f2 0f 10 71 20       	movsd  0x20(%rcx),%xmm6
     55b:	f2 0f 5c df          	subsd  %xmm7,%xmm3
     55f:	f2 41 0f 59 d4       	mulsd  %xmm12,%xmm2
     564:	f2 0f 11 64 24 18    	movsd  %xmm4,0x18(%rsp)
     56a:	66 44 0f 28 d6       	movapd %xmm6,%xmm10
     56f:	f2 41 0f 59 cb       	mulsd  %xmm11,%xmm1
     574:	f2 0f 11 74 24 38    	movsd  %xmm6,0x38(%rsp)
     57a:	f2 41 0f 10 68 10    	movsd  0x10(%r8),%xmm5
     580:	f2 44 0f 5c d7       	subsd  %xmm7,%xmm10
     585:	f2 41 0f 10 60 18    	movsd  0x18(%r8),%xmm4
     58b:	66 0f 28 f5          	movapd %xmm5,%xmm6
     58f:	f2 0f 11 6c 24 20    	movsd  %xmm5,0x20(%rsp)
     595:	f2 0f 5c ca          	subsd  %xmm2,%xmm1
     599:	66 0f 28 d3          	movapd %xmm3,%xmm2
     59d:	f2 41 0f 59 db       	mulsd  %xmm11,%xmm3
     5a2:	f2 41 0f 5c f1       	subsd  %xmm9,%xmm6
     5a7:	f2 0f 11 64 24 28    	movsd  %xmm4,0x28(%rsp)
     5ad:	f2 45 0f 59 ea       	mulsd  %xmm10,%xmm13
     5b2:	f2 41 0f 5c e0       	subsd  %xmm8,%xmm4
     5b7:	f2 41 0f 59 d4       	mulsd  %xmm12,%xmm2
     5bc:	f2 41 0f 59 c2       	mulsd  %xmm10,%xmm0
     5c1:	f2 45 0f 10 70 20    	movsd  0x20(%r8),%xmm14
     5c7:	66 44 0f 28 fc       	movapd %xmm4,%xmm15
     5cc:	f2 41 0f 5c d5       	subsd  %xmm13,%xmm2
     5d1:	66 41 0f 28 ee       	movapd %xmm14,%xmm5
     5d6:	f2 0f 5c c3          	subsd  %xmm3,%xmm0
     5da:	f2 44 0f 59 fc       	mulsd  %xmm4,%xmm15
     5df:	f2 0f 5c ef          	subsd  %xmm7,%xmm5
     5e3:	66 0f 28 da          	movapd %xmm2,%xmm3
     5e7:	66 44 0f 28 e8       	movapd %xmm0,%xmm13
     5ec:	f2 0f 59 da          	mulsd  %xmm2,%xmm3
     5f0:	f2 44 0f 59 e8       	mulsd  %xmm0,%xmm13
     5f5:	f2 0f 59 d4          	mulsd  %xmm4,%xmm2
     5f9:	f2 0f 59 c6          	mulsd  %xmm6,%xmm0
     5fd:	f2 44 0f 58 eb       	addsd  %xmm3,%xmm13
     602:	66 0f 28 d9          	movapd %xmm1,%xmm3
     606:	f2 0f 59 d9          	mulsd  %xmm1,%xmm3
     60a:	f2 0f 58 c2          	addsd  %xmm2,%xmm0
     60e:	f2 0f 59 cd          	mulsd  %xmm5,%xmm1
     612:	f2 44 0f 58 eb       	addsd  %xmm3,%xmm13
     617:	66 0f 28 de          	movapd %xmm6,%xmm3
     61b:	f2 0f 58 c1          	addsd  %xmm1,%xmm0
     61f:	f2 0f 10 0d 00 00 00 	movsd  0x0(%rip),%xmm1        # 627 <_ZN7vecgeom3cxx17UnplacedTrapezoid9MakePlaneERKNS0_8Vector3DIdEES5_S5_S5_j+0x157>
     626:	00 
     627:	f2 0f 59 de          	mulsd  %xmm6,%xmm3
     62b:	f2 45 0f 51 ed       	sqrtsd %xmm13,%xmm13
     630:	f2 41 0f 58 df       	addsd  %xmm15,%xmm3
     635:	66 44 0f 28 fd       	movapd %xmm5,%xmm15
     63a:	f2 44 0f 59 fd       	mulsd  %xmm5,%xmm15
     63f:	f2 41 0f 58 df       	addsd  %xmm15,%xmm3
     644:	f2 0f 51 db          	sqrtsd %xmm3,%xmm3
     648:	f2 41 0f 59 dd       	mulsd  %xmm13,%xmm3
     64d:	f2 0f 5e c3          	divsd  %xmm3,%xmm0
     651:	66 0f 54 c1          	andpd  %xmm1,%xmm0
     655:	66 0f 2f 05 00 00 00 	comisd 0x0(%rip),%xmm0        # 65d <_ZN7vecgeom3cxx17UnplacedTrapezoid9MakePlaneERKNS0_8Vector3DIdEES5_S5_S5_j+0x18d>
     65c:	00 
     65d:	0f 87 7d 01 00 00    	ja     7e0 <_ZN7vecgeom3cxx17UnplacedTrapezoid9MakePlaneERKNS0_8Vector3DIdEES5_S5_S5_j+0x310>
     663:	f2 44 0f 5c 74 24 08 	subsd  0x8(%rsp),%xmm14
     66a:	f2 0f 10 4c 24 28    	movsd  0x28(%rsp),%xmm1
     670:	66 0f 28 d7          	movapd %xmm7,%xmm2
     674:	49 63 c1             	movslq %r9d,%rax
     677:	f2 0f 5c 0c 24       	subsd  (%rsp),%xmm1
     67c:	66 41 0f 28 d9       	movapd %xmm9,%xmm3
     681:	f2 0f 5c 54 24 38    	subsd  0x38(%rsp),%xmm2
     687:	48 8d 04 c7          	lea    (%rdi,%rax,8),%rax
     68b:	45 89 c9             	mov    %r9d,%r9d
     68e:	f2 0f 5c 5c 24 10    	subsd  0x10(%rsp),%xmm3
     694:	66 41 0f 28 c6       	movapd %xmm14,%xmm0
     699:	f2 41 0f 59 c3       	mulsd  %xmm11,%xmm0
     69e:	f2 0f 59 d1          	mulsd  %xmm1,%xmm2
     6a2:	f2 41 0f 59 de       	mulsd  %xmm14,%xmm3
     6a7:	f2 41 0f 59 cc       	mulsd  %xmm12,%xmm1
     6ac:	f2 0f 58 c2          	addsd  %xmm2,%xmm0
     6b0:	f2 0f 10 54 24 20    	movsd  0x20(%rsp),%xmm2
     6b6:	f2 0f 5c 54 24 30    	subsd  0x30(%rsp),%xmm2
     6bc:	66 44 0f 28 f2       	movapd %xmm2,%xmm14
     6c1:	f2 45 0f 59 f2       	mulsd  %xmm10,%xmm14
     6c6:	f2 41 0f 58 de       	addsd  %xmm14,%xmm3
     6cb:	66 45 0f 28 f0       	movapd %xmm8,%xmm14
     6d0:	f2 44 0f 5c 74 24 18 	subsd  0x18(%rsp),%xmm14
     6d7:	f2 44 0f 59 f2       	mulsd  %xmm2,%xmm14
     6dc:	66 0f 28 d0          	movapd %xmm0,%xmm2
     6e0:	f2 0f 59 d0          	mulsd  %xmm0,%xmm2
     6e4:	f2 41 0f 58 ce       	addsd  %xmm14,%xmm1
     6e9:	66 44 0f 28 f3       	movapd %xmm3,%xmm14
     6ee:	f2 44 0f 59 f3       	mulsd  %xmm3,%xmm14
     6f3:	f2 41 0f 58 d6       	addsd  %xmm14,%xmm2
     6f8:	66 44 0f 28 f1       	movapd %xmm1,%xmm14
     6fd:	f2 44 0f 59 f1       	mulsd  %xmm1,%xmm14
     702:	f2 41 0f 58 d6       	addsd  %xmm14,%xmm2
     707:	f2 44 0f 51 f2       	sqrtsd %xmm2,%xmm14
     70c:	f2 0f 10 15 00 00 00 	movsd  0x0(%rip),%xmm2        # 714 <_ZN7vecgeom3cxx17UnplacedTrapezoid9MakePlaneERKNS0_8Vector3DIdEES5_S5_S5_j+0x244>
     713:	00 
     714:	f2 41 0f 5e d6       	divsd  %xmm14,%xmm2
     719:	f2 0f 59 c2          	mulsd  %xmm2,%xmm0
     71d:	f2 0f 59 da          	mulsd  %xmm2,%xmm3
     721:	f2 0f 59 ca          	mulsd  %xmm2,%xmm1
     725:	f2 44 0f 59 c8       	mulsd  %xmm0,%xmm9
     72a:	f2 0f 11 80 88 00 00 	movsd  %xmm0,0x88(%rax)
     731:	00 
     732:	f2 0f 11 98 a8 00 00 	movsd  %xmm3,0xa8(%rax)
     739:	00 
     73a:	f2 41 0f 59 d8       	mulsd  %xmm8,%xmm3
     73f:	f2 0f 11 88 c8 00 00 	movsd  %xmm1,0xc8(%rax)
     746:	00 
     747:	f2 0f 59 cf          	mulsd  %xmm7,%xmm1
     74b:	f2 0f 10 05 00 00 00 	movsd  0x0(%rip),%xmm0        # 753 <_ZN7vecgeom3cxx17UnplacedTrapezoid9MakePlaneERKNS0_8Vector3DIdEES5_S5_S5_j+0x283>
     752:	00 
     753:	f2 44 0f 58 cb       	addsd  %xmm3,%xmm9
     758:	f2 44 0f 58 c9       	addsd  %xmm1,%xmm9
     75d:	66 41 0f 28 cb       	movapd %xmm11,%xmm1
     762:	f2 0f 59 ce          	mulsd  %xmm6,%xmm1
     766:	f2 41 0f 59 f2       	mulsd  %xmm10,%xmm6
     76b:	66 44 0f 57 c8       	xorpd  %xmm0,%xmm9
     770:	66 41 0f 28 c4       	movapd %xmm12,%xmm0
     775:	f2 44 0f 59 e5       	mulsd  %xmm5,%xmm12
     77a:	f2 0f 59 c4          	mulsd  %xmm4,%xmm0
     77e:	f2 41 0f 59 eb       	mulsd  %xmm11,%xmm5
     783:	f2 44 0f 11 88 e8 00 	movsd  %xmm9,0xe8(%rax)
     78a:	00 00 
     78c:	b8 01 00 00 00       	mov    $0x1,%eax
     791:	f2 41 0f 59 e2       	mulsd  %xmm10,%xmm4
     796:	f2 41 0f 5c f4       	subsd  %xmm12,%xmm6
     79b:	f2 0f 5c c1          	subsd  %xmm1,%xmm0
     79f:	f2 0f 5c ec          	subsd  %xmm4,%xmm5
     7a3:	f2 0f 59 f6          	mulsd  %xmm6,%xmm6
     7a7:	f2 0f 59 c0          	mulsd  %xmm0,%xmm0
     7ab:	f2 0f 59 ed          	mulsd  %xmm5,%xmm5
     7af:	f2 0f 58 ee          	addsd  %xmm6,%xmm5
     7b3:	f2 0f 58 e8          	addsd  %xmm0,%xmm5
     7b7:	f2 0f 51 ed          	sqrtsd %xmm5,%xmm5
     7bb:	f2 41 0f 58 ed       	addsd  %xmm13,%xmm5
     7c0:	f2 0f 59 2d 00 00 00 	mulsd  0x0(%rip),%xmm5        # 7c8 <_ZN7vecgeom3cxx17UnplacedTrapezoid9MakePlaneERKNS0_8Vector3DIdEES5_S5_S5_j+0x2f8>
     7c7:	00 
     7c8:	f2 42 0f 11 ac cf 08 	movsd  %xmm5,0x108(%rdi,%r9,8)
     7cf:	01 00 00 
     7d2:	48 83 c4 40          	add    $0x40,%rsp
     7d6:	5b                   	pop    %rbx
     7d7:	5d                   	pop    %rbp
     7d8:	41 5c                	pop    %r12
     7da:	c3                   	retq   
     7db:	0f 1f 44 00 00       	nopl   0x0(%rax,%rax,1)
     7e0:	48 8d 3d 00 00 00 00 	lea    0x0(%rip),%rdi        # 7e7 <_ZN7vecgeom3cxx17UnplacedTrapezoid9MakePlaneERKNS0_8Vector3DIdEES5_S5_S5_j+0x317>
     7e7:	b8 01 00 00 00       	mov    $0x1,%eax
     7ec:	4c 89 04 24          	mov    %r8,(%rsp)
     7f0:	e8 00 00 00 00       	callq  7f5 <_ZN7vecgeom3cxx17UnplacedTrapezoid9MakePlaneERKNS0_8Vector3DIdEES5_S5_S5_j+0x325>
     7f5:	f2 0f 10 43 10       	movsd  0x10(%rbx),%xmm0
     7fa:	48 8d 3d 00 00 00 00 	lea    0x0(%rip),%rdi        # 801 <_ZN7vecgeom3cxx17UnplacedTrapezoid9MakePlaneERKNS0_8Vector3DIdEES5_S5_S5_j+0x331>
     801:	f2 0f 10 53 20       	movsd  0x20(%rbx),%xmm2
     806:	b8 03 00 00 00       	mov    $0x3,%eax
     80b:	f2 0f 10 4b 18       	movsd  0x18(%rbx),%xmm1
     810:	e8 00 00 00 00       	callq  815 <_ZN7vecgeom3cxx17UnplacedTrapezoid9MakePlaneERKNS0_8Vector3DIdEES5_S5_S5_j+0x345>
     815:	f2 0f 10 45 10       	movsd  0x10(%rbp),%xmm0
     81a:	48 8d 3d 00 00 00 00 	lea    0x0(%rip),%rdi        # 821 <_ZN7vecgeom3cxx17UnplacedTrapezoid9MakePlaneERKNS0_8Vector3DIdEES5_S5_S5_j+0x351>
     821:	f2 0f 10 55 20       	movsd  0x20(%rbp),%xmm2
     826:	b8 03 00 00 00       	mov    $0x3,%eax
     82b:	f2 0f 10 4d 18       	movsd  0x18(%rbp),%xmm1
     830:	e8 00 00 00 00       	callq  835 <_ZN7vecgeom3cxx17UnplacedTrapezoid9MakePlaneERKNS0_8Vector3DIdEES5_S5_S5_j+0x365>
     835:	f2 41 0f 10 44 24 10 	movsd  0x10(%r12),%xmm0
     83c:	48 8d 3d 00 00 00 00 	lea    0x0(%rip),%rdi        # 843 <_ZN7vecgeom3cxx17UnplacedTrapezoid9MakePlaneERKNS0_8Vector3DIdEES5_S5_S5_j+0x373>
     843:	f2 41 0f 10 54 24 20 	movsd  0x20(%r12),%xmm2
     84a:	b8 03 00 00 00       	mov    $0x3,%eax
     84f:	f2 41 0f 10 4c 24 18 	movsd  0x18(%r12),%xmm1
     856:	e8 00 00 00 00       	callq  85b <_ZN7vecgeom3cxx17UnplacedTrapezoid9MakePlaneERKNS0_8Vector3DIdEES5_S5_S5_j+0x38b>
     85b:	4c 8b 04 24          	mov    (%rsp),%r8
     85f:	48 8d 3d 00 00 00 00 	lea    0x0(%rip),%rdi        # 866 <_ZN7vecgeom3cxx17UnplacedTrapezoid9MakePlaneERKNS0_8Vector3DIdEES5_S5_S5_j+0x396>
     866:	b8 03 00 00 00       	mov    $0x3,%eax
     86b:	f2 41 0f 10 40 10    	movsd  0x10(%r8),%xmm0
     871:	f2 41 0f 10 50 20    	movsd  0x20(%r8),%xmm2
     877:	f2 41 0f 10 48 18    	movsd  0x18(%r8),%xmm1
     87d:	e8 00 00 00 00       	callq  882 <_ZN7vecgeom3cxx17UnplacedTrapezoid9MakePlaneERKNS0_8Vector3DIdEES5_S5_S5_j+0x3b2>
     882:	48 83 c4 40          	add    $0x40,%rsp
     886:	31 c0                	xor    %eax,%eax
     888:	5b                   	pop    %rbx
     889:	5d                   	pop    %rbp
     88a:	41 5c                	pop    %r12
     88c:	c3                   	retq   
     88d:	90                   	nop
     88e:	66 90                	xchg   %ax,%ax

0000000000000890 <_ZN7vecgeom3cxx17UnplacedTrapezoid10MakePlanesEPKNS0_8Vector3DIdEE>:
     890:	41 57                	push   %r15
     892:	48 8d 46 30          	lea    0x30(%rsi),%rax
     896:	45 31 c9             	xor    %r9d,%r9d
     899:	41 56                	push   %r14
     89b:	48 89 c2             	mov    %rax,%rdx
     89e:	41 55                	push   %r13
     8a0:	4c 8d ae c0 00 00 00 	lea    0xc0(%rsi),%r13
     8a7:	41 54                	push   %r12
     8a9:	4c 8d a6 f0 00 00 00 	lea    0xf0(%rsi),%r12
     8b0:	4d 89 e8             	mov    %r13,%r8
     8b3:	55                   	push   %rbp
     8b4:	4c 89 e1             	mov    %r12,%rcx
     8b7:	48 89 fd             	mov    %rdi,%rbp
     8ba:	53                   	push   %rbx
     8bb:	48 89 f3             	mov    %rsi,%rbx
     8be:	48 83 ec 28          	sub    $0x28,%rsp
     8c2:	48 89 44 24 08       	mov    %rax,0x8(%rsp)
     8c7:	e8 00 00 00 00       	callq  8cc <_ZN7vecgeom3cxx17UnplacedTrapezoid10MakePlanesEPKNS0_8Vector3DIdEE+0x3c>
     8cc:	84 c0                	test   %al,%al
     8ce:	0f 84 14 01 00 00    	je     9e8 <_ZN7vecgeom3cxx17UnplacedTrapezoid10MakePlanesEPKNS0_8Vector3DIdEE+0x158>
     8d4:	48 8d 83 90 00 00 00 	lea    0x90(%rbx),%rax
     8db:	48 8d 93 50 01 00 00 	lea    0x150(%rbx),%rdx
     8e2:	4c 8d b3 20 01 00 00 	lea    0x120(%rbx),%r14
     8e9:	4c 8d 7b 60          	lea    0x60(%rbx),%r15
     8ed:	41 b9 01 00 00 00    	mov    $0x1,%r9d
     8f3:	48 89 ef             	mov    %rbp,%rdi
     8f6:	48 89 d1             	mov    %rdx,%rcx
     8f9:	48 89 54 24 18       	mov    %rdx,0x18(%rsp)
     8fe:	49 89 c0             	mov    %rax,%r8
     901:	4c 89 f2             	mov    %r14,%rdx
     904:	4c 89 fe             	mov    %r15,%rsi
     907:	48 89 44 24 10       	mov    %rax,0x10(%rsp)
     90c:	e8 00 00 00 00       	callq  911 <_ZN7vecgeom3cxx17UnplacedTrapezoid10MakePlanesEPKNS0_8Vector3DIdEE+0x81>
     911:	84 c0                	test   %al,%al
     913:	0f 84 b7 00 00 00    	je     9d0 <_ZN7vecgeom3cxx17UnplacedTrapezoid10MakePlanesEPKNS0_8Vector3DIdEE+0x140>
     919:	41 b9 02 00 00 00    	mov    $0x2,%r9d
     91f:	4d 89 f8             	mov    %r15,%r8
     922:	4c 89 f1             	mov    %r14,%rcx
     925:	4c 89 ea             	mov    %r13,%rdx
     928:	48 89 de             	mov    %rbx,%rsi
     92b:	48 89 ef             	mov    %rbp,%rdi
     92e:	e8 00 00 00 00       	callq  933 <_ZN7vecgeom3cxx17UnplacedTrapezoid10MakePlanesEPKNS0_8Vector3DIdEE+0xa3>
     933:	84 c0                	test   %al,%al
     935:	0f 84 7d 00 00 00    	je     9b8 <_ZN7vecgeom3cxx17UnplacedTrapezoid10MakePlanesEPKNS0_8Vector3DIdEE+0x128>
     93b:	48 8b 4c 24 18       	mov    0x18(%rsp),%rcx
     940:	48 8b 54 24 10       	mov    0x10(%rsp),%rdx
     945:	41 b9 03 00 00 00    	mov    $0x3,%r9d
     94b:	48 8b 74 24 08       	mov    0x8(%rsp),%rsi
     950:	4d 89 e0             	mov    %r12,%r8
     953:	48 89 ef             	mov    %rbp,%rdi
     956:	e8 00 00 00 00       	callq  95b <_ZN7vecgeom3cxx17UnplacedTrapezoid10MakePlanesEPKNS0_8Vector3DIdEE+0xcb>
     95b:	84 c0                	test   %al,%al
     95d:	89 c3                	mov    %eax,%ebx
     95f:	75 0c                	jne    96d <_ZN7vecgeom3cxx17UnplacedTrapezoid10MakePlanesEPKNS0_8Vector3DIdEE+0xdd>
     961:	48 8d 3d 00 00 00 00 	lea    0x0(%rip),%rdi        # 968 <_ZN7vecgeom3cxx17UnplacedTrapezoid10MakePlanesEPKNS0_8Vector3DIdEE+0xd8>
     968:	e8 00 00 00 00       	callq  96d <_ZN7vecgeom3cxx17UnplacedTrapezoid10MakePlanesEPKNS0_8Vector3DIdEE+0xdd>
     96d:	f2 0f 10 45 40       	movsd  0x40(%rbp),%xmm0
     972:	89 d8                	mov    %ebx,%eax
     974:	f2 0f 58 45 48       	addsd  0x48(%rbp),%xmm0
     979:	f2 0f 58 c0          	addsd  %xmm0,%xmm0
     97d:	f2 0f 59 45 38       	mulsd  0x38(%rbp),%xmm0
     982:	f2 0f 11 85 28 01 00 	movsd  %xmm0,0x128(%rbp)
     989:	00 
     98a:	f2 0f 10 45 60       	movsd  0x60(%rbp),%xmm0
     98f:	f2 0f 58 45 68       	addsd  0x68(%rbp),%xmm0
     994:	f2 0f 58 c0          	addsd  %xmm0,%xmm0
     998:	f2 0f 59 45 58       	mulsd  0x58(%rbp),%xmm0
     99d:	f2 0f 11 85 30 01 00 	movsd  %xmm0,0x130(%rbp)
     9a4:	00 
     9a5:	48 83 c4 28          	add    $0x28,%rsp
     9a9:	5b                   	pop    %rbx
     9aa:	5d                   	pop    %rbp
     9ab:	41 5c                	pop    %r12
     9ad:	41 5d                	pop    %r13
     9af:	41 5e                	pop    %r14
     9b1:	41 5f                	pop    %r15
     9b3:	c3                   	retq   
     9b4:	0f 1f 40 00          	nopl   0x0(%rax)
     9b8:	48 8d 3d 00 00 00 00 	lea    0x0(%rip),%rdi        # 9bf <_ZN7vecgeom3cxx17UnplacedTrapezoid10MakePlanesEPKNS0_8Vector3DIdEE+0x12f>
     9bf:	e8 00 00 00 00       	callq  9c4 <_ZN7vecgeom3cxx17UnplacedTrapezoid10MakePlanesEPKNS0_8Vector3DIdEE+0x134>
     9c4:	e9 72 ff ff ff       	jmpq   93b <_ZN7vecgeom3cxx17UnplacedTrapezoid10MakePlanesEPKNS0_8Vector3DIdEE+0xab>
     9c9:	0f 1f 80 00 00 00 00 	nopl   0x0(%rax)
     9d0:	48 8d 3d 00 00 00 00 	lea    0x0(%rip),%rdi        # 9d7 <_ZN7vecgeom3cxx17UnplacedTrapezoid10MakePlanesEPKNS0_8Vector3DIdEE+0x147>
     9d7:	e8 00 00 00 00       	callq  9dc <_ZN7vecgeom3cxx17UnplacedTrapezoid10MakePlanesEPKNS0_8Vector3DIdEE+0x14c>
     9dc:	e9 38 ff ff ff       	jmpq   919 <_ZN7vecgeom3cxx17UnplacedTrapezoid10MakePlanesEPKNS0_8Vector3DIdEE+0x89>
     9e1:	0f 1f 80 00 00 00 00 	nopl   0x0(%rax)
     9e8:	48 8d 3d 00 00 00 00 	lea    0x0(%rip),%rdi        # 9ef <_ZN7vecgeom3cxx17UnplacedTrapezoid10MakePlanesEPKNS0_8Vector3DIdEE+0x15f>
     9ef:	e8 00 00 00 00       	callq  9f4 <_ZN7vecgeom3cxx17UnplacedTrapezoid10MakePlanesEPKNS0_8Vector3DIdEE+0x164>
     9f4:	e9 db fe ff ff       	jmpq   8d4 <_ZN7vecgeom3cxx17UnplacedTrapezoid10MakePlanesEPKNS0_8Vector3DIdEE+0x44>
     9f9:	90                   	nop
     9fa:	66 0f 1f 44 00 00    	nopw   0x0(%rax,%rax,1)

0000000000000a00 <_ZNK7vecgeom3cxx17UnplacedTrapezoid11SurfaceAreaEv>:
     a00:	f2 0f 10 67 50       	movsd  0x50(%rdi),%xmm4
     a05:	f2 0f 10 4f 38       	movsd  0x38(%rdi),%xmm1
     a0a:	66 44 0f 28 d4       	movapd %xmm4,%xmm10
     a0f:	f2 0f 10 47 58       	movsd  0x58(%rdi),%xmm0
     a14:	f2 0f 10 77 20       	movsd  0x20(%rdi),%xmm6
     a19:	f2 44 0f 58 d4       	addsd  %xmm4,%xmm10
     a1e:	f2 0f 59 e1          	mulsd  %xmm1,%xmm4
     a22:	66 0f 28 fe          	movapd %xmm6,%xmm7
     a26:	66 0f 28 e9          	movapd %xmm1,%xmm5
     a2a:	f2 44 0f 10 77 78    	movsd  0x78(%rdi),%xmm14
     a30:	f2 0f 58 fe          	addsd  %xmm6,%xmm7
     a34:	f2 0f 10 5f 40       	movsd  0x40(%rdi),%xmm3
     a39:	f2 0f 11 64 24 c0    	movsd  %xmm4,-0x40(%rsp)
     a3f:	66 0f 28 e0          	movapd %xmm0,%xmm4
     a43:	f2 0f 58 e9          	addsd  %xmm1,%xmm5
     a47:	f2 0f 10 57 48       	movsd  0x48(%rdi),%xmm2
     a4c:	f2 0f 58 e0          	addsd  %xmm0,%xmm4
     a50:	f2 44 0f 10 bf 80 00 	movsd  0x80(%rdi),%xmm15
     a57:	00 00 
     a59:	66 44 0f 28 ef       	movapd %xmm7,%xmm13
     a5e:	f2 44 0f 59 d1       	mulsd  %xmm1,%xmm10
     a63:	66 44 0f 28 c3       	movapd %xmm3,%xmm8
     a68:	f2 45 0f 59 ee       	mulsd  %xmm14,%xmm13
     a6d:	f2 0f 11 6c 24 b8    	movsd  %xmm5,-0x48(%rsp)
     a73:	f2 0f 11 64 24 d8    	movsd  %xmm4,-0x28(%rsp)
     a79:	66 0f 28 ef          	movapd %xmm7,%xmm5
     a7d:	f2 0f 10 25 00 00 00 	movsd  0x0(%rip),%xmm4        # a85 <_ZNK7vecgeom3cxx17UnplacedTrapezoid11SurfaceAreaEv+0x85>
     a84:	00 
     a85:	f2 44 0f 5c c2       	subsd  %xmm2,%xmm8
     a8a:	f2 41 0f 59 ef       	mulsd  %xmm15,%xmm5
     a8f:	f2 0f 59 e6          	mulsd  %xmm6,%xmm4
     a93:	f2 44 0f 11 6c 24 e0 	movsd  %xmm13,-0x20(%rsp)
     a9a:	f2 44 0f 10 6f 68    	movsd  0x68(%rdi),%xmm13
     aa0:	f2 44 0f 10 4f 70    	movsd  0x70(%rdi),%xmm9
     aa6:	f2 45 0f 58 c2       	addsd  %xmm10,%xmm8
     aab:	f2 0f 11 6c 24 c8    	movsd  %xmm5,-0x38(%rsp)
     ab1:	66 45 0f 28 dd       	movapd %xmm13,%xmm11
     ab6:	f2 44 0f 59 f4       	mulsd  %xmm4,%xmm14
     abb:	66 44 0f 28 e8       	movapd %xmm0,%xmm13
     ac0:	f2 0f 10 6f 60       	movsd  0x60(%rdi),%xmm5
     ac5:	f2 45 0f 59 e9       	mulsd  %xmm9,%xmm13
     aca:	f2 45 0f 58 c9       	addsd  %xmm9,%xmm9
     acf:	f2 44 0f 11 5c 24 d0 	movsd  %xmm11,-0x30(%rsp)
     ad6:	66 44 0f 28 e5       	movapd %xmm5,%xmm12
     adb:	f2 44 0f 59 fc       	mulsd  %xmm4,%xmm15
     ae0:	f2 44 0f 11 74 24 e8 	movsd  %xmm14,-0x18(%rsp)
     ae7:	66 44 0f 28 f2       	movapd %xmm2,%xmm14
     aec:	f2 45 0f 5c e3       	subsd  %xmm11,%xmm12
     af1:	f2 44 0f 5c f3       	subsd  %xmm3,%xmm14
     af6:	f2 44 0f 59 c8       	mulsd  %xmm0,%xmm9
     afb:	66 45 0f 28 dc       	movapd %xmm12,%xmm11
     b00:	f2 45 0f 58 f2       	addsd  %xmm10,%xmm14
     b05:	f2 44 0f 10 15 00 00 	movsd  0x0(%rip),%xmm10        # b0e <_ZNK7vecgeom3cxx17UnplacedTrapezoid11SurfaceAreaEv+0x10e>
     b0c:	00 00 
     b0e:	f2 45 0f 58 d9       	addsd  %xmm9,%xmm11
     b13:	f2 44 0f 59 d0       	mulsd  %xmm0,%xmm10
     b18:	f2 44 0f 11 54 24 f0 	movsd  %xmm10,-0x10(%rsp)
     b1f:	66 45 0f 28 d4       	movapd %xmm12,%xmm10
     b24:	66 44 0f 28 e2       	movapd %xmm2,%xmm12
     b29:	f2 45 0f 5c d1       	subsd  %xmm9,%xmm10
     b2e:	f2 44 0f 10 4c 24 c8 	movsd  -0x38(%rsp),%xmm9
     b35:	f2 44 0f 5c 64 24 d0 	subsd  -0x30(%rsp),%xmm12
     b3c:	f2 44 0f 58 c8       	addsd  %xmm0,%xmm9
     b41:	f2 44 0f 11 54 24 f8 	movsd  %xmm10,-0x8(%rsp)
     b48:	f2 44 0f 10 54 24 e0 	movsd  -0x20(%rsp),%xmm10
     b4f:	f2 44 0f 5c c9       	subsd  %xmm1,%xmm9
     b54:	f2 45 0f 58 d4       	addsd  %xmm12,%xmm10
     b59:	f2 44 0f 10 64 24 b8 	movsd  -0x48(%rsp),%xmm12
     b60:	f2 45 0f 59 c8       	mulsd  %xmm8,%xmm9
     b65:	f2 45 0f 58 d5       	addsd  %xmm13,%xmm10
     b6a:	f2 44 0f 59 c7       	mulsd  %xmm7,%xmm8
     b6f:	f2 44 0f 5c 54 24 c0 	subsd  -0x40(%rsp),%xmm10
     b76:	f2 45 0f 59 c0       	mulsd  %xmm8,%xmm8
     b7b:	f2 45 0f 59 d4       	mulsd  %xmm12,%xmm10
     b80:	f2 45 0f 5c ca       	subsd  %xmm10,%xmm9
     b85:	66 45 0f 28 d4       	movapd %xmm12,%xmm10
     b8a:	66 45 0f 28 e7       	movapd %xmm15,%xmm12
     b8f:	f2 44 0f 59 d7       	mulsd  %xmm7,%xmm10
     b94:	f2 44 0f 58 f9       	addsd  %xmm1,%xmm15
     b99:	f2 44 0f 5c e1       	subsd  %xmm1,%xmm12
     b9e:	f2 41 0f 59 fe       	mulsd  %xmm14,%xmm7
     ba3:	f2 45 0f 59 c9       	mulsd  %xmm9,%xmm9
     ba8:	f2 45 0f 59 d2       	mulsd  %xmm10,%xmm10
     bad:	f2 44 0f 5c f8       	subsd  %xmm0,%xmm15
     bb2:	f2 0f 59 ff          	mulsd  %xmm7,%xmm7
     bb6:	f2 45 0f 58 c2       	addsd  %xmm10,%xmm8
     bbb:	f2 41 0f 58 fa       	addsd  %xmm10,%xmm7
     bc0:	f2 44 0f 10 54 24 f8 	movsd  -0x8(%rsp),%xmm10
     bc7:	f2 45 0f 59 fa       	mulsd  %xmm10,%xmm15
     bcc:	f2 45 0f 58 c1       	addsd  %xmm9,%xmm8
     bd1:	66 45 0f 28 cc       	movapd %xmm12,%xmm9
     bd6:	66 44 0f 28 e5       	movapd %xmm5,%xmm12
     bdb:	f2 44 0f 58 c8       	addsd  %xmm0,%xmm9
     be0:	f2 44 0f 5c e3       	subsd  %xmm3,%xmm12
     be5:	f2 45 0f 51 c0       	sqrtsd %xmm8,%xmm8
     bea:	f2 45 0f 59 cb       	mulsd  %xmm11,%xmm9
     bef:	f2 44 0f 58 64 24 e8 	addsd  -0x18(%rsp),%xmm12
     bf6:	f2 44 0f 59 dc       	mulsd  %xmm4,%xmm11
     bfb:	f2 45 0f 59 db       	mulsd  %xmm11,%xmm11
     c00:	f2 44 0f 5c 64 24 c0 	subsd  -0x40(%rsp),%xmm12
     c07:	f2 45 0f 58 e5       	addsd  %xmm13,%xmm12
     c0c:	f2 44 0f 59 64 24 d8 	mulsd  -0x28(%rsp),%xmm12
     c13:	f2 45 0f 5c cc       	subsd  %xmm12,%xmm9
     c18:	f2 44 0f 10 64 24 d8 	movsd  -0x28(%rsp),%xmm12
     c1f:	f2 44 0f 59 e4       	mulsd  %xmm4,%xmm12
     c24:	f2 45 0f 59 c9       	mulsd  %xmm9,%xmm9
     c29:	f2 45 0f 59 e4       	mulsd  %xmm12,%xmm12
     c2e:	f2 45 0f 58 e3       	addsd  %xmm11,%xmm12
     c33:	f2 44 0f 10 5c 24 e0 	movsd  -0x20(%rsp),%xmm11
     c3a:	f2 44 0f 58 dd       	addsd  %xmm5,%xmm11
     c3f:	f2 45 0f 58 e1       	addsd  %xmm9,%xmm12
     c44:	f2 44 0f 10 4c 24 c8 	movsd  -0x38(%rsp),%xmm9
     c4b:	f2 44 0f 5c db       	subsd  %xmm3,%xmm11
     c50:	f2 44 0f 5c c8       	subsd  %xmm0,%xmm9
     c55:	f2 0f 5c c1          	subsd  %xmm1,%xmm0
     c59:	f2 45 0f 51 e4       	sqrtsd %xmm12,%xmm12
     c5e:	f2 45 0f 58 c4       	addsd  %xmm12,%xmm8
     c63:	f2 44 0f 58 5c 24 c0 	addsd  -0x40(%rsp),%xmm11
     c6a:	f2 44 0f 58 c9       	addsd  %xmm1,%xmm9
     c6f:	66 0f 28 c8          	movapd %xmm0,%xmm1
     c73:	f2 45 0f 59 ce       	mulsd  %xmm14,%xmm9
     c78:	f2 45 0f 5c dd       	subsd  %xmm13,%xmm11
     c7d:	f2 44 0f 10 74 24 e8 	movsd  -0x18(%rsp),%xmm14
     c84:	f2 44 0f 58 f2       	addsd  %xmm2,%xmm14
     c89:	f2 44 0f 59 5c 24 b8 	mulsd  -0x48(%rsp),%xmm11
     c90:	f2 45 0f 5c cb       	subsd  %xmm11,%xmm9
     c95:	f2 44 0f 10 5c 24 d0 	movsd  -0x30(%rsp),%xmm11
     c9c:	f2 45 0f 5c f3       	subsd  %xmm11,%xmm14
     ca1:	f2 45 0f 59 c9       	mulsd  %xmm9,%xmm9
     ca6:	f2 44 0f 58 74 24 c0 	addsd  -0x40(%rsp),%xmm14
     cad:	f2 41 0f 58 f9       	addsd  %xmm9,%xmm7
     cb2:	f2 44 0f 10 4c 24 f0 	movsd  -0x10(%rsp),%xmm9
     cb9:	f2 45 0f 5c f5       	subsd  %xmm13,%xmm14
     cbe:	66 45 0f 28 ea       	movapd %xmm10,%xmm13
     cc3:	f2 0f 51 ff          	sqrtsd %xmm7,%xmm7
     cc7:	f2 44 0f 58 c7       	addsd  %xmm7,%xmm8
     ccc:	f2 44 0f 59 ec       	mulsd  %xmm4,%xmm13
     cd1:	f2 41 0f 59 e1       	mulsd  %xmm9,%xmm4
     cd6:	f2 45 0f 59 f1       	mulsd  %xmm9,%xmm14
     cdb:	f2 45 0f 59 ed       	mulsd  %xmm13,%xmm13
     ce0:	f2 0f 59 e4          	mulsd  %xmm4,%xmm4
     ce4:	f2 45 0f 5c fe       	subsd  %xmm14,%xmm15
     ce9:	f2 41 0f 58 e5       	addsd  %xmm13,%xmm4
     cee:	f2 45 0f 59 ff       	mulsd  %xmm15,%xmm15
     cf3:	f2 41 0f 58 e7       	addsd  %xmm15,%xmm4
     cf8:	f2 44 0f 10 3d 00 00 	movsd  0x0(%rip),%xmm15        # d01 <_ZNK7vecgeom3cxx17UnplacedTrapezoid11SurfaceAreaEv+0x301>
     cff:	00 00 
     d01:	f2 44 0f 59 fe       	mulsd  %xmm6,%xmm15
     d06:	f2 0f 51 e4          	sqrtsd %xmm4,%xmm4
     d0a:	f2 44 0f 58 c4       	addsd  %xmm4,%xmm8
     d0f:	66 45 0f 28 cf       	movapd %xmm15,%xmm9
     d14:	f2 44 0f 59 ce       	mulsd  %xmm6,%xmm9
     d19:	f2 0f 10 74 24 c8    	movsd  -0x38(%rsp),%xmm6
     d1f:	f2 44 0f 59 05 00 00 	mulsd  0x0(%rip),%xmm8        # d28 <_ZNK7vecgeom3cxx17UnplacedTrapezoid11SurfaceAreaEv+0x328>
     d26:	00 00 
     d28:	f2 0f 58 c6          	addsd  %xmm6,%xmm0
     d2c:	f2 0f 5c ce          	subsd  %xmm6,%xmm1
     d30:	66 41 0f 28 f3       	movapd %xmm11,%xmm6
     d35:	f2 0f 58 f5          	addsd  %xmm5,%xmm6
     d39:	f2 0f 59 c0          	mulsd  %xmm0,%xmm0
     d3d:	f2 0f 59 c9          	mulsd  %xmm1,%xmm1
     d41:	f2 0f 59 74 24 d8    	mulsd  -0x28(%rsp),%xmm6
     d47:	f2 41 0f 58 c1       	addsd  %xmm9,%xmm0
     d4c:	f2 41 0f 58 c9       	addsd  %xmm9,%xmm1
     d51:	f2 44 0f 51 c8       	sqrtsd %xmm0,%xmm9
     d56:	66 0f 28 c3          	movapd %xmm3,%xmm0
     d5a:	f2 0f 58 dd          	addsd  %xmm5,%xmm3
     d5e:	f2 0f 51 c9          	sqrtsd %xmm1,%xmm1
     d62:	f2 0f 58 c2          	addsd  %xmm2,%xmm0
     d66:	f2 41 0f 58 d3       	addsd  %xmm11,%xmm2
     d6b:	f2 0f 59 d9          	mulsd  %xmm1,%xmm3
     d6f:	f2 0f 59 44 24 b8    	mulsd  -0x48(%rsp),%xmm0
     d75:	f2 41 0f 59 d1       	mulsd  %xmm9,%xmm2
     d7a:	f2 0f 58 c6          	addsd  %xmm6,%xmm0
     d7e:	f2 0f 58 c3          	addsd  %xmm3,%xmm0
     d82:	f2 0f 58 c2          	addsd  %xmm2,%xmm0
     d86:	f2 41 0f 58 c0       	addsd  %xmm8,%xmm0
     d8b:	c3                   	retq   
     d8c:	0f 1f 40 00          	nopl   0x0(%rax)

0000000000000d90 <_ZNK7vecgeom3cxx17UnplacedTrapezoid15GetPointOnPlaneENS0_8Vector3DIdEES3_S3_S3_>:
     d90:	41 57                	push   %r15
     d92:	41 56                	push   %r14
     d94:	41 55                	push   %r13
     d96:	4d 89 c5             	mov    %r8,%r13
     d99:	41 54                	push   %r12
     d9b:	49 89 d4             	mov    %rdx,%r12
     d9e:	55                   	push   %rbp
     d9f:	48 89 fd             	mov    %rdi,%rbp
     da2:	53                   	push   %rbx
     da3:	48 83 ec 78          	sub    $0x78,%rsp
     da7:	48 8b 1d 00 00 00 00 	mov    0x0(%rip),%rbx        # dae <_ZNK7vecgeom3cxx17UnplacedTrapezoid15GetPointOnPlaneENS0_8Vector3DIdEES3_S3_S3_+0x1e>
     dae:	f2 0f 10 61 10       	movsd  0x10(%rcx),%xmm4
     db3:	f2 0f 10 6a 10       	movsd  0x10(%rdx),%xmm5
     db8:	66 0f 28 f4          	movapd %xmm4,%xmm6
     dbc:	f2 0f 10 41 20       	movsd  0x20(%rcx),%xmm0
     dc1:	f2 0f 10 51 18       	movsd  0x18(%rcx),%xmm2
     dc6:	44 0f b6 13          	movzbl (%rbx),%r10d
     dca:	f2 0f 5c f5          	subsd  %xmm5,%xmm6
     dce:	f2 0f 10 4a 20       	movsd  0x20(%rdx),%xmm1
     dd3:	66 0f 28 f8          	movapd %xmm0,%xmm7
     dd7:	f2 0f 10 5a 18       	movsd  0x18(%rdx),%xmm3
     ddc:	f2 0f 5c f9          	subsd  %xmm1,%xmm7
     de0:	f2 45 0f 10 40 10    	movsd  0x10(%r8),%xmm8
     de6:	66 44 0f 28 ce       	movapd %xmm6,%xmm9
     deb:	f2 0f 11 74 24 10    	movsd  %xmm6,0x10(%rsp)
     df1:	66 0f 28 f2          	movapd %xmm2,%xmm6
     df5:	45 84 d2             	test   %r10b,%r10b
     df8:	66 45 0f 28 f0       	movapd %xmm8,%xmm14
     dfd:	f2 0f 5c f3          	subsd  %xmm3,%xmm6
     e01:	66 44 0f 28 df       	movapd %xmm7,%xmm11
     e06:	f2 0f 11 7c 24 20    	movsd  %xmm7,0x20(%rsp)
     e0c:	f2 44 0f 5c f4       	subsd  %xmm4,%xmm14
     e11:	f2 41 0f 10 78 18    	movsd  0x18(%r8),%xmm7
     e17:	66 44 0f 28 d6       	movapd %xmm6,%xmm10
     e1c:	f2 0f 11 74 24 18    	movsd  %xmm6,0x18(%rsp)
     e22:	66 0f 28 e7          	movapd %xmm7,%xmm4
     e26:	f2 44 0f 11 74 24 28 	movsd  %xmm14,0x28(%rsp)
     e2d:	f2 41 0f 10 70 20    	movsd  0x20(%r8),%xmm6
     e33:	f2 0f 5c e2          	subsd  %xmm2,%xmm4
     e37:	66 0f 28 d6          	movapd %xmm6,%xmm2
     e3b:	f2 0f 5c d0          	subsd  %xmm0,%xmm2
     e3f:	f2 41 0f 10 41 20    	movsd  0x20(%r9),%xmm0
     e45:	66 44 0f 28 fc       	movapd %xmm4,%xmm15
     e4a:	f2 0f 11 64 24 30    	movsd  %xmm4,0x30(%rsp)
     e50:	f2 41 0f 10 61 10    	movsd  0x10(%r9),%xmm4
     e56:	f2 0f 5c c8          	subsd  %xmm0,%xmm1
     e5a:	f2 0f 11 54 24 08    	movsd  %xmm2,0x8(%rsp)
     e60:	66 44 0f 28 e4       	movapd %xmm4,%xmm12
     e65:	f2 41 0f 10 51 18    	movsd  0x18(%r9),%xmm2
     e6b:	f2 0f 5c ec          	subsd  %xmm4,%xmm5
     e6f:	f2 45 0f 5c e0       	subsd  %xmm8,%xmm12
     e74:	66 0f 28 e1          	movapd %xmm1,%xmm4
     e78:	66 44 0f 28 ea       	movapd %xmm2,%xmm13
     e7d:	f2 0f 11 4c 24 60    	movsd  %xmm1,0x60(%rsp)
     e83:	f2 0f 5c da          	subsd  %xmm2,%xmm3
     e87:	f2 44 0f 5c ef       	subsd  %xmm7,%xmm13
     e8c:	66 0f 28 f8          	movapd %xmm0,%xmm7
     e90:	66 41 0f 28 c4       	movapd %xmm12,%xmm0
     e95:	f2 0f 11 6c 24 50    	movsd  %xmm5,0x50(%rsp)
     e9b:	f2 0f 5c fe          	subsd  %xmm6,%xmm7
     e9f:	66 41 0f 28 d4       	movapd %xmm12,%xmm2
     ea4:	f2 0f 59 c3          	mulsd  %xmm3,%xmm0
     ea8:	f2 0f 11 5c 24 58    	movsd  %xmm3,0x58(%rsp)
     eae:	66 41 0f 28 cd       	movapd %xmm13,%xmm1
     eb3:	f2 0f 59 d4          	mulsd  %xmm4,%xmm2
     eb7:	f2 44 0f 11 64 24 38 	movsd  %xmm12,0x38(%rsp)
     ebe:	f2 44 0f 11 6c 24 40 	movsd  %xmm13,0x40(%rsp)
     ec5:	f2 0f 59 cd          	mulsd  %xmm5,%xmm1
     ec9:	f2 0f 11 7c 24 48    	movsd  %xmm7,0x48(%rsp)
     ecf:	f2 0f 5c c8          	subsd  %xmm0,%xmm1
     ed3:	66 0f 28 c7          	movapd %xmm7,%xmm0
     ed7:	f2 0f 59 c5          	mulsd  %xmm5,%xmm0
     edb:	f2 0f 10 2d 00 00 00 	movsd  0x0(%rip),%xmm5        # ee3 <_ZNK7vecgeom3cxx17UnplacedTrapezoid15GetPointOnPlaneENS0_8Vector3DIdEES3_S3_S3_+0x153>
     ee2:	00 
     ee3:	f2 0f 59 c9          	mulsd  %xmm1,%xmm1
     ee7:	f2 0f 5c d0          	subsd  %xmm0,%xmm2
     eeb:	66 0f 28 c7          	movapd %xmm7,%xmm0
     eef:	f2 0f 10 7c 24 08    	movsd  0x8(%rsp),%xmm7
     ef5:	f2 0f 59 c3          	mulsd  %xmm3,%xmm0
     ef9:	66 41 0f 28 dd       	movapd %xmm13,%xmm3
     efe:	f2 0f 59 dc          	mulsd  %xmm4,%xmm3
     f02:	f2 0f 59 d2          	mulsd  %xmm2,%xmm2
     f06:	f2 0f 5c c3          	subsd  %xmm3,%xmm0
     f0a:	66 41 0f 28 db       	movapd %xmm11,%xmm3
     f0f:	f2 41 0f 59 df       	mulsd  %xmm15,%xmm3
     f14:	f2 0f 59 c0          	mulsd  %xmm0,%xmm0
     f18:	f2 0f 58 c2          	addsd  %xmm2,%xmm0
     f1c:	66 41 0f 28 d3       	movapd %xmm11,%xmm2
     f21:	f2 41 0f 59 d6       	mulsd  %xmm14,%xmm2
     f26:	f2 0f 58 c1          	addsd  %xmm1,%xmm0
     f2a:	66 41 0f 28 c9       	movapd %xmm9,%xmm1
     f2f:	f2 41 0f 59 cf       	mulsd  %xmm15,%xmm1
     f34:	f2 0f 51 e0          	sqrtsd %xmm0,%xmm4
     f38:	66 41 0f 28 c2       	movapd %xmm10,%xmm0
     f3d:	f2 0f 59 e5          	mulsd  %xmm5,%xmm4
     f41:	f2 41 0f 59 c6       	mulsd  %xmm14,%xmm0
     f46:	f2 0f 5c c8          	subsd  %xmm0,%xmm1
     f4a:	66 41 0f 28 c1       	movapd %xmm9,%xmm0
     f4f:	f2 0f 59 c7          	mulsd  %xmm7,%xmm0
     f53:	f2 0f 59 c9          	mulsd  %xmm1,%xmm1
     f57:	f2 0f 5c d0          	subsd  %xmm0,%xmm2
     f5b:	66 41 0f 28 c2       	movapd %xmm10,%xmm0
     f60:	f2 0f 59 c7          	mulsd  %xmm7,%xmm0
     f64:	f2 0f 59 d2          	mulsd  %xmm2,%xmm2
     f68:	f2 0f 5c c3          	subsd  %xmm3,%xmm0
     f6c:	f2 0f 59 c0          	mulsd  %xmm0,%xmm0
     f70:	f2 0f 58 c2          	addsd  %xmm2,%xmm0
     f74:	f2 0f 58 c1          	addsd  %xmm1,%xmm0
     f78:	f2 0f 51 d8          	sqrtsd %xmm0,%xmm3
     f7c:	f2 0f 59 dd          	mulsd  %xmm5,%xmm3
     f80:	f2 0f 58 dc          	addsd  %xmm4,%xmm3
     f84:	0f 84 66 09 00 00    	je     18f0 <_ZNK7vecgeom3cxx17UnplacedTrapezoid15GetPointOnPlaneENS0_8Vector3DIdEES3_S3_S3_+0xb60>
     f8a:	4c 8b 35 00 00 00 00 	mov    0x0(%rip),%r14        # f91 <_ZNK7vecgeom3cxx17UnplacedTrapezoid15GetPointOnPlaneENS0_8Vector3DIdEES3_S3_S3_+0x201>
     f91:	d9 e8                	fld1   
     f93:	49 8b 8e 80 13 00 00 	mov    0x1380(%r14),%rcx
     f9a:	41 b9 02 00 00 00    	mov    $0x2,%r9d
     fa0:	66 0f 57 c9          	xorpd  %xmm1,%xmm1
     fa4:	49 8d 96 20 07 00 00 	lea    0x720(%r14),%rdx
     fab:	bf df b0 08 99       	mov    $0x9908b0df,%edi
     fb0:	31 c0                	xor    %eax,%eax
     fb2:	4d 8d 86 80 13 00 00 	lea    0x1380(%r14),%r8
     fb9:	d9 05 00 00 00 00    	flds   0x0(%rip)        # fbf <_ZNK7vecgeom3cxx17UnplacedTrapezoid15GetPointOnPlaneENS0_8Vector3DIdEES3_S3_S3_+0x22f>
     fbf:	eb 73                	jmp    1034 <_ZNK7vecgeom3cxx17UnplacedTrapezoid15GetPointOnPlaneENS0_8Vector3DIdEES3_S3_S3_+0x2a4>
     fc1:	0f 1f 80 00 00 00 00 	nopl   0x0(%rax)
     fc8:	49 8b 34 ce          	mov    (%r14,%rcx,8),%rsi
     fcc:	4c 8d 59 01          	lea    0x1(%rcx),%r11
     fd0:	48 89 f1             	mov    %rsi,%rcx
     fd3:	48 c1 e9 0b          	shr    $0xb,%rcx
     fd7:	89 c9                	mov    %ecx,%ecx
     fd9:	48 31 f1             	xor    %rsi,%rcx
     fdc:	48 89 ce             	mov    %rcx,%rsi
     fdf:	48 c1 e6 07          	shl    $0x7,%rsi
     fe3:	81 e6 80 56 2c 9d    	and    $0x9d2c5680,%esi
     fe9:	48 31 ce             	xor    %rcx,%rsi
     fec:	48 89 f1             	mov    %rsi,%rcx
     fef:	48 c1 e1 0f          	shl    $0xf,%rcx
     ff3:	81 e1 00 00 c6 ef    	and    $0xefc60000,%ecx
     ff9:	48 31 f1             	xor    %rsi,%rcx
     ffc:	48 89 ce             	mov    %rcx,%rsi
     fff:	48 c1 ee 12          	shr    $0x12,%rsi
    1003:	48 31 f1             	xor    %rsi,%rcx
    1006:	0f 88 1e 01 00 00    	js     112a <_ZNK7vecgeom3cxx17UnplacedTrapezoid15GetPointOnPlaneENS0_8Vector3DIdEES3_S3_S3_+0x39a>
    100c:	d9 c9                	fxch   %st(1)
    100e:	f2 48 0f 2a c1       	cvtsi2sd %rcx,%xmm0
    1013:	dd 14 24             	fstl   (%rsp)
    1016:	49 83 e9 01          	sub    $0x1,%r9
    101a:	f2 0f 10 34 24       	movsd  (%rsp),%xmm6
    101f:	d8 c9                	fmul   %st(1),%st
    1021:	f2 0f 59 c6          	mulsd  %xmm6,%xmm0
    1025:	f2 0f 58 c8          	addsd  %xmm0,%xmm1
    1029:	0f 84 17 01 00 00    	je     1146 <_ZNK7vecgeom3cxx17UnplacedTrapezoid15GetPointOnPlaneENS0_8Vector3DIdEES3_S3_S3_+0x3b6>
    102f:	d9 c9                	fxch   %st(1)
    1031:	4c 89 d9             	mov    %r11,%rcx
    1034:	48 81 f9 6f 02 00 00 	cmp    $0x26f,%rcx
    103b:	76 8b                	jbe    fc8 <_ZNK7vecgeom3cxx17UnplacedTrapezoid15GetPointOnPlaneENS0_8Vector3DIdEES3_S3_S3_+0x238>
    103d:	49 8d 4e 08          	lea    0x8(%r14),%rcx
    1041:	49 8b 36             	mov    (%r14),%rsi
    1044:	eb 0d                	jmp    1053 <_ZNK7vecgeom3cxx17UnplacedTrapezoid15GetPointOnPlaneENS0_8Vector3DIdEES3_S3_S3_+0x2c3>
    1046:	66 2e 0f 1f 84 00 00 	nopw   %cs:0x0(%rax,%rax,1)
    104d:	00 00 00 
    1050:	4c 89 fe             	mov    %r15,%rsi
    1053:	4c 8b 39             	mov    (%rcx),%r15
    1056:	48 81 e6 00 00 00 80 	and    $0xffffffff80000000,%rsi
    105d:	4d 89 fb             	mov    %r15,%r11
    1060:	41 81 e3 ff ff ff 7f 	and    $0x7fffffff,%r11d
    1067:	49 09 f3             	or     %rsi,%r11
    106a:	48 89 c6             	mov    %rax,%rsi
    106d:	41 f6 c3 01          	test   $0x1,%r11b
    1071:	48 0f 45 f7          	cmovne %rdi,%rsi
    1075:	48 33 b1 60 0c 00 00 	xor    0xc60(%rcx),%rsi
    107c:	49 d1 eb             	shr    %r11
    107f:	48 83 c1 08          	add    $0x8,%rcx
    1083:	4c 31 de             	xor    %r11,%rsi
    1086:	48 89 71 f0          	mov    %rsi,-0x10(%rcx)
    108a:	48 39 d1             	cmp    %rdx,%rcx
    108d:	75 c1                	jne    1050 <_ZNK7vecgeom3cxx17UnplacedTrapezoid15GetPointOnPlaneENS0_8Vector3DIdEES3_S3_S3_+0x2c0>
    108f:	48 89 d1             	mov    %rdx,%rcx
    1092:	49 8b b6 18 07 00 00 	mov    0x718(%r14),%rsi
    1099:	eb 08                	jmp    10a3 <_ZNK7vecgeom3cxx17UnplacedTrapezoid15GetPointOnPlaneENS0_8Vector3DIdEES3_S3_S3_+0x313>
    109b:	0f 1f 44 00 00       	nopl   0x0(%rax,%rax,1)
    10a0:	4c 89 fe             	mov    %r15,%rsi
    10a3:	4c 8b 39             	mov    (%rcx),%r15
    10a6:	48 81 e6 00 00 00 80 	and    $0xffffffff80000000,%rsi
    10ad:	4d 89 fb             	mov    %r15,%r11
    10b0:	41 81 e3 ff ff ff 7f 	and    $0x7fffffff,%r11d
    10b7:	49 09 f3             	or     %rsi,%r11
    10ba:	48 89 c6             	mov    %rax,%rsi
    10bd:	41 f6 c3 01          	test   $0x1,%r11b
    10c1:	48 0f 45 f7          	cmovne %rdi,%rsi
    10c5:	48 33 b1 e0 f8 ff ff 	xor    -0x720(%rcx),%rsi
    10cc:	49 d1 eb             	shr    %r11
    10cf:	48 83 c1 08          	add    $0x8,%rcx
    10d3:	4c 31 de             	xor    %r11,%rsi
    10d6:	48 89 71 f0          	mov    %rsi,-0x10(%rcx)
    10da:	4c 39 c1             	cmp    %r8,%rcx
    10dd:	75 c1                	jne    10a0 <_ZNK7vecgeom3cxx17UnplacedTrapezoid15GetPointOnPlaneENS0_8Vector3DIdEES3_S3_S3_+0x310>
    10df:	49 8b 36             	mov    (%r14),%rsi
    10e2:	49 8b 8e 78 13 00 00 	mov    0x1378(%r14),%rcx
    10e9:	49 89 f3             	mov    %rsi,%r11
    10ec:	48 81 e1 00 00 00 80 	and    $0xffffffff80000000,%rcx
    10f3:	41 81 e3 ff ff ff 7f 	and    $0x7fffffff,%r11d
    10fa:	49 09 cb             	or     %rcx,%r11
    10fd:	4c 89 d9             	mov    %r11,%rcx
    1100:	48 d1 e9             	shr    %rcx
    1103:	49 33 8e 60 0c 00 00 	xor    0xc60(%r14),%rcx
    110a:	41 83 e3 01          	and    $0x1,%r11d
    110e:	49 89 fb             	mov    %rdi,%r11
    1111:	4c 0f 44 d8          	cmove  %rax,%r11
    1115:	4c 31 d9             	xor    %r11,%rcx
    1118:	41 bb 01 00 00 00    	mov    $0x1,%r11d
    111e:	49 89 8e 78 13 00 00 	mov    %rcx,0x1378(%r14)
    1125:	e9 a6 fe ff ff       	jmpq   fd0 <_ZNK7vecgeom3cxx17UnplacedTrapezoid15GetPointOnPlaneENS0_8Vector3DIdEES3_S3_S3_+0x240>
    112a:	d9 c9                	fxch   %st(1)
    112c:	48 89 ce             	mov    %rcx,%rsi
    112f:	83 e1 01             	and    $0x1,%ecx
    1132:	48 d1 ee             	shr    %rsi
    1135:	48 09 ce             	or     %rcx,%rsi
    1138:	f2 48 0f 2a c6       	cvtsi2sd %rsi,%xmm0
    113d:	f2 0f 58 c0          	addsd  %xmm0,%xmm0
    1141:	e9 cd fe ff ff       	jmpq   1013 <_ZNK7vecgeom3cxx17UnplacedTrapezoid15GetPointOnPlaneENS0_8Vector3DIdEES3_S3_S3_+0x283>
    1146:	dd d9                	fstp   %st(1)
    1148:	dd 1c 24             	fstpl  (%rsp)
    114b:	4d 89 9e 80 13 00 00 	mov    %r11,0x1380(%r14)
    1152:	f2 41 0f 10 86 88 13 	movsd  0x1388(%r14),%xmm0
    1159:	00 00 
    115b:	f2 0f 10 2c 24       	movsd  (%rsp),%xmm5
    1160:	f2 41 0f 10 96 90 13 	movsd  0x1390(%r14),%xmm2
    1167:	00 00 
    1169:	f2 0f 5e cd          	divsd  %xmm5,%xmm1
    116d:	f2 0f 5c d0          	subsd  %xmm0,%xmm2
    1171:	f2 0f 59 ca          	mulsd  %xmm2,%xmm1
    1175:	f2 0f 58 c8          	addsd  %xmm0,%xmm1
    1179:	f2 0f 59 cb          	mulsd  %xmm3,%xmm1
    117d:	66 0f 2f e1          	comisd %xmm1,%xmm4
    1181:	0f 87 b2 05 00 00    	ja     1739 <_ZNK7vecgeom3cxx17UnplacedTrapezoid15GetPointOnPlaneENS0_8Vector3DIdEES3_S3_S3_+0x9a9>
    1187:	45 84 d2             	test   %r10b,%r10b
    118a:	4c 89 d8             	mov    %r11,%rax
    118d:	66 0f 28 d8          	movapd %xmm0,%xmm3
    1191:	0f 84 e0 04 00 00    	je     1677 <_ZNK7vecgeom3cxx17UnplacedTrapezoid15GetPointOnPlaneENS0_8Vector3DIdEES3_S3_S3_+0x8e7>
    1197:	d9 e8                	fld1   
    1199:	41 bb 02 00 00 00    	mov    $0x2,%r11d
    119f:	4d 8d 86 20 07 00 00 	lea    0x720(%r14),%r8
    11a6:	66 0f 57 c9          	xorpd  %xmm1,%xmm1
    11aa:	bf df b0 08 99       	mov    $0x9908b0df,%edi
    11af:	31 f6                	xor    %esi,%esi
    11b1:	4d 8d 8e 80 13 00 00 	lea    0x1380(%r14),%r9
    11b8:	d9 05 00 00 00 00    	flds   0x0(%rip)        # 11be <_ZNK7vecgeom3cxx17UnplacedTrapezoid15GetPointOnPlaneENS0_8Vector3DIdEES3_S3_S3_+0x42e>
    11be:	eb 6b                	jmp    122b <_ZNK7vecgeom3cxx17UnplacedTrapezoid15GetPointOnPlaneENS0_8Vector3DIdEES3_S3_S3_+0x49b>
    11c0:	49 8b 14 c6          	mov    (%r14,%rax,8),%rdx
    11c4:	48 8d 48 01          	lea    0x1(%rax),%rcx
    11c8:	48 89 d0             	mov    %rdx,%rax
    11cb:	48 c1 e8 0b          	shr    $0xb,%rax
    11cf:	89 c0                	mov    %eax,%eax
    11d1:	48 31 d0             	xor    %rdx,%rax
    11d4:	48 89 c2             	mov    %rax,%rdx
    11d7:	48 c1 e2 07          	shl    $0x7,%rdx
    11db:	81 e2 80 56 2c 9d    	and    $0x9d2c5680,%edx
    11e1:	48 31 c2             	xor    %rax,%rdx
    11e4:	48 89 d0             	mov    %rdx,%rax
    11e7:	48 c1 e0 0f          	shl    $0xf,%rax
    11eb:	25 00 00 c6 ef       	and    $0xefc60000,%eax
    11f0:	48 31 d0             	xor    %rdx,%rax
    11f3:	48 89 c2             	mov    %rax,%rdx
    11f6:	48 c1 ea 12          	shr    $0x12,%rdx
    11fa:	48 31 d0             	xor    %rdx,%rax
    11fd:	0f 88 11 01 00 00    	js     1314 <_ZNK7vecgeom3cxx17UnplacedTrapezoid15GetPointOnPlaneENS0_8Vector3DIdEES3_S3_S3_+0x584>
    1203:	d9 c9                	fxch   %st(1)
    1205:	f2 48 0f 2a c0       	cvtsi2sd %rax,%xmm0
    120a:	dd 14 24             	fstl   (%rsp)
    120d:	49 83 eb 01          	sub    $0x1,%r11
    1211:	f2 0f 10 3c 24       	movsd  (%rsp),%xmm7
    1216:	d8 c9                	fmul   %st(1),%st
    1218:	f2 0f 59 c7          	mulsd  %xmm7,%xmm0
    121c:	f2 0f 58 c8          	addsd  %xmm0,%xmm1
    1220:	0f 84 0a 01 00 00    	je     1330 <_ZNK7vecgeom3cxx17UnplacedTrapezoid15GetPointOnPlaneENS0_8Vector3DIdEES3_S3_S3_+0x5a0>
    1226:	d9 c9                	fxch   %st(1)
    1228:	48 89 c8             	mov    %rcx,%rax
    122b:	48 3d 6f 02 00 00    	cmp    $0x26f,%rax
    1231:	76 8d                	jbe    11c0 <_ZNK7vecgeom3cxx17UnplacedTrapezoid15GetPointOnPlaneENS0_8Vector3DIdEES3_S3_S3_+0x430>
    1233:	49 8d 46 08          	lea    0x8(%r14),%rax
    1237:	49 8b 16             	mov    (%r14),%rdx
    123a:	eb 07                	jmp    1243 <_ZNK7vecgeom3cxx17UnplacedTrapezoid15GetPointOnPlaneENS0_8Vector3DIdEES3_S3_S3_+0x4b3>
    123c:	0f 1f 40 00          	nopl   0x0(%rax)
    1240:	4c 89 ea             	mov    %r13,%rdx
    1243:	4c 8b 28             	mov    (%rax),%r13
    1246:	48 81 e2 00 00 00 80 	and    $0xffffffff80000000,%rdx
    124d:	4c 89 e9             	mov    %r13,%rcx
    1250:	81 e1 ff ff ff 7f    	and    $0x7fffffff,%ecx
    1256:	48 09 d1             	or     %rdx,%rcx
    1259:	48 89 f2             	mov    %rsi,%rdx
    125c:	f6 c1 01             	test   $0x1,%cl
    125f:	48 0f 45 d7          	cmovne %rdi,%rdx
    1263:	48 33 90 60 0c 00 00 	xor    0xc60(%rax),%rdx
    126a:	48 d1 e9             	shr    %rcx
    126d:	48 83 c0 08          	add    $0x8,%rax
    1271:	48 31 ca             	xor    %rcx,%rdx
    1274:	48 89 50 f0          	mov    %rdx,-0x10(%rax)
    1278:	4c 39 c0             	cmp    %r8,%rax
    127b:	75 c3                	jne    1240 <_ZNK7vecgeom3cxx17UnplacedTrapezoid15GetPointOnPlaneENS0_8Vector3DIdEES3_S3_S3_+0x4b0>
    127d:	4c 89 c0             	mov    %r8,%rax
    1280:	49 8b 96 18 07 00 00 	mov    0x718(%r14),%rdx
    1287:	eb 0a                	jmp    1293 <_ZNK7vecgeom3cxx17UnplacedTrapezoid15GetPointOnPlaneENS0_8Vector3DIdEES3_S3_S3_+0x503>
    1289:	0f 1f 80 00 00 00 00 	nopl   0x0(%rax)
    1290:	4c 89 ea             	mov    %r13,%rdx
    1293:	4c 8b 28             	mov    (%rax),%r13
    1296:	48 81 e2 00 00 00 80 	and    $0xffffffff80000000,%rdx
    129d:	4c 89 e9             	mov    %r13,%rcx
    12a0:	81 e1 ff ff ff 7f    	and    $0x7fffffff,%ecx
    12a6:	48 09 d1             	or     %rdx,%rcx
    12a9:	48 89 f2             	mov    %rsi,%rdx
    12ac:	f6 c1 01             	test   $0x1,%cl
    12af:	48 0f 45 d7          	cmovne %rdi,%rdx
    12b3:	48 33 90 e0 f8 ff ff 	xor    -0x720(%rax),%rdx
    12ba:	48 d1 e9             	shr    %rcx
    12bd:	48 83 c0 08          	add    $0x8,%rax
    12c1:	48 31 ca             	xor    %rcx,%rdx
    12c4:	48 89 50 f0          	mov    %rdx,-0x10(%rax)
    12c8:	4c 39 c8             	cmp    %r9,%rax
    12cb:	75 c3                	jne    1290 <_ZNK7vecgeom3cxx17UnplacedTrapezoid15GetPointOnPlaneENS0_8Vector3DIdEES3_S3_S3_+0x500>
    12cd:	49 8b 16             	mov    (%r14),%rdx
    12d0:	49 8b 86 78 13 00 00 	mov    0x1378(%r14),%rax
    12d7:	48 89 d1             	mov    %rdx,%rcx
    12da:	48 25 00 00 00 80    	and    $0xffffffff80000000,%rax
    12e0:	81 e1 ff ff ff 7f    	and    $0x7fffffff,%ecx
    12e6:	48 09 c1             	or     %rax,%rcx
    12e9:	48 89 c8             	mov    %rcx,%rax
    12ec:	48 d1 e8             	shr    %rax
    12ef:	49 33 86 60 0c 00 00 	xor    0xc60(%r14),%rax
    12f6:	83 e1 01             	and    $0x1,%ecx
    12f9:	48 89 f9             	mov    %rdi,%rcx
    12fc:	48 0f 44 ce          	cmove  %rsi,%rcx
    1300:	48 31 c8             	xor    %rcx,%rax
    1303:	b9 01 00 00 00       	mov    $0x1,%ecx
    1308:	49 89 86 78 13 00 00 	mov    %rax,0x1378(%r14)
    130f:	e9 b4 fe ff ff       	jmpq   11c8 <_ZNK7vecgeom3cxx17UnplacedTrapezoid15GetPointOnPlaneENS0_8Vector3DIdEES3_S3_S3_+0x438>
    1314:	d9 c9                	fxch   %st(1)
    1316:	48 89 c2             	mov    %rax,%rdx
    1319:	83 e0 01             	and    $0x1,%eax
    131c:	48 d1 ea             	shr    %rdx
    131f:	48 09 c2             	or     %rax,%rdx
    1322:	f2 48 0f 2a c2       	cvtsi2sd %rdx,%xmm0
    1327:	f2 0f 58 c0          	addsd  %xmm0,%xmm0
    132b:	e9 da fe ff ff       	jmpq   120a <_ZNK7vecgeom3cxx17UnplacedTrapezoid15GetPointOnPlaneENS0_8Vector3DIdEES3_S3_S3_+0x47a>
    1330:	dd d9                	fstp   %st(1)
    1332:	dd 1c 24             	fstpl  (%rsp)
    1335:	66 0f 28 e1          	movapd %xmm1,%xmm4
    1339:	45 84 d2             	test   %r10b,%r10b
    133c:	49 89 8e 80 13 00 00 	mov    %rcx,0x1380(%r14)
    1343:	48 89 c8             	mov    %rcx,%rax
    1346:	f2 0f 10 2c 24       	movsd  (%rsp),%xmm5
    134b:	f2 0f 5e e5          	divsd  %xmm5,%xmm4
    134f:	f2 0f 59 e2          	mulsd  %xmm2,%xmm4
    1353:	f2 0f 58 e3          	addsd  %xmm3,%xmm4
    1357:	0f 84 45 02 00 00    	je     15a2 <_ZNK7vecgeom3cxx17UnplacedTrapezoid15GetPointOnPlaneENS0_8Vector3DIdEES3_S3_S3_+0x812>
    135d:	d9 e8                	fld1   
    135f:	41 bb 02 00 00 00    	mov    $0x2,%r11d
    1365:	4d 8d 8e 20 07 00 00 	lea    0x720(%r14),%r9
    136c:	66 0f 57 c9          	xorpd  %xmm1,%xmm1
    1370:	41 b8 df b0 08 99    	mov    $0x9908b0df,%r8d
    1376:	31 ff                	xor    %edi,%edi
    1378:	4d 8d 96 80 13 00 00 	lea    0x1380(%r14),%r10
    137f:	d9 05 00 00 00 00    	flds   0x0(%rip)        # 1385 <_ZNK7vecgeom3cxx17UnplacedTrapezoid15GetPointOnPlaneENS0_8Vector3DIdEES3_S3_S3_+0x5f5>
    1385:	eb 6b                	jmp    13f2 <_ZNK7vecgeom3cxx17UnplacedTrapezoid15GetPointOnPlaneENS0_8Vector3DIdEES3_S3_S3_+0x662>
    1387:	49 8b 14 c6          	mov    (%r14,%rax,8),%rdx
    138b:	48 8d 48 01          	lea    0x1(%rax),%rcx
    138f:	48 89 d0             	mov    %rdx,%rax
    1392:	48 c1 e8 0b          	shr    $0xb,%rax
    1396:	89 c0                	mov    %eax,%eax
    1398:	48 31 d0             	xor    %rdx,%rax
    139b:	48 89 c2             	mov    %rax,%rdx
    139e:	48 c1 e2 07          	shl    $0x7,%rdx
    13a2:	81 e2 80 56 2c 9d    	and    $0x9d2c5680,%edx
    13a8:	48 31 c2             	xor    %rax,%rdx
    13ab:	48 89 d0             	mov    %rdx,%rax
    13ae:	48 c1 e0 0f          	shl    $0xf,%rax
    13b2:	25 00 00 c6 ef       	and    $0xefc60000,%eax
    13b7:	48 31 d0             	xor    %rdx,%rax
    13ba:	48 89 c2             	mov    %rax,%rdx
    13bd:	48 c1 ea 12          	shr    $0x12,%rdx
    13c1:	48 31 d0             	xor    %rdx,%rax
    13c4:	0f 88 12 01 00 00    	js     14dc <_ZNK7vecgeom3cxx17UnplacedTrapezoid15GetPointOnPlaneENS0_8Vector3DIdEES3_S3_S3_+0x74c>
    13ca:	d9 c9                	fxch   %st(1)
    13cc:	f2 48 0f 2a c0       	cvtsi2sd %rax,%xmm0
    13d1:	dd 14 24             	fstl   (%rsp)
    13d4:	49 83 eb 01          	sub    $0x1,%r11
    13d8:	f2 0f 10 2c 24       	movsd  (%rsp),%xmm5
    13dd:	d8 c9                	fmul   %st(1),%st
    13df:	f2 0f 59 c5          	mulsd  %xmm5,%xmm0
    13e3:	f2 0f 58 c8          	addsd  %xmm0,%xmm1
    13e7:	0f 84 0b 01 00 00    	je     14f8 <_ZNK7vecgeom3cxx17UnplacedTrapezoid15GetPointOnPlaneENS0_8Vector3DIdEES3_S3_S3_+0x768>
    13ed:	d9 c9                	fxch   %st(1)
    13ef:	48 89 c8             	mov    %rcx,%rax
    13f2:	48 3d 6f 02 00 00    	cmp    $0x26f,%rax
    13f8:	76 8d                	jbe    1387 <_ZNK7vecgeom3cxx17UnplacedTrapezoid15GetPointOnPlaneENS0_8Vector3DIdEES3_S3_S3_+0x5f7>
    13fa:	49 8d 46 08          	lea    0x8(%r14),%rax
    13fe:	49 8b 16             	mov    (%r14),%rdx
    1401:	eb 08                	jmp    140b <_ZNK7vecgeom3cxx17UnplacedTrapezoid15GetPointOnPlaneENS0_8Vector3DIdEES3_S3_S3_+0x67b>
    1403:	0f 1f 44 00 00       	nopl   0x0(%rax,%rax,1)
    1408:	48 89 f2             	mov    %rsi,%rdx
    140b:	48 8b 30             	mov    (%rax),%rsi
    140e:	48 81 e2 00 00 00 80 	and    $0xffffffff80000000,%rdx
    1415:	48 89 f1             	mov    %rsi,%rcx
    1418:	81 e1 ff ff ff 7f    	and    $0x7fffffff,%ecx
    141e:	48 09 d1             	or     %rdx,%rcx
    1421:	48 89 fa             	mov    %rdi,%rdx
    1424:	f6 c1 01             	test   $0x1,%cl
    1427:	49 0f 45 d0          	cmovne %r8,%rdx
    142b:	48 33 90 60 0c 00 00 	xor    0xc60(%rax),%rdx
    1432:	48 d1 e9             	shr    %rcx
    1435:	48 83 c0 08          	add    $0x8,%rax
    1439:	48 31 ca             	xor    %rcx,%rdx
    143c:	48 89 50 f0          	mov    %rdx,-0x10(%rax)
    1440:	4c 39 c8             	cmp    %r9,%rax
    1443:	75 c3                	jne    1408 <_ZNK7vecgeom3cxx17UnplacedTrapezoid15GetPointOnPlaneENS0_8Vector3DIdEES3_S3_S3_+0x678>
    1445:	4c 89 c8             	mov    %r9,%rax
    1448:	49 8b 96 18 07 00 00 	mov    0x718(%r14),%rdx
    144f:	eb 0a                	jmp    145b <_ZNK7vecgeom3cxx17UnplacedTrapezoid15GetPointOnPlaneENS0_8Vector3DIdEES3_S3_S3_+0x6cb>
    1451:	0f 1f 80 00 00 00 00 	nopl   0x0(%rax)
    1458:	48 89 f2             	mov    %rsi,%rdx
    145b:	48 8b 30             	mov    (%rax),%rsi
    145e:	48 81 e2 00 00 00 80 	and    $0xffffffff80000000,%rdx
    1465:	48 89 f1             	mov    %rsi,%rcx
    1468:	81 e1 ff ff ff 7f    	and    $0x7fffffff,%ecx
    146e:	48 09 d1             	or     %rdx,%rcx
    1471:	48 89 fa             	mov    %rdi,%rdx
    1474:	f6 c1 01             	test   $0x1,%cl
    1477:	49 0f 45 d0          	cmovne %r8,%rdx
    147b:	48 33 90 e0 f8 ff ff 	xor    -0x720(%rax),%rdx
    1482:	48 d1 e9             	shr    %rcx
    1485:	48 83 c0 08          	add    $0x8,%rax
    1489:	48 31 ca             	xor    %rcx,%rdx
    148c:	48 89 50 f0          	mov    %rdx,-0x10(%rax)
    1490:	4c 39 d0             	cmp    %r10,%rax
    1493:	75 c3                	jne    1458 <_ZNK7vecgeom3cxx17UnplacedTrapezoid15GetPointOnPlaneENS0_8Vector3DIdEES3_S3_S3_+0x6c8>
    1495:	49 8b 16             	mov    (%r14),%rdx
    1498:	49 8b 86 78 13 00 00 	mov    0x1378(%r14),%rax
    149f:	48 89 d1             	mov    %rdx,%rcx
    14a2:	48 25 00 00 00 80    	and    $0xffffffff80000000,%rax
    14a8:	81 e1 ff ff ff 7f    	and    $0x7fffffff,%ecx
    14ae:	48 09 c1             	or     %rax,%rcx
    14b1:	48 89 c8             	mov    %rcx,%rax
    14b4:	48 d1 e8             	shr    %rax
    14b7:	49 33 86 60 0c 00 00 	xor    0xc60(%r14),%rax
    14be:	83 e1 01             	and    $0x1,%ecx
    14c1:	4c 89 c1             	mov    %r8,%rcx
    14c4:	48 0f 44 cf          	cmove  %rdi,%rcx
    14c8:	48 31 c8             	xor    %rcx,%rax
    14cb:	b9 01 00 00 00       	mov    $0x1,%ecx
    14d0:	49 89 86 78 13 00 00 	mov    %rax,0x1378(%r14)
    14d7:	e9 b3 fe ff ff       	jmpq   138f <_ZNK7vecgeom3cxx17UnplacedTrapezoid15GetPointOnPlaneENS0_8Vector3DIdEES3_S3_S3_+0x5ff>
    14dc:	d9 c9                	fxch   %st(1)
    14de:	48 89 c2             	mov    %rax,%rdx
    14e1:	83 e0 01             	and    $0x1,%eax
    14e4:	48 d1 ea             	shr    %rdx
    14e7:	48 09 c2             	or     %rax,%rdx
    14ea:	f2 48 0f 2a c2       	cvtsi2sd %rdx,%xmm0
    14ef:	f2 0f 58 c0          	addsd  %xmm0,%xmm0
    14f3:	e9 d9 fe ff ff       	jmpq   13d1 <_ZNK7vecgeom3cxx17UnplacedTrapezoid15GetPointOnPlaneENS0_8Vector3DIdEES3_S3_S3_+0x641>
    14f8:	dd d9                	fstp   %st(1)
    14fa:	dd 1c 24             	fstpl  (%rsp)
    14fd:	49 89 8e 80 13 00 00 	mov    %rcx,0x1380(%r14)
    1504:	48 8b 05 00 00 00 00 	mov    0x0(%rip),%rax        # 150b <_ZNK7vecgeom3cxx17UnplacedTrapezoid15GetPointOnPlaneENS0_8Vector3DIdEES3_S3_S3_+0x77b>
    150b:	f2 0f 10 3c 24       	movsd  (%rsp),%xmm7
    1510:	48 83 c0 10          	add    $0x10,%rax
    1514:	f2 0f 5e cf          	divsd  %xmm7,%xmm1
    1518:	66 0f 28 c1          	movapd %xmm1,%xmm0
    151c:	f2 0f 10 4c 24 28    	movsd  0x28(%rsp),%xmm1
    1522:	f2 0f 59 c2          	mulsd  %xmm2,%xmm0
    1526:	f2 0f 10 54 24 18    	movsd  0x18(%rsp),%xmm2
    152c:	f2 0f 59 d4          	mulsd  %xmm4,%xmm2
    1530:	f2 0f 58 c3          	addsd  %xmm3,%xmm0
    1534:	f2 0f 10 5c 24 10    	movsd  0x10(%rsp),%xmm3
    153a:	f2 0f 59 dc          	mulsd  %xmm4,%xmm3
    153e:	f2 41 0f 58 54 24 18 	addsd  0x18(%r12),%xmm2
    1545:	f2 0f 59 c4          	mulsd  %xmm4,%xmm0
    1549:	f2 0f 59 64 24 20    	mulsd  0x20(%rsp),%xmm4
    154f:	f2 41 0f 58 5c 24 10 	addsd  0x10(%r12),%xmm3
    1556:	f2 0f 59 c8          	mulsd  %xmm0,%xmm1
    155a:	f2 41 0f 58 64 24 20 	addsd  0x20(%r12),%xmm4
    1561:	48 89 45 00          	mov    %rax,0x0(%rbp)
    1565:	f2 0f 58 cb          	addsd  %xmm3,%xmm1
    1569:	f2 0f 11 4d 10       	movsd  %xmm1,0x10(%rbp)
    156e:	f2 0f 10 4c 24 30    	movsd  0x30(%rsp),%xmm1
    1574:	f2 0f 59 c8          	mulsd  %xmm0,%xmm1
    1578:	f2 0f 59 44 24 08    	mulsd  0x8(%rsp),%xmm0
    157e:	f2 0f 58 ca          	addsd  %xmm2,%xmm1
    1582:	f2 0f 58 c4          	addsd  %xmm4,%xmm0
    1586:	f2 0f 11 4d 18       	movsd  %xmm1,0x18(%rbp)
    158b:	f2 0f 11 45 20       	movsd  %xmm0,0x20(%rbp)
    1590:	48 83 c4 78          	add    $0x78,%rsp
    1594:	48 89 e8             	mov    %rbp,%rax
    1597:	5b                   	pop    %rbx
    1598:	5d                   	pop    %rbp
    1599:	41 5c                	pop    %r12
    159b:	41 5d                	pop    %r13
    159d:	41 5e                	pop    %r14
    159f:	41 5f                	pop    %r15
    15a1:	c3                   	retq   
    15a2:	48 89 df             	mov    %rbx,%rdi
    15a5:	f2 0f 11 24 24       	movsd  %xmm4,(%rsp)
    15aa:	e8 00 00 00 00       	callq  15af <_ZNK7vecgeom3cxx17UnplacedTrapezoid15GetPointOnPlaneENS0_8Vector3DIdEES3_S3_S3_+0x81f>
    15af:	85 c0                	test   %eax,%eax
    15b1:	f2 0f 10 24 24       	movsd  (%rsp),%xmm4
    15b6:	0f 84 6e 06 00 00    	je     1c2a <_ZNK7vecgeom3cxx17UnplacedTrapezoid15GetPointOnPlaneENS0_8Vector3DIdEES3_S3_S3_+0xe9a>
    15bc:	49 c7 06 00 00 00 00 	movq   $0x0,(%r14)
    15c3:	31 d2                	xor    %edx,%edx
    15c5:	b9 01 00 00 00       	mov    $0x1,%ecx
    15ca:	48 bf 21 0d d2 20 0d 	movabs $0xd20d20d20d20d21,%rdi
    15d1:	d2 20 0d 
    15d4:	0f 1f 40 00          	nopl   0x0(%rax)
    15d8:	48 89 d0             	mov    %rdx,%rax
    15db:	48 c1 e8 1e          	shr    $0x1e,%rax
    15df:	48 31 d0             	xor    %rdx,%rax
    15e2:	48 89 ca             	mov    %rcx,%rdx
    15e5:	48 c1 ea 04          	shr    $0x4,%rdx
    15e9:	48 69 f0 65 89 07 6c 	imul   $0x6c078965,%rax,%rsi
    15f0:	48 89 d0             	mov    %rdx,%rax
    15f3:	48 f7 e7             	mul    %rdi
    15f6:	48 89 c8             	mov    %rcx,%rax
    15f9:	48 d1 ea             	shr    %rdx
    15fc:	48 69 d2 70 02 00 00 	imul   $0x270,%rdx,%rdx
    1603:	48 29 d0             	sub    %rdx,%rax
    1606:	48 89 c2             	mov    %rax,%rdx
    1609:	01 f2                	add    %esi,%edx
    160b:	49 89 14 ce          	mov    %rdx,(%r14,%rcx,8)
    160f:	48 83 c1 01          	add    $0x1,%rcx
    1613:	48 81 f9 70 02 00 00 	cmp    $0x270,%rcx
    161a:	75 bc                	jne    15d8 <_ZNK7vecgeom3cxx17UnplacedTrapezoid15GetPointOnPlaneENS0_8Vector3DIdEES3_S3_S3_+0x848>
    161c:	f2 0f 10 35 00 00 00 	movsd  0x0(%rip),%xmm6        # 1624 <_ZNK7vecgeom3cxx17UnplacedTrapezoid15GetPointOnPlaneENS0_8Vector3DIdEES3_S3_S3_+0x894>
    1623:	00 
    1624:	49 c7 86 80 13 00 00 	movq   $0x270,0x1380(%r14)
    162b:	70 02 00 00 
    162f:	49 c7 86 88 13 00 00 	movq   $0x0,0x1388(%r14)
    1636:	00 00 00 00 
    163a:	48 89 df             	mov    %rbx,%rdi
    163d:	f2 0f 11 24 24       	movsd  %xmm4,(%rsp)
    1642:	f2 41 0f 11 b6 90 13 	movsd  %xmm6,0x1390(%r14)
    1649:	00 00 
    164b:	e8 00 00 00 00       	callq  1650 <_ZNK7vecgeom3cxx17UnplacedTrapezoid15GetPointOnPlaneENS0_8Vector3DIdEES3_S3_S3_+0x8c0>
    1650:	f2 41 0f 10 9e 88 13 	movsd  0x1388(%r14),%xmm3
    1657:	00 00 
    1659:	49 8b 86 80 13 00 00 	mov    0x1380(%r14),%rax
    1660:	f2 41 0f 10 96 90 13 	movsd  0x1390(%r14),%xmm2
    1667:	00 00 
    1669:	f2 0f 10 24 24       	movsd  (%rsp),%xmm4
    166e:	f2 0f 5c d3          	subsd  %xmm3,%xmm2
    1672:	e9 e6 fc ff ff       	jmpq   135d <_ZNK7vecgeom3cxx17UnplacedTrapezoid15GetPointOnPlaneENS0_8Vector3DIdEES3_S3_S3_+0x5cd>
    1677:	48 89 df             	mov    %rbx,%rdi
    167a:	e8 00 00 00 00       	callq  167f <_ZNK7vecgeom3cxx17UnplacedTrapezoid15GetPointOnPlaneENS0_8Vector3DIdEES3_S3_S3_+0x8ef>
    167f:	85 c0                	test   %eax,%eax
    1681:	0f 84 8c 00 00 00    	je     1713 <_ZNK7vecgeom3cxx17UnplacedTrapezoid15GetPointOnPlaneENS0_8Vector3DIdEES3_S3_S3_+0x983>
    1687:	49 c7 06 00 00 00 00 	movq   $0x0,(%r14)
    168e:	31 d2                	xor    %edx,%edx
    1690:	b9 01 00 00 00       	mov    $0x1,%ecx
    1695:	48 bf 21 0d d2 20 0d 	movabs $0xd20d20d20d20d21,%rdi
    169c:	d2 20 0d 
    169f:	90                   	nop
    16a0:	48 89 d0             	mov    %rdx,%rax
    16a3:	48 c1 e8 1e          	shr    $0x1e,%rax
    16a7:	48 31 d0             	xor    %rdx,%rax
    16aa:	48 89 ca             	mov    %rcx,%rdx
    16ad:	48 c1 ea 04          	shr    $0x4,%rdx
    16b1:	48 69 f0 65 89 07 6c 	imul   $0x6c078965,%rax,%rsi
    16b8:	48 89 d0             	mov    %rdx,%rax
    16bb:	48 f7 e7             	mul    %rdi
    16be:	48 89 c8             	mov    %rcx,%rax
    16c1:	48 d1 ea             	shr    %rdx
    16c4:	48 69 d2 70 02 00 00 	imul   $0x270,%rdx,%rdx
    16cb:	48 29 d0             	sub    %rdx,%rax
    16ce:	48 89 c2             	mov    %rax,%rdx
    16d1:	01 f2                	add    %esi,%edx
    16d3:	49 89 14 ce          	mov    %rdx,(%r14,%rcx,8)
    16d7:	48 83 c1 01          	add    $0x1,%rcx
    16db:	48 81 f9 70 02 00 00 	cmp    $0x270,%rcx
    16e2:	75 bc                	jne    16a0 <_ZNK7vecgeom3cxx17UnplacedTrapezoid15GetPointOnPlaneENS0_8Vector3DIdEES3_S3_S3_+0x910>
    16e4:	f2 0f 10 35 00 00 00 	movsd  0x0(%rip),%xmm6        # 16ec <_ZNK7vecgeom3cxx17UnplacedTrapezoid15GetPointOnPlaneENS0_8Vector3DIdEES3_S3_S3_+0x95c>
    16eb:	00 
    16ec:	49 c7 86 80 13 00 00 	movq   $0x270,0x1380(%r14)
    16f3:	70 02 00 00 
    16f7:	49 c7 86 88 13 00 00 	movq   $0x0,0x1388(%r14)
    16fe:	00 00 00 00 
    1702:	48 89 df             	mov    %rbx,%rdi
    1705:	f2 41 0f 11 b6 90 13 	movsd  %xmm6,0x1390(%r14)
    170c:	00 00 
    170e:	e8 00 00 00 00       	callq  1713 <_ZNK7vecgeom3cxx17UnplacedTrapezoid15GetPointOnPlaneENS0_8Vector3DIdEES3_S3_S3_+0x983>
    1713:	f2 41 0f 10 9e 88 13 	movsd  0x1388(%r14),%xmm3
    171a:	00 00 
    171c:	44 0f b6 13          	movzbl (%rbx),%r10d
    1720:	f2 41 0f 10 96 90 13 	movsd  0x1390(%r14),%xmm2
    1727:	00 00 
    1729:	49 8b 86 80 13 00 00 	mov    0x1380(%r14),%rax
    1730:	f2 0f 5c d3          	subsd  %xmm3,%xmm2
    1734:	e9 5e fa ff ff       	jmpq   1197 <_ZNK7vecgeom3cxx17UnplacedTrapezoid15GetPointOnPlaneENS0_8Vector3DIdEES3_S3_S3_+0x407>
    1739:	66 0f 57 ed          	xorpd  %xmm5,%xmm5
    173d:	66 0f 2f cd          	comisd %xmm5,%xmm1
    1741:	0f 82 40 fa ff ff    	jb     1187 <_ZNK7vecgeom3cxx17UnplacedTrapezoid15GetPointOnPlaneENS0_8Vector3DIdEES3_S3_S3_+0x3f7>
    1747:	45 84 d2             	test   %r10b,%r10b
    174a:	4c 89 da             	mov    %r11,%rdx
    174d:	66 0f 28 d8          	movapd %xmm0,%xmm3
    1751:	0f 84 d1 05 00 00    	je     1d28 <_ZNK7vecgeom3cxx17UnplacedTrapezoid15GetPointOnPlaneENS0_8Vector3DIdEES3_S3_S3_+0xf98>
    1757:	d9 e8                	fld1   
    1759:	41 bb 02 00 00 00    	mov    $0x2,%r11d
    175f:	4d 8d 86 20 07 00 00 	lea    0x720(%r14),%r8
    1766:	66 0f 57 c9          	xorpd  %xmm1,%xmm1
    176a:	bf df b0 08 99       	mov    $0x9908b0df,%edi
    176f:	31 f6                	xor    %esi,%esi
    1771:	4d 8d 8e 80 13 00 00 	lea    0x1380(%r14),%r9
    1778:	d9 05 00 00 00 00    	flds   0x0(%rip)        # 177e <_ZNK7vecgeom3cxx17UnplacedTrapezoid15GetPointOnPlaneENS0_8Vector3DIdEES3_S3_S3_+0x9ee>
    177e:	eb 6b                	jmp    17eb <_ZNK7vecgeom3cxx17UnplacedTrapezoid15GetPointOnPlaneENS0_8Vector3DIdEES3_S3_S3_+0xa5b>
    1780:	48 8d 4a 01          	lea    0x1(%rdx),%rcx
    1784:	49 8b 14 d6          	mov    (%r14,%rdx,8),%rdx
    1788:	48 89 d0             	mov    %rdx,%rax
    178b:	48 c1 e8 0b          	shr    $0xb,%rax
    178f:	89 c0                	mov    %eax,%eax
    1791:	48 31 d0             	xor    %rdx,%rax
    1794:	48 89 c2             	mov    %rax,%rdx
    1797:	48 c1 e2 07          	shl    $0x7,%rdx
    179b:	81 e2 80 56 2c 9d    	and    $0x9d2c5680,%edx
    17a1:	48 31 c2             	xor    %rax,%rdx
    17a4:	48 89 d0             	mov    %rdx,%rax
    17a7:	48 c1 e0 0f          	shl    $0xf,%rax
    17ab:	25 00 00 c6 ef       	and    $0xefc60000,%eax
    17b0:	48 31 d0             	xor    %rdx,%rax
    17b3:	48 89 c2             	mov    %rax,%rdx
    17b6:	48 c1 ea 12          	shr    $0x12,%rdx
    17ba:	48 31 d0             	xor    %rdx,%rax
    17bd:	0f 88 11 01 00 00    	js     18d4 <_ZNK7vecgeom3cxx17UnplacedTrapezoid15GetPointOnPlaneENS0_8Vector3DIdEES3_S3_S3_+0xb44>
    17c3:	d9 c9                	fxch   %st(1)
    17c5:	f2 48 0f 2a c0       	cvtsi2sd %rax,%xmm0
    17ca:	dd 14 24             	fstl   (%rsp)
    17cd:	49 83 eb 01          	sub    $0x1,%r11
    17d1:	f2 0f 10 3c 24       	movsd  (%rsp),%xmm7
    17d6:	d8 c9                	fmul   %st(1),%st
    17d8:	f2 0f 59 c7          	mulsd  %xmm7,%xmm0
    17dc:	f2 0f 58 c8          	addsd  %xmm0,%xmm1
    17e0:	0f 84 e4 01 00 00    	je     19ca <_ZNK7vecgeom3cxx17UnplacedTrapezoid15GetPointOnPlaneENS0_8Vector3DIdEES3_S3_S3_+0xc3a>
    17e6:	d9 c9                	fxch   %st(1)
    17e8:	48 89 ca             	mov    %rcx,%rdx
    17eb:	48 81 fa 6f 02 00 00 	cmp    $0x26f,%rdx
    17f2:	76 8c                	jbe    1780 <_ZNK7vecgeom3cxx17UnplacedTrapezoid15GetPointOnPlaneENS0_8Vector3DIdEES3_S3_S3_+0x9f0>
    17f4:	49 8d 46 08          	lea    0x8(%r14),%rax
    17f8:	49 8b 16             	mov    (%r14),%rdx
    17fb:	eb 06                	jmp    1803 <_ZNK7vecgeom3cxx17UnplacedTrapezoid15GetPointOnPlaneENS0_8Vector3DIdEES3_S3_S3_+0xa73>
    17fd:	0f 1f 00             	nopl   (%rax)
    1800:	4c 89 e2             	mov    %r12,%rdx
    1803:	4c 8b 20             	mov    (%rax),%r12
    1806:	48 81 e2 00 00 00 80 	and    $0xffffffff80000000,%rdx
    180d:	4c 89 e1             	mov    %r12,%rcx
    1810:	81 e1 ff ff ff 7f    	and    $0x7fffffff,%ecx
    1816:	48 09 d1             	or     %rdx,%rcx
    1819:	48 89 f2             	mov    %rsi,%rdx
    181c:	f6 c1 01             	test   $0x1,%cl
    181f:	48 0f 45 d7          	cmovne %rdi,%rdx
    1823:	48 33 90 60 0c 00 00 	xor    0xc60(%rax),%rdx
    182a:	48 d1 e9             	shr    %rcx
    182d:	48 83 c0 08          	add    $0x8,%rax
    1831:	48 31 ca             	xor    %rcx,%rdx
    1834:	48 89 50 f0          	mov    %rdx,-0x10(%rax)
    1838:	4c 39 c0             	cmp    %r8,%rax
    183b:	75 c3                	jne    1800 <_ZNK7vecgeom3cxx17UnplacedTrapezoid15GetPointOnPlaneENS0_8Vector3DIdEES3_S3_S3_+0xa70>
    183d:	4c 89 c0             	mov    %r8,%rax
    1840:	49 8b 96 18 07 00 00 	mov    0x718(%r14),%rdx
    1847:	eb 0a                	jmp    1853 <_ZNK7vecgeom3cxx17UnplacedTrapezoid15GetPointOnPlaneENS0_8Vector3DIdEES3_S3_S3_+0xac3>
    1849:	0f 1f 80 00 00 00 00 	nopl   0x0(%rax)
    1850:	4c 89 e2             	mov    %r12,%rdx
    1853:	4c 8b 20             	mov    (%rax),%r12
    1856:	48 81 e2 00 00 00 80 	and    $0xffffffff80000000,%rdx
    185d:	4c 89 e1             	mov    %r12,%rcx
    1860:	81 e1 ff ff ff 7f    	and    $0x7fffffff,%ecx
    1866:	48 09 d1             	or     %rdx,%rcx
    1869:	48 89 f2             	mov    %rsi,%rdx
    186c:	f6 c1 01             	test   $0x1,%cl
    186f:	48 0f 45 d7          	cmovne %rdi,%rdx
    1873:	48 33 90 e0 f8 ff ff 	xor    -0x720(%rax),%rdx
    187a:	48 d1 e9             	shr    %rcx
    187d:	48 83 c0 08          	add    $0x8,%rax
    1881:	48 31 ca             	xor    %rcx,%rdx
    1884:	48 89 50 f0          	mov    %rdx,-0x10(%rax)
    1888:	4c 39 c8             	cmp    %r9,%rax
    188b:	75 c3                	jne    1850 <_ZNK7vecgeom3cxx17UnplacedTrapezoid15GetPointOnPlaneENS0_8Vector3DIdEES3_S3_S3_+0xac0>
    188d:	49 8b 16             	mov    (%r14),%rdx
    1890:	49 8b 86 78 13 00 00 	mov    0x1378(%r14),%rax
    1897:	48 89 d1             	mov    %rdx,%rcx
    189a:	48 25 00 00 00 80    	and    $0xffffffff80000000,%rax
    18a0:	81 e1 ff ff ff 7f    	and    $0x7fffffff,%ecx
    18a6:	48 09 c1             	or     %rax,%rcx
    18a9:	48 89 c8             	mov    %rcx,%rax
    18ac:	48 d1 e8             	shr    %rax
    18af:	49 33 86 60 0c 00 00 	xor    0xc60(%r14),%rax
    18b6:	83 e1 01             	and    $0x1,%ecx
    18b9:	48 89 f9             	mov    %rdi,%rcx
    18bc:	48 0f 44 ce          	cmove  %rsi,%rcx
    18c0:	48 31 c8             	xor    %rcx,%rax
    18c3:	b9 01 00 00 00       	mov    $0x1,%ecx
    18c8:	49 89 86 78 13 00 00 	mov    %rax,0x1378(%r14)
    18cf:	e9 b4 fe ff ff       	jmpq   1788 <_ZNK7vecgeom3cxx17UnplacedTrapezoid15GetPointOnPlaneENS0_8Vector3DIdEES3_S3_S3_+0x9f8>
    18d4:	d9 c9                	fxch   %st(1)
    18d6:	48 89 c2             	mov    %rax,%rdx
    18d9:	83 e0 01             	and    $0x1,%eax
    18dc:	48 d1 ea             	shr    %rdx
    18df:	48 09 c2             	or     %rax,%rdx
    18e2:	f2 48 0f 2a c2       	cvtsi2sd %rdx,%xmm0
    18e7:	f2 0f 58 c0          	addsd  %xmm0,%xmm0
    18eb:	e9 da fe ff ff       	jmpq   17ca <_ZNK7vecgeom3cxx17UnplacedTrapezoid15GetPointOnPlaneENS0_8Vector3DIdEES3_S3_S3_+0xa3a>
    18f0:	48 89 df             	mov    %rbx,%rdi
    18f3:	f2 0f 11 5c 24 68    	movsd  %xmm3,0x68(%rsp)
    18f9:	f2 0f 11 24 24       	movsd  %xmm4,(%rsp)
    18fe:	e8 00 00 00 00       	callq  1903 <_ZNK7vecgeom3cxx17UnplacedTrapezoid15GetPointOnPlaneENS0_8Vector3DIdEES3_S3_S3_+0xb73>
    1903:	85 c0                	test   %eax,%eax
    1905:	f2 0f 10 24 24       	movsd  (%rsp),%xmm4
    190a:	f2 0f 10 5c 24 68    	movsd  0x68(%rsp),%xmm3
    1910:	0f 84 09 04 00 00    	je     1d1f <_ZNK7vecgeom3cxx17UnplacedTrapezoid15GetPointOnPlaneENS0_8Vector3DIdEES3_S3_S3_+0xf8f>
    1916:	4c 8b 35 00 00 00 00 	mov    0x0(%rip),%r14        # 191d <_ZNK7vecgeom3cxx17UnplacedTrapezoid15GetPointOnPlaneENS0_8Vector3DIdEES3_S3_S3_+0xb8d>
    191d:	31 d2                	xor    %edx,%edx
    191f:	b9 01 00 00 00       	mov    $0x1,%ecx
    1924:	48 bf 21 0d d2 20 0d 	movabs $0xd20d20d20d20d21,%rdi
    192b:	d2 20 0d 
    192e:	49 c7 06 00 00 00 00 	movq   $0x0,(%r14)
    1935:	0f 1f 00             	nopl   (%rax)
    1938:	48 89 d0             	mov    %rdx,%rax
    193b:	48 c1 e8 1e          	shr    $0x1e,%rax
    193f:	48 31 d0             	xor    %rdx,%rax
    1942:	48 89 ca             	mov    %rcx,%rdx
    1945:	48 c1 ea 04          	shr    $0x4,%rdx
    1949:	48 69 f0 65 89 07 6c 	imul   $0x6c078965,%rax,%rsi
    1950:	48 89 d0             	mov    %rdx,%rax
    1953:	48 f7 e7             	mul    %rdi
    1956:	48 89 c8             	mov    %rcx,%rax
    1959:	48 d1 ea             	shr    %rdx
    195c:	48 69 d2 70 02 00 00 	imul   $0x270,%rdx,%rdx
    1963:	48 29 d0             	sub    %rdx,%rax
    1966:	48 89 c2             	mov    %rax,%rdx
    1969:	01 f2                	add    %esi,%edx
    196b:	49 89 14 ce          	mov    %rdx,(%r14,%rcx,8)
    196f:	48 83 c1 01          	add    $0x1,%rcx
    1973:	48 81 f9 70 02 00 00 	cmp    $0x270,%rcx
    197a:	75 bc                	jne    1938 <_ZNK7vecgeom3cxx17UnplacedTrapezoid15GetPointOnPlaneENS0_8Vector3DIdEES3_S3_S3_+0xba8>
    197c:	f2 0f 10 2d 00 00 00 	movsd  0x0(%rip),%xmm5        # 1984 <_ZNK7vecgeom3cxx17UnplacedTrapezoid15GetPointOnPlaneENS0_8Vector3DIdEES3_S3_S3_+0xbf4>
    1983:	00 
    1984:	49 c7 86 80 13 00 00 	movq   $0x270,0x1380(%r14)
    198b:	70 02 00 00 
    198f:	49 c7 86 88 13 00 00 	movq   $0x0,0x1388(%r14)
    1996:	00 00 00 00 
    199a:	48 89 df             	mov    %rbx,%rdi
    199d:	f2 0f 11 64 24 68    	movsd  %xmm4,0x68(%rsp)
    19a3:	f2 41 0f 11 ae 90 13 	movsd  %xmm5,0x1390(%r14)
    19aa:	00 00 
    19ac:	f2 0f 11 1c 24       	movsd  %xmm3,(%rsp)
    19b1:	e8 00 00 00 00       	callq  19b6 <_ZNK7vecgeom3cxx17UnplacedTrapezoid15GetPointOnPlaneENS0_8Vector3DIdEES3_S3_S3_+0xc26>
    19b6:	44 0f b6 13          	movzbl (%rbx),%r10d
    19ba:	f2 0f 10 64 24 68    	movsd  0x68(%rsp),%xmm4
    19c0:	f2 0f 10 1c 24       	movsd  (%rsp),%xmm3
    19c5:	e9 c7 f5 ff ff       	jmpq   f91 <_ZNK7vecgeom3cxx17UnplacedTrapezoid15GetPointOnPlaneENS0_8Vector3DIdEES3_S3_S3_+0x201>
    19ca:	dd d9                	fstp   %st(1)
    19cc:	dd 1c 24             	fstpl  (%rsp)
    19cf:	66 0f 28 e1          	movapd %xmm1,%xmm4
    19d3:	45 84 d2             	test   %r10b,%r10b
    19d6:	49 89 8e 80 13 00 00 	mov    %rcx,0x1380(%r14)
    19dd:	48 89 c8             	mov    %rcx,%rax
    19e0:	f2 0f 10 2c 24       	movsd  (%rsp),%xmm5
    19e5:	f2 0f 5e e5          	divsd  %xmm5,%xmm4
    19e9:	f2 0f 59 e2          	mulsd  %xmm2,%xmm4
    19ed:	f2 0f 58 e3          	addsd  %xmm3,%xmm4
    19f1:	0f 84 55 02 00 00    	je     1c4c <_ZNK7vecgeom3cxx17UnplacedTrapezoid15GetPointOnPlaneENS0_8Vector3DIdEES3_S3_S3_+0xebc>
    19f7:	d9 e8                	fld1   
    19f9:	41 bb 02 00 00 00    	mov    $0x2,%r11d
    19ff:	4d 8d 8e 20 07 00 00 	lea    0x720(%r14),%r9
    1a06:	66 0f 57 c9          	xorpd  %xmm1,%xmm1
    1a0a:	41 b8 df b0 08 99    	mov    $0x9908b0df,%r8d
    1a10:	31 ff                	xor    %edi,%edi
    1a12:	4d 8d 96 80 13 00 00 	lea    0x1380(%r14),%r10
    1a19:	d9 05 00 00 00 00    	flds   0x0(%rip)        # 1a1f <_ZNK7vecgeom3cxx17UnplacedTrapezoid15GetPointOnPlaneENS0_8Vector3DIdEES3_S3_S3_+0xc8f>
    1a1f:	eb 6b                	jmp    1a8c <_ZNK7vecgeom3cxx17UnplacedTrapezoid15GetPointOnPlaneENS0_8Vector3DIdEES3_S3_S3_+0xcfc>
    1a21:	49 8b 14 c6          	mov    (%r14,%rax,8),%rdx
    1a25:	48 8d 48 01          	lea    0x1(%rax),%rcx
    1a29:	48 89 d0             	mov    %rdx,%rax
    1a2c:	48 c1 e8 0b          	shr    $0xb,%rax
    1a30:	89 c0                	mov    %eax,%eax
    1a32:	48 31 d0             	xor    %rdx,%rax
    1a35:	48 89 c2             	mov    %rax,%rdx
    1a38:	48 c1 e2 07          	shl    $0x7,%rdx
    1a3c:	81 e2 80 56 2c 9d    	and    $0x9d2c5680,%edx
    1a42:	48 31 c2             	xor    %rax,%rdx
    1a45:	48 89 d0             	mov    %rdx,%rax
    1a48:	48 c1 e0 0f          	shl    $0xf,%rax
    1a4c:	25 00 00 c6 ef       	and    $0xefc60000,%eax
    1a51:	48 31 d0             	xor    %rdx,%rax
    1a54:	48 89 c2             	mov    %rax,%rdx
    1a57:	48 c1 ea 12          	shr    $0x12,%rdx
    1a5b:	48 31 d0             	xor    %rdx,%rax
    1a5e:	0f 88 10 01 00 00    	js     1b74 <_ZNK7vecgeom3cxx17UnplacedTrapezoid15GetPointOnPlaneENS0_8Vector3DIdEES3_S3_S3_+0xde4>
    1a64:	d9 c9                	fxch   %st(1)
    1a66:	f2 48 0f 2a c0       	cvtsi2sd %rax,%xmm0
    1a6b:	dd 14 24             	fstl   (%rsp)
    1a6e:	49 83 eb 01          	sub    $0x1,%r11
    1a72:	f2 0f 10 2c 24       	movsd  (%rsp),%xmm5
    1a77:	d8 c9                	fmul   %st(1),%st
    1a79:	f2 0f 59 c5          	mulsd  %xmm5,%xmm0
    1a7d:	f2 0f 58 c8          	addsd  %xmm0,%xmm1
    1a81:	0f 84 09 01 00 00    	je     1b90 <_ZNK7vecgeom3cxx17UnplacedTrapezoid15GetPointOnPlaneENS0_8Vector3DIdEES3_S3_S3_+0xe00>
    1a87:	d9 c9                	fxch   %st(1)
    1a89:	48 89 c8             	mov    %rcx,%rax
    1a8c:	48 3d 6f 02 00 00    	cmp    $0x26f,%rax
    1a92:	76 8d                	jbe    1a21 <_ZNK7vecgeom3cxx17UnplacedTrapezoid15GetPointOnPlaneENS0_8Vector3DIdEES3_S3_S3_+0xc91>
    1a94:	49 8d 46 08          	lea    0x8(%r14),%rax
    1a98:	49 8b 16             	mov    (%r14),%rdx
    1a9b:	eb 06                	jmp    1aa3 <_ZNK7vecgeom3cxx17UnplacedTrapezoid15GetPointOnPlaneENS0_8Vector3DIdEES3_S3_S3_+0xd13>
    1a9d:	0f 1f 00             	nopl   (%rax)
    1aa0:	48 89 f2             	mov    %rsi,%rdx
    1aa3:	48 8b 30             	mov    (%rax),%rsi
    1aa6:	48 81 e2 00 00 00 80 	and    $0xffffffff80000000,%rdx
    1aad:	48 89 f1             	mov    %rsi,%rcx
    1ab0:	81 e1 ff ff ff 7f    	and    $0x7fffffff,%ecx
    1ab6:	48 09 d1             	or     %rdx,%rcx
    1ab9:	48 89 fa             	mov    %rdi,%rdx
    1abc:	f6 c1 01             	test   $0x1,%cl
    1abf:	49 0f 45 d0          	cmovne %r8,%rdx
    1ac3:	48 33 90 60 0c 00 00 	xor    0xc60(%rax),%rdx
    1aca:	48 d1 e9             	shr    %rcx
    1acd:	48 83 c0 08          	add    $0x8,%rax
    1ad1:	48 31 ca             	xor    %rcx,%rdx
    1ad4:	48 89 50 f0          	mov    %rdx,-0x10(%rax)
    1ad8:	4c 39 c8             	cmp    %r9,%rax
    1adb:	75 c3                	jne    1aa0 <_ZNK7vecgeom3cxx17UnplacedTrapezoid15GetPointOnPlaneENS0_8Vector3DIdEES3_S3_S3_+0xd10>
    1add:	4c 89 c8             	mov    %r9,%rax
    1ae0:	49 8b 96 18 07 00 00 	mov    0x718(%r14),%rdx
    1ae7:	eb 0a                	jmp    1af3 <_ZNK7vecgeom3cxx17UnplacedTrapezoid15GetPointOnPlaneENS0_8Vector3DIdEES3_S3_S3_+0xd63>
    1ae9:	0f 1f 80 00 00 00 00 	nopl   0x0(%rax)
    1af0:	48 89 f2             	mov    %rsi,%rdx
    1af3:	48 8b 30             	mov    (%rax),%rsi
    1af6:	48 81 e2 00 00 00 80 	and    $0xffffffff80000000,%rdx
    1afd:	48 89 f1             	mov    %rsi,%rcx
    1b00:	81 e1 ff ff ff 7f    	and    $0x7fffffff,%ecx
    1b06:	48 09 d1             	or     %rdx,%rcx
    1b09:	48 89 fa             	mov    %rdi,%rdx
    1b0c:	f6 c1 01             	test   $0x1,%cl
    1b0f:	49 0f 45 d0          	cmovne %r8,%rdx
    1b13:	48 33 90 e0 f8 ff ff 	xor    -0x720(%rax),%rdx
    1b1a:	48 d1 e9             	shr    %rcx
    1b1d:	48 83 c0 08          	add    $0x8,%rax
    1b21:	48 31 ca             	xor    %rcx,%rdx
    1b24:	48 89 50 f0          	mov    %rdx,-0x10(%rax)
    1b28:	4c 39 d0             	cmp    %r10,%rax
    1b2b:	75 c3                	jne    1af0 <_ZNK7vecgeom3cxx17UnplacedTrapezoid15GetPointOnPlaneENS0_8Vector3DIdEES3_S3_S3_+0xd60>
    1b2d:	49 8b 16             	mov    (%r14),%rdx
    1b30:	49 8b 86 78 13 00 00 	mov    0x1378(%r14),%rax
    1b37:	48 89 d1             	mov    %rdx,%rcx
    1b3a:	48 25 00 00 00 80    	and    $0xffffffff80000000,%rax
    1b40:	81 e1 ff ff ff 7f    	and    $0x7fffffff,%ecx
    1b46:	48 09 c1             	or     %rax,%rcx
    1b49:	48 89 c8             	mov    %rcx,%rax
    1b4c:	48 d1 e8             	shr    %rax
    1b4f:	49 33 86 60 0c 00 00 	xor    0xc60(%r14),%rax
    1b56:	83 e1 01             	and    $0x1,%ecx
    1b59:	4c 89 c1             	mov    %r8,%rcx
    1b5c:	48 0f 44 cf          	cmove  %rdi,%rcx
    1b60:	48 31 c8             	xor    %rcx,%rax
    1b63:	b9 01 00 00 00       	mov    $0x1,%ecx
    1b68:	49 89 86 78 13 00 00 	mov    %rax,0x1378(%r14)
    1b6f:	e9 b5 fe ff ff       	jmpq   1a29 <_ZNK7vecgeom3cxx17UnplacedTrapezoid15GetPointOnPlaneENS0_8Vector3DIdEES3_S3_S3_+0xc99>
    1b74:	d9 c9                	fxch   %st(1)
    1b76:	48 89 c2             	mov    %rax,%rdx
    1b79:	83 e0 01             	and    $0x1,%eax
    1b7c:	48 d1 ea             	shr    %rdx
    1b7f:	48 09 c2             	or     %rax,%rdx
    1b82:	f2 48 0f 2a c2       	cvtsi2sd %rdx,%xmm0
    1b87:	f2 0f 58 c0          	addsd  %xmm0,%xmm0
    1b8b:	e9 db fe ff ff       	jmpq   1a6b <_ZNK7vecgeom3cxx17UnplacedTrapezoid15GetPointOnPlaneENS0_8Vector3DIdEES3_S3_S3_+0xcdb>
    1b90:	dd d9                	fstp   %st(1)
    1b92:	dd 1c 24             	fstpl  (%rsp)
    1b95:	49 89 8e 80 13 00 00 	mov    %rcx,0x1380(%r14)
    1b9c:	48 8b 05 00 00 00 00 	mov    0x0(%rip),%rax        # 1ba3 <_ZNK7vecgeom3cxx17UnplacedTrapezoid15GetPointOnPlaneENS0_8Vector3DIdEES3_S3_S3_+0xe13>
    1ba3:	f2 0f 10 2c 24       	movsd  (%rsp),%xmm5
    1ba8:	48 83 c0 10          	add    $0x10,%rax
    1bac:	f2 0f 5e cd          	divsd  %xmm5,%xmm1
    1bb0:	66 0f 28 c1          	movapd %xmm1,%xmm0
    1bb4:	f2 0f 10 4c 24 50    	movsd  0x50(%rsp),%xmm1
    1bba:	f2 0f 59 c2          	mulsd  %xmm2,%xmm0
    1bbe:	f2 0f 10 54 24 40    	movsd  0x40(%rsp),%xmm2
    1bc4:	f2 0f 59 d4          	mulsd  %xmm4,%xmm2
    1bc8:	f2 0f 58 c3          	addsd  %xmm3,%xmm0
    1bcc:	f2 0f 10 5c 24 38    	movsd  0x38(%rsp),%xmm3
    1bd2:	f2 0f 59 dc          	mulsd  %xmm4,%xmm3
    1bd6:	f2 41 0f 58 55 18    	addsd  0x18(%r13),%xmm2
    1bdc:	f2 0f 59 c4          	mulsd  %xmm4,%xmm0
    1be0:	f2 0f 59 64 24 48    	mulsd  0x48(%rsp),%xmm4
    1be6:	f2 41 0f 58 5d 10    	addsd  0x10(%r13),%xmm3
    1bec:	f2 0f 59 c8          	mulsd  %xmm0,%xmm1
    1bf0:	f2 41 0f 58 65 20    	addsd  0x20(%r13),%xmm4
    1bf6:	48 89 45 00          	mov    %rax,0x0(%rbp)
    1bfa:	f2 0f 58 cb          	addsd  %xmm3,%xmm1
    1bfe:	f2 0f 11 4d 10       	movsd  %xmm1,0x10(%rbp)
    1c03:	f2 0f 10 4c 24 58    	movsd  0x58(%rsp),%xmm1
    1c09:	f2 0f 59 c8          	mulsd  %xmm0,%xmm1
    1c0d:	f2 0f 59 44 24 60    	mulsd  0x60(%rsp),%xmm0
    1c13:	f2 0f 58 ca          	addsd  %xmm2,%xmm1
    1c17:	f2 0f 58 c4          	addsd  %xmm4,%xmm0
    1c1b:	f2 0f 11 4d 18       	movsd  %xmm1,0x18(%rbp)
    1c20:	f2 0f 11 45 20       	movsd  %xmm0,0x20(%rbp)
    1c25:	e9 66 f9 ff ff       	jmpq   1590 <_ZNK7vecgeom3cxx17UnplacedTrapezoid15GetPointOnPlaneENS0_8Vector3DIdEES3_S3_S3_+0x800>
    1c2a:	f2 41 0f 10 9e 88 13 	movsd  0x1388(%r14),%xmm3
    1c31:	00 00 
    1c33:	49 8b 86 80 13 00 00 	mov    0x1380(%r14),%rax
    1c3a:	f2 41 0f 10 96 90 13 	movsd  0x1390(%r14),%xmm2
    1c41:	00 00 
    1c43:	f2 0f 5c d3          	subsd  %xmm3,%xmm2
    1c47:	e9 11 f7 ff ff       	jmpq   135d <_ZNK7vecgeom3cxx17UnplacedTrapezoid15GetPointOnPlaneENS0_8Vector3DIdEES3_S3_S3_+0x5cd>
    1c4c:	48 89 df             	mov    %rbx,%rdi
    1c4f:	f2 0f 11 24 24       	movsd  %xmm4,(%rsp)
    1c54:	e8 00 00 00 00       	callq  1c59 <_ZNK7vecgeom3cxx17UnplacedTrapezoid15GetPointOnPlaneENS0_8Vector3DIdEES3_S3_S3_+0xec9>
    1c59:	85 c0                	test   %eax,%eax
    1c5b:	f2 0f 10 24 24       	movsd  (%rsp),%xmm4
    1c60:	0f 84 83 01 00 00    	je     1de9 <_ZNK7vecgeom3cxx17UnplacedTrapezoid15GetPointOnPlaneENS0_8Vector3DIdEES3_S3_S3_+0x1059>
    1c66:	49 c7 06 00 00 00 00 	movq   $0x0,(%r14)
    1c6d:	31 d2                	xor    %edx,%edx
    1c6f:	b9 01 00 00 00       	mov    $0x1,%ecx
    1c74:	48 bf 21 0d d2 20 0d 	movabs $0xd20d20d20d20d21,%rdi
    1c7b:	d2 20 0d 
    1c7e:	66 90                	xchg   %ax,%ax
    1c80:	48 89 d0             	mov    %rdx,%rax
    1c83:	48 c1 e8 1e          	shr    $0x1e,%rax
    1c87:	48 31 d0             	xor    %rdx,%rax
    1c8a:	48 89 ca             	mov    %rcx,%rdx
    1c8d:	48 c1 ea 04          	shr    $0x4,%rdx
    1c91:	48 69 f0 65 89 07 6c 	imul   $0x6c078965,%rax,%rsi
    1c98:	48 89 d0             	mov    %rdx,%rax
    1c9b:	48 f7 e7             	mul    %rdi
    1c9e:	48 89 c8             	mov    %rcx,%rax
    1ca1:	48 d1 ea             	shr    %rdx
    1ca4:	48 69 d2 70 02 00 00 	imul   $0x270,%rdx,%rdx
    1cab:	48 29 d0             	sub    %rdx,%rax
    1cae:	48 89 c2             	mov    %rax,%rdx
    1cb1:	01 f2                	add    %esi,%edx
    1cb3:	49 89 14 ce          	mov    %rdx,(%r14,%rcx,8)
    1cb7:	48 83 c1 01          	add    $0x1,%rcx
    1cbb:	48 81 f9 70 02 00 00 	cmp    $0x270,%rcx
    1cc2:	75 bc                	jne    1c80 <_ZNK7vecgeom3cxx17UnplacedTrapezoid15GetPointOnPlaneENS0_8Vector3DIdEES3_S3_S3_+0xef0>
    1cc4:	f2 0f 10 35 00 00 00 	movsd  0x0(%rip),%xmm6        # 1ccc <_ZNK7vecgeom3cxx17UnplacedTrapezoid15GetPointOnPlaneENS0_8Vector3DIdEES3_S3_S3_+0xf3c>
    1ccb:	00 
    1ccc:	49 c7 86 80 13 00 00 	movq   $0x270,0x1380(%r14)
    1cd3:	70 02 00 00 
    1cd7:	49 c7 86 88 13 00 00 	movq   $0x0,0x1388(%r14)
    1cde:	00 00 00 00 
    1ce2:	48 89 df             	mov    %rbx,%rdi
    1ce5:	f2 0f 11 24 24       	movsd  %xmm4,(%rsp)
    1cea:	f2 41 0f 11 b6 90 13 	movsd  %xmm6,0x1390(%r14)
    1cf1:	00 00 
    1cf3:	e8 00 00 00 00       	callq  1cf8 <_ZNK7vecgeom3cxx17UnplacedTrapezoid15GetPointOnPlaneENS0_8Vector3DIdEES3_S3_S3_+0xf68>
    1cf8:	f2 41 0f 10 9e 88 13 	movsd  0x1388(%r14),%xmm3
    1cff:	00 00 
    1d01:	49 8b 86 80 13 00 00 	mov    0x1380(%r14),%rax
    1d08:	f2 41 0f 10 96 90 13 	movsd  0x1390(%r14),%xmm2
    1d0f:	00 00 
    1d11:	f2 0f 10 24 24       	movsd  (%rsp),%xmm4
    1d16:	f2 0f 5c d3          	subsd  %xmm3,%xmm2
    1d1a:	e9 d8 fc ff ff       	jmpq   19f7 <_ZNK7vecgeom3cxx17UnplacedTrapezoid15GetPointOnPlaneENS0_8Vector3DIdEES3_S3_S3_+0xc67>
    1d1f:	44 0f b6 13          	movzbl (%rbx),%r10d
    1d23:	e9 62 f2 ff ff       	jmpq   f8a <_ZNK7vecgeom3cxx17UnplacedTrapezoid15GetPointOnPlaneENS0_8Vector3DIdEES3_S3_S3_+0x1fa>
    1d28:	48 89 df             	mov    %rbx,%rdi
    1d2b:	e8 00 00 00 00       	callq  1d30 <_ZNK7vecgeom3cxx17UnplacedTrapezoid15GetPointOnPlaneENS0_8Vector3DIdEES3_S3_S3_+0xfa0>
    1d30:	85 c0                	test   %eax,%eax
    1d32:	0f 84 8b 00 00 00    	je     1dc3 <_ZNK7vecgeom3cxx17UnplacedTrapezoid15GetPointOnPlaneENS0_8Vector3DIdEES3_S3_S3_+0x1033>
    1d38:	49 c7 06 00 00 00 00 	movq   $0x0,(%r14)
    1d3f:	31 d2                	xor    %edx,%edx
    1d41:	b9 01 00 00 00       	mov    $0x1,%ecx
    1d46:	48 bf 21 0d d2 20 0d 	movabs $0xd20d20d20d20d21,%rdi
    1d4d:	d2 20 0d 
    1d50:	48 89 d0             	mov    %rdx,%rax
    1d53:	48 c1 e8 1e          	shr    $0x1e,%rax
    1d57:	48 31 d0             	xor    %rdx,%rax
    1d5a:	48 89 ca             	mov    %rcx,%rdx
    1d5d:	48 c1 ea 04          	shr    $0x4,%rdx
    1d61:	48 69 f0 65 89 07 6c 	imul   $0x6c078965,%rax,%rsi
    1d68:	48 89 d0             	mov    %rdx,%rax
    1d6b:	48 f7 e7             	mul    %rdi
    1d6e:	48 89 c8             	mov    %rcx,%rax
    1d71:	48 d1 ea             	shr    %rdx
    1d74:	48 69 d2 70 02 00 00 	imul   $0x270,%rdx,%rdx
    1d7b:	48 29 d0             	sub    %rdx,%rax
    1d7e:	48 89 c2             	mov    %rax,%rdx
    1d81:	01 f2                	add    %esi,%edx
    1d83:	49 89 14 ce          	mov    %rdx,(%r14,%rcx,8)
    1d87:	48 83 c1 01          	add    $0x1,%rcx
    1d8b:	48 81 f9 70 02 00 00 	cmp    $0x270,%rcx
    1d92:	75 bc                	jne    1d50 <_ZNK7vecgeom3cxx17UnplacedTrapezoid15GetPointOnPlaneENS0_8Vector3DIdEES3_S3_S3_+0xfc0>
    1d94:	f2 0f 10 35 00 00 00 	movsd  0x0(%rip),%xmm6        # 1d9c <_ZNK7vecgeom3cxx17UnplacedTrapezoid15GetPointOnPlaneENS0_8Vector3DIdEES3_S3_S3_+0x100c>
    1d9b:	00 
    1d9c:	49 c7 86 80 13 00 00 	movq   $0x270,0x1380(%r14)
    1da3:	70 02 00 00 
    1da7:	49 c7 86 88 13 00 00 	movq   $0x0,0x1388(%r14)
    1dae:	00 00 00 00 
    1db2:	48 89 df             	mov    %rbx,%rdi
    1db5:	f2 41 0f 11 b6 90 13 	movsd  %xmm6,0x1390(%r14)
    1dbc:	00 00 
    1dbe:	e8 00 00 00 00       	callq  1dc3 <_ZNK7vecgeom3cxx17UnplacedTrapezoid15GetPointOnPlaneENS0_8Vector3DIdEES3_S3_S3_+0x1033>
    1dc3:	f2 41 0f 10 9e 88 13 	movsd  0x1388(%r14),%xmm3
    1dca:	00 00 
    1dcc:	44 0f b6 13          	movzbl (%rbx),%r10d
    1dd0:	f2 41 0f 10 96 90 13 	movsd  0x1390(%r14),%xmm2
    1dd7:	00 00 
    1dd9:	49 8b 96 80 13 00 00 	mov    0x1380(%r14),%rdx
    1de0:	f2 0f 5c d3          	subsd  %xmm3,%xmm2
    1de4:	e9 6e f9 ff ff       	jmpq   1757 <_ZNK7vecgeom3cxx17UnplacedTrapezoid15GetPointOnPlaneENS0_8Vector3DIdEES3_S3_S3_+0x9c7>
    1de9:	f2 41 0f 10 9e 88 13 	movsd  0x1388(%r14),%xmm3
    1df0:	00 00 
    1df2:	49 8b 86 80 13 00 00 	mov    0x1380(%r14),%rax
    1df9:	f2 41 0f 10 96 90 13 	movsd  0x1390(%r14),%xmm2
    1e00:	00 00 
    1e02:	f2 0f 5c d3          	subsd  %xmm3,%xmm2
    1e06:	e9 ec fb ff ff       	jmpq   19f7 <_ZNK7vecgeom3cxx17UnplacedTrapezoid15GetPointOnPlaneENS0_8Vector3DIdEES3_S3_S3_+0xc67>
    1e0b:	90                   	nop
    1e0c:	0f 1f 40 00          	nopl   0x0(%rax)

0000000000001e10 <_ZNK7vecgeom3cxx17UnplacedTrapezoid19ApproxSurfaceNormalERKNS0_8Vector3DIdEE>:
    1e10:	f2 0f 10 6a 10       	movsd  0x10(%rdx),%xmm5
    1e15:	31 c9                	xor    %ecx,%ecx
    1e17:	f2 0f 10 62 18       	movsd  0x18(%rdx),%xmm4
    1e1c:	48 89 f8             	mov    %rdi,%rax
    1e1f:	f2 0f 10 86 88 00 00 	movsd  0x88(%rsi),%xmm0
    1e26:	00 
    1e27:	f2 0f 10 8e a8 00 00 	movsd  0xa8(%rsi),%xmm1
    1e2e:	00 
    1e2f:	f2 0f 59 c5          	mulsd  %xmm5,%xmm0
    1e33:	f2 0f 59 cc          	mulsd  %xmm4,%xmm1
    1e37:	f2 0f 10 5a 20       	movsd  0x20(%rdx),%xmm3
    1e3c:	ba 02 00 00 00       	mov    $0x2,%edx
    1e41:	f2 0f 10 b6 b0 00 00 	movsd  0xb0(%rsi),%xmm6
    1e48:	00 
    1e49:	f2 0f 10 15 00 00 00 	movsd  0x0(%rip),%xmm2        # 1e51 <_ZNK7vecgeom3cxx17UnplacedTrapezoid19ApproxSurfaceNormalERKNS0_8Vector3DIdEE+0x41>
    1e50:	00 
    1e51:	f2 0f 58 c1          	addsd  %xmm1,%xmm0
    1e55:	f2 0f 10 8e c8 00 00 	movsd  0xc8(%rsi),%xmm1
    1e5c:	00 
    1e5d:	f2 0f 59 f4          	mulsd  %xmm4,%xmm6
    1e61:	f2 0f 59 cb          	mulsd  %xmm3,%xmm1
    1e65:	f2 0f 58 c1          	addsd  %xmm1,%xmm0
    1e69:	f2 0f 10 8e 90 00 00 	movsd  0x90(%rsi),%xmm1
    1e70:	00 
    1e71:	f2 0f 59 cd          	mulsd  %xmm5,%xmm1
    1e75:	f2 0f 58 86 e8 00 00 	addsd  0xe8(%rsi),%xmm0
    1e7c:	00 
    1e7d:	f2 0f 58 ce          	addsd  %xmm6,%xmm1
    1e81:	f2 0f 10 b6 d0 00 00 	movsd  0xd0(%rsi),%xmm6
    1e88:	00 
    1e89:	f2 0f 59 f3          	mulsd  %xmm3,%xmm6
    1e8d:	66 0f 54 c2          	andpd  %xmm2,%xmm0
    1e91:	f2 0f 58 ce          	addsd  %xmm6,%xmm1
    1e95:	f2 0f 5d 05 00 00 00 	minsd  0x0(%rip),%xmm0        # 1e9d <_ZNK7vecgeom3cxx17UnplacedTrapezoid19ApproxSurfaceNormalERKNS0_8Vector3DIdEE+0x8d>
    1e9c:	00 
    1e9d:	f2 0f 58 8e f0 00 00 	addsd  0xf0(%rsi),%xmm1
    1ea4:	00 
    1ea5:	66 0f 28 f8          	movapd %xmm0,%xmm7
    1ea9:	66 0f 54 ca          	andpd  %xmm2,%xmm1
    1ead:	66 0f 2f c1          	comisd %xmm1,%xmm0
    1eb1:	f2 0f 5d f9          	minsd  %xmm1,%xmm7
    1eb5:	f2 0f 10 86 b8 00 00 	movsd  0xb8(%rsi),%xmm0
    1ebc:	00 
    1ebd:	f2 0f 10 8e 98 00 00 	movsd  0x98(%rsi),%xmm1
    1ec4:	00 
    1ec5:	f2 0f 59 c4          	mulsd  %xmm4,%xmm0
    1ec9:	f2 0f 59 cd          	mulsd  %xmm5,%xmm1
    1ecd:	0f 97 c1             	seta   %cl
    1ed0:	f2 0f 59 ae a0 00 00 	mulsd  0xa0(%rsi),%xmm5
    1ed7:	00 
    1ed8:	66 0f 28 f7          	movapd %xmm7,%xmm6
    1edc:	f2 0f 59 a6 c0 00 00 	mulsd  0xc0(%rsi),%xmm4
    1ee3:	00 
    1ee4:	f2 0f 58 c8          	addsd  %xmm0,%xmm1
    1ee8:	f2 0f 10 86 d8 00 00 	movsd  0xd8(%rsi),%xmm0
    1eef:	00 
    1ef0:	f2 0f 59 c3          	mulsd  %xmm3,%xmm0
    1ef4:	f2 0f 58 c8          	addsd  %xmm0,%xmm1
    1ef8:	66 0f 28 c5          	movapd %xmm5,%xmm0
    1efc:	f2 0f 58 c4          	addsd  %xmm4,%xmm0
    1f00:	f2 0f 58 8e f8 00 00 	addsd  0xf8(%rsi),%xmm1
    1f07:	00 
    1f08:	66 0f 54 ca          	andpd  %xmm2,%xmm1
    1f0c:	f2 0f 5d f1          	minsd  %xmm1,%xmm6
    1f10:	66 0f 2f cf          	comisd %xmm7,%xmm1
    1f14:	f2 0f 10 8e e0 00 00 	movsd  0xe0(%rsi),%xmm1
    1f1b:	00 
    1f1c:	f2 0f 59 cb          	mulsd  %xmm3,%xmm1
    1f20:	48 0f 43 d1          	cmovae %rcx,%rdx
    1f24:	b9 03 00 00 00       	mov    $0x3,%ecx
    1f29:	f2 0f 58 c1          	addsd  %xmm1,%xmm0
    1f2d:	66 0f 28 cb          	movapd %xmm3,%xmm1
    1f31:	66 0f 54 ca          	andpd  %xmm2,%xmm1
    1f35:	f2 0f 58 86 00 01 00 	addsd  0x100(%rsi),%xmm0
    1f3c:	00 
    1f3d:	f2 0f 5c 4e 20       	subsd  0x20(%rsi),%xmm1
    1f42:	66 0f 54 c2          	andpd  %xmm2,%xmm0
    1f46:	66 0f 54 ca          	andpd  %xmm2,%xmm1
    1f4a:	66 0f 2f c6          	comisd %xmm6,%xmm0
    1f4e:	f2 0f 5d c6          	minsd  %xmm6,%xmm0
    1f52:	48 0f 43 ca          	cmovae %rdx,%rcx
    1f56:	66 0f 2f c8          	comisd %xmm0,%xmm1
    1f5a:	77 44                	ja     1fa0 <_ZNK7vecgeom3cxx17UnplacedTrapezoid19ApproxSurfaceNormalERKNS0_8Vector3DIdEE+0x190>
    1f5c:	66 0f 57 c0          	xorpd  %xmm0,%xmm0
    1f60:	48 8b 15 00 00 00 00 	mov    0x0(%rip),%rdx        # 1f67 <_ZNK7vecgeom3cxx17UnplacedTrapezoid19ApproxSurfaceNormalERKNS0_8Vector3DIdEE+0x157>
    1f67:	48 83 c2 10          	add    $0x10,%rdx
    1f6b:	f2 0f 11 47 10       	movsd  %xmm0,0x10(%rdi)
    1f70:	66 0f 2f d8          	comisd %xmm0,%xmm3
    1f74:	48 89 17             	mov    %rdx,(%rdi)
    1f77:	f2 0f 11 47 18       	movsd  %xmm0,0x18(%rdi)
    1f7c:	76 12                	jbe    1f90 <_ZNK7vecgeom3cxx17UnplacedTrapezoid19ApproxSurfaceNormalERKNS0_8Vector3DIdEE+0x180>
    1f7e:	f2 0f 10 3d 00 00 00 	movsd  0x0(%rip),%xmm7        # 1f86 <_ZNK7vecgeom3cxx17UnplacedTrapezoid19ApproxSurfaceNormalERKNS0_8Vector3DIdEE+0x176>
    1f85:	00 
    1f86:	f2 0f 11 7f 20       	movsd  %xmm7,0x20(%rdi)
    1f8b:	c3                   	retq   
    1f8c:	0f 1f 40 00          	nopl   0x0(%rax)
    1f90:	f2 0f 10 1d 00 00 00 	movsd  0x0(%rip),%xmm3        # 1f98 <_ZNK7vecgeom3cxx17UnplacedTrapezoid19ApproxSurfaceNormalERKNS0_8Vector3DIdEE+0x188>
    1f97:	00 
    1f98:	f2 0f 11 5f 20       	movsd  %xmm3,0x20(%rdi)
    1f9d:	c3                   	retq   
    1f9e:	66 90                	xchg   %ax,%ax
    1fa0:	48 8d 14 ce          	lea    (%rsi,%rcx,8),%rdx
    1fa4:	f2 0f 10 82 c8 00 00 	movsd  0xc8(%rdx),%xmm0
    1fab:	00 
    1fac:	f2 0f 10 8a a8 00 00 	movsd  0xa8(%rdx),%xmm1
    1fb3:	00 
    1fb4:	f2 0f 10 92 88 00 00 	movsd  0x88(%rdx),%xmm2
    1fbb:	00 
    1fbc:	48 8b 15 00 00 00 00 	mov    0x0(%rip),%rdx        # 1fc3 <_ZNK7vecgeom3cxx17UnplacedTrapezoid19ApproxSurfaceNormalERKNS0_8Vector3DIdEE+0x1b3>
    1fc3:	f2 0f 11 4f 18       	movsd  %xmm1,0x18(%rdi)
    1fc8:	f2 0f 11 57 10       	movsd  %xmm2,0x10(%rdi)
    1fcd:	48 83 c2 10          	add    $0x10,%rdx
    1fd1:	f2 0f 11 47 20       	movsd  %xmm0,0x20(%rdi)
    1fd6:	48 89 17             	mov    %rdx,(%rdi)
    1fd9:	c3                   	retq   
    1fda:	66 0f 1f 44 00 00    	nopw   0x0(%rax,%rax,1)

0000000000001fe0 <_ZNK7vecgeom3cxx17UnplacedTrapezoid6NormalERKNS0_8Vector3DIdEERS3_>:
    1fe0:	53                   	push   %rbx
    1fe1:	48 89 d3             	mov    %rdx,%rbx
    1fe4:	48 83 c4 80          	add    $0xffffffffffffff80,%rsp
    1fe8:	f2 0f 10 7e 10       	movsd  0x10(%rsi),%xmm7
    1fed:	f2 0f 10 76 18       	movsd  0x18(%rsi),%xmm6
    1ff2:	f2 0f 10 8f 88 00 00 	movsd  0x88(%rdi),%xmm1
    1ff9:	00 
    1ffa:	f2 0f 10 87 a8 00 00 	movsd  0xa8(%rdi),%xmm0
    2001:	00 
    2002:	66 0f 28 de          	movapd %xmm6,%xmm3
    2006:	f2 0f 59 cf          	mulsd  %xmm7,%xmm1
    200a:	f2 0f 59 c6          	mulsd  %xmm6,%xmm0
    200e:	f2 0f 10 56 20       	movsd  0x20(%rsi),%xmm2
    2013:	66 0f 14 db          	unpcklpd %xmm3,%xmm3
    2017:	f2 0f 10 25 00 00 00 	movsd  0x0(%rip),%xmm4        # 201f <_ZNK7vecgeom3cxx17UnplacedTrapezoid6NormalERKNS0_8Vector3DIdEERS3_+0x3f>
    201e:	00 
    201f:	f2 0f 58 c8          	addsd  %xmm0,%xmm1
    2023:	f2 0f 10 87 c8 00 00 	movsd  0xc8(%rdi),%xmm0
    202a:	00 
    202b:	66 0f 59 9f b0 00 00 	mulpd  0xb0(%rdi),%xmm3
    2032:	00 
    2033:	f2 0f 59 c2          	mulsd  %xmm2,%xmm0
    2037:	f2 0f 10 2d 00 00 00 	movsd  0x0(%rip),%xmm5        # 203f <_ZNK7vecgeom3cxx17UnplacedTrapezoid6NormalERKNS0_8Vector3DIdEERS3_+0x5f>
    203e:	00 
    203f:	f2 0f 58 c8          	addsd  %xmm0,%xmm1
    2043:	66 0f 28 c7          	movapd %xmm7,%xmm0
    2047:	66 0f 14 c0          	unpcklpd %xmm0,%xmm0
    204b:	f2 0f 58 8f e8 00 00 	addsd  0xe8(%rdi),%xmm1
    2052:	00 
    2053:	66 0f 59 87 90 00 00 	mulpd  0x90(%rdi),%xmm0
    205a:	00 
    205b:	f2 0f 11 0c 24       	movsd  %xmm1,(%rsp)
    2060:	66 0f 54 cc          	andpd  %xmm4,%xmm1
    2064:	66 0f 58 c3          	addpd  %xmm3,%xmm0
    2068:	66 0f 28 da          	movapd %xmm2,%xmm3
    206c:	66 0f 2f e9          	comisd %xmm1,%xmm5
    2070:	66 0f 14 db          	unpcklpd %xmm3,%xmm3
    2074:	66 0f 59 9f d0 00 00 	mulpd  0xd0(%rdi),%xmm3
    207b:	00 
    207c:	66 0f 58 c3          	addpd  %xmm3,%xmm0
    2080:	f2 0f 10 9f c0 00 00 	movsd  0xc0(%rdi),%xmm3
    2087:	00 
    2088:	f2 0f 59 de          	mulsd  %xmm6,%xmm3
    208c:	66 0f 58 87 f0 00 00 	addpd  0xf0(%rdi),%xmm0
    2093:	00 
    2094:	66 0f 13 44 24 08    	movlpd %xmm0,0x8(%rsp)
    209a:	66 0f 17 44 24 10    	movhpd %xmm0,0x10(%rsp)
    20a0:	f2 0f 10 87 a0 00 00 	movsd  0xa0(%rdi),%xmm0
    20a7:	00 
    20a8:	f2 0f 59 c7          	mulsd  %xmm7,%xmm0
    20ac:	f2 0f 58 c3          	addsd  %xmm3,%xmm0
    20b0:	f2 0f 10 9f e0 00 00 	movsd  0xe0(%rdi),%xmm3
    20b7:	00 
    20b8:	f2 0f 59 da          	mulsd  %xmm2,%xmm3
    20bc:	f2 0f 58 c3          	addsd  %xmm3,%xmm0
    20c0:	f2 0f 58 87 00 01 00 	addsd  0x100(%rdi),%xmm0
    20c7:	00 
    20c8:	f2 0f 11 44 24 18    	movsd  %xmm0,0x18(%rsp)
    20ce:	0f 83 bc 01 00 00    	jae    2290 <_ZNK7vecgeom3cxx17UnplacedTrapezoid6NormalERKNS0_8Vector3DIdEERS3_+0x2b0>
    20d4:	66 0f 57 c0          	xorpd  %xmm0,%xmm0
    20d8:	31 c9                	xor    %ecx,%ecx
    20da:	66 0f 28 c8          	movapd %xmm0,%xmm1
    20de:	66 0f 28 d8          	movapd %xmm0,%xmm3
    20e2:	f2 44 0f 10 44 24 08 	movsd  0x8(%rsp),%xmm8
    20e9:	66 44 0f 54 c4       	andpd  %xmm4,%xmm8
    20ee:	66 41 0f 2f e8       	comisd %xmm8,%xmm5
    20f3:	0f 83 37 01 00 00    	jae    2230 <_ZNK7vecgeom3cxx17UnplacedTrapezoid6NormalERKNS0_8Vector3DIdEERS3_+0x250>
    20f9:	f2 44 0f 10 44 24 10 	movsd  0x10(%rsp),%xmm8
    2100:	66 44 0f 54 c4       	andpd  %xmm4,%xmm8
    2105:	66 41 0f 2f e8       	comisd %xmm8,%xmm5
    210a:	0f 83 40 01 00 00    	jae    2250 <_ZNK7vecgeom3cxx17UnplacedTrapezoid6NormalERKNS0_8Vector3DIdEERS3_+0x270>
    2110:	f2 44 0f 10 44 24 18 	movsd  0x18(%rsp),%xmm8
    2117:	66 44 0f 54 c4       	andpd  %xmm4,%xmm8
    211c:	66 41 0f 2f e8       	comisd %xmm8,%xmm5
    2121:	0f 83 e9 00 00 00    	jae    2210 <_ZNK7vecgeom3cxx17UnplacedTrapezoid6NormalERKNS0_8Vector3DIdEERS3_+0x230>
    2127:	66 44 0f 28 c2       	movapd %xmm2,%xmm8
    212c:	66 44 0f 54 c4       	andpd  %xmm4,%xmm8
    2131:	f2 44 0f 5c 47 20    	subsd  0x20(%rdi),%xmm8
    2137:	66 44 0f 54 c4       	andpd  %xmm4,%xmm8
    213c:	66 41 0f 2f e8       	comisd %xmm8,%xmm5
    2141:	72 75                	jb     21b8 <_ZNK7vecgeom3cxx17UnplacedTrapezoid6NormalERKNS0_8Vector3DIdEERS3_+0x1d8>
    2143:	83 c1 01             	add    $0x1,%ecx
    2146:	66 0f 2f 15 00 00 00 	comisd 0x0(%rip),%xmm2        # 214e <_ZNK7vecgeom3cxx17UnplacedTrapezoid6NormalERKNS0_8Vector3DIdEERS3_+0x16e>
    214d:	00 
    214e:	0f 82 1c 01 00 00    	jb     2270 <_ZNK7vecgeom3cxx17UnplacedTrapezoid6NormalERKNS0_8Vector3DIdEERS3_+0x290>
    2154:	f2 0f 58 05 00 00 00 	addsd  0x0(%rip),%xmm0        # 215c <_ZNK7vecgeom3cxx17UnplacedTrapezoid6NormalERKNS0_8Vector3DIdEERS3_+0x17c>
    215b:	00 
    215c:	83 f9 01             	cmp    $0x1,%ecx
    215f:	b8 01 00 00 00       	mov    $0x1,%eax
    2164:	74 38                	je     219e <_ZNK7vecgeom3cxx17UnplacedTrapezoid6NormalERKNS0_8Vector3DIdEERS3_+0x1be>
    2166:	66 0f 28 d3          	movapd %xmm3,%xmm2
    216a:	66 0f 28 e1          	movapd %xmm1,%xmm4
    216e:	f2 0f 59 d3          	mulsd  %xmm3,%xmm2
    2172:	f2 0f 59 e1          	mulsd  %xmm1,%xmm4
    2176:	f2 0f 58 d4          	addsd  %xmm4,%xmm2
    217a:	66 0f 28 e0          	movapd %xmm0,%xmm4
    217e:	f2 0f 59 e0          	mulsd  %xmm0,%xmm4
    2182:	f2 0f 58 d4          	addsd  %xmm4,%xmm2
    2186:	f2 0f 58 15 00 00 00 	addsd  0x0(%rip),%xmm2        # 218e <_ZNK7vecgeom3cxx17UnplacedTrapezoid6NormalERKNS0_8Vector3DIdEERS3_+0x1ae>
    218d:	00 
    218e:	f2 0f 51 d2          	sqrtsd %xmm2,%xmm2
    2192:	f2 0f 5e da          	divsd  %xmm2,%xmm3
    2196:	f2 0f 5e ca          	divsd  %xmm2,%xmm1
    219a:	f2 0f 5e c2          	divsd  %xmm2,%xmm0
    219e:	f2 0f 11 5b 10       	movsd  %xmm3,0x10(%rbx)
    21a3:	f2 0f 11 4b 18       	movsd  %xmm1,0x18(%rbx)
    21a8:	f2 0f 11 43 20       	movsd  %xmm0,0x20(%rbx)
    21ad:	48 83 ec 80          	sub    $0xffffffffffffff80,%rsp
    21b1:	5b                   	pop    %rbx
    21b2:	c3                   	retq   
    21b3:	0f 1f 44 00 00       	nopl   0x0(%rax,%rax,1)
    21b8:	85 c9                	test   %ecx,%ecx
    21ba:	75 a0                	jne    215c <_ZNK7vecgeom3cxx17UnplacedTrapezoid6NormalERKNS0_8Vector3DIdEERS3_+0x17c>
    21bc:	48 8b 05 00 00 00 00 	mov    0x0(%rip),%rax        # 21c3 <_ZNK7vecgeom3cxx17UnplacedTrapezoid6NormalERKNS0_8Vector3DIdEERS3_+0x1e3>
    21c3:	48 8d 54 24 20       	lea    0x20(%rsp),%rdx
    21c8:	48 89 fe             	mov    %rdi,%rsi
    21cb:	f2 0f 11 7c 24 30    	movsd  %xmm7,0x30(%rsp)
    21d1:	f2 0f 11 74 24 38    	movsd  %xmm6,0x38(%rsp)
    21d7:	48 83 c0 10          	add    $0x10,%rax
    21db:	f2 0f 11 54 24 40    	movsd  %xmm2,0x40(%rsp)
    21e1:	48 89 44 24 20       	mov    %rax,0x20(%rsp)
    21e6:	48 8d 44 24 50       	lea    0x50(%rsp),%rax
    21eb:	48 89 c7             	mov    %rax,%rdi
    21ee:	e8 00 00 00 00       	callq  21f3 <_ZNK7vecgeom3cxx17UnplacedTrapezoid6NormalERKNS0_8Vector3DIdEERS3_+0x213>
    21f3:	f2 0f 10 5c 24 60    	movsd  0x60(%rsp),%xmm3
    21f9:	31 c0                	xor    %eax,%eax
    21fb:	f2 0f 10 4c 24 68    	movsd  0x68(%rsp),%xmm1
    2201:	f2 0f 10 44 24 70    	movsd  0x70(%rsp),%xmm0
    2207:	eb 95                	jmp    219e <_ZNK7vecgeom3cxx17UnplacedTrapezoid6NormalERKNS0_8Vector3DIdEERS3_+0x1be>
    2209:	0f 1f 80 00 00 00 00 	nopl   0x0(%rax)
    2210:	83 c1 01             	add    $0x1,%ecx
    2213:	f2 0f 58 9f a0 00 00 	addsd  0xa0(%rdi),%xmm3
    221a:	00 
    221b:	f2 0f 58 8f c0 00 00 	addsd  0xc0(%rdi),%xmm1
    2222:	00 
    2223:	f2 0f 58 87 e0 00 00 	addsd  0xe0(%rdi),%xmm0
    222a:	00 
    222b:	e9 f7 fe ff ff       	jmpq   2127 <_ZNK7vecgeom3cxx17UnplacedTrapezoid6NormalERKNS0_8Vector3DIdEERS3_+0x147>
    2230:	83 c1 01             	add    $0x1,%ecx
    2233:	f2 0f 58 9f 90 00 00 	addsd  0x90(%rdi),%xmm3
    223a:	00 
    223b:	f2 0f 58 8f b0 00 00 	addsd  0xb0(%rdi),%xmm1
    2242:	00 
    2243:	f2 0f 58 87 d0 00 00 	addsd  0xd0(%rdi),%xmm0
    224a:	00 
    224b:	e9 a9 fe ff ff       	jmpq   20f9 <_ZNK7vecgeom3cxx17UnplacedTrapezoid6NormalERKNS0_8Vector3DIdEERS3_+0x119>
    2250:	83 c1 01             	add    $0x1,%ecx
    2253:	f2 0f 58 9f 98 00 00 	addsd  0x98(%rdi),%xmm3
    225a:	00 
    225b:	f2 0f 58 8f b8 00 00 	addsd  0xb8(%rdi),%xmm1
    2262:	00 
    2263:	f2 0f 58 87 d8 00 00 	addsd  0xd8(%rdi),%xmm0
    226a:	00 
    226b:	e9 a0 fe ff ff       	jmpq   2110 <_ZNK7vecgeom3cxx17UnplacedTrapezoid6NormalERKNS0_8Vector3DIdEERS3_+0x130>
    2270:	83 f9 01             	cmp    $0x1,%ecx
    2273:	f2 0f 5c 05 00 00 00 	subsd  0x0(%rip),%xmm0        # 227b <_ZNK7vecgeom3cxx17UnplacedTrapezoid6NormalERKNS0_8Vector3DIdEERS3_+0x29b>
    227a:	00 
    227b:	b8 01 00 00 00       	mov    $0x1,%eax
    2280:	0f 85 e0 fe ff ff    	jne    2166 <_ZNK7vecgeom3cxx17UnplacedTrapezoid6NormalERKNS0_8Vector3DIdEERS3_+0x186>
    2286:	e9 13 ff ff ff       	jmpq   219e <_ZNK7vecgeom3cxx17UnplacedTrapezoid6NormalERKNS0_8Vector3DIdEERS3_+0x1be>
    228b:	0f 1f 44 00 00       	nopl   0x0(%rax,%rax,1)
    2290:	f2 0f 10 87 c8 00 00 	movsd  0xc8(%rdi),%xmm0
    2297:	00 
    2298:	b9 01 00 00 00       	mov    $0x1,%ecx
    229d:	f2 0f 10 8f a8 00 00 	movsd  0xa8(%rdi),%xmm1
    22a4:	00 
    22a5:	f2 0f 10 9f 88 00 00 	movsd  0x88(%rdi),%xmm3
    22ac:	00 
    22ad:	e9 30 fe ff ff       	jmpq   20e2 <_ZNK7vecgeom3cxx17UnplacedTrapezoid6NormalERKNS0_8Vector3DIdEERS3_+0x102>
    22b2:	66 66 66 66 66 2e 0f 	data32 data32 data32 data32 nopw %cs:0x0(%rax,%rax,1)
    22b9:	1f 84 00 00 00 00 00 

00000000000022c0 <_ZNK7vecgeom3cxx17UnplacedTrapezoid6VolumeEv>:
    22c0:	f2 0f 10 67 40       	movsd  0x40(%rdi),%xmm4
    22c5:	f2 0f 10 6f 48       	movsd  0x48(%rdi),%xmm5
    22ca:	66 0f 28 c4          	movapd %xmm4,%xmm0
    22ce:	f2 0f 10 77 60       	movsd  0x60(%rdi),%xmm6
    22d3:	f2 0f 10 4f 68       	movsd  0x68(%rdi),%xmm1
    22d8:	f2 0f 58 c5          	addsd  %xmm5,%xmm0
    22dc:	f2 0f 10 57 38       	movsd  0x38(%rdi),%xmm2
    22e1:	f2 0f 10 5f 58       	movsd  0x58(%rdi),%xmm3
    22e6:	66 0f 28 fa          	movapd %xmm2,%xmm7
    22ea:	f2 0f 58 c6          	addsd  %xmm6,%xmm0
    22ee:	f2 0f 58 fb          	addsd  %xmm3,%xmm7
    22f2:	f2 0f 5c da          	subsd  %xmm2,%xmm3
    22f6:	f2 0f 58 c1          	addsd  %xmm1,%xmm0
    22fa:	f2 0f 58 ce          	addsd  %xmm6,%xmm1
    22fe:	f2 0f 59 c7          	mulsd  %xmm7,%xmm0
    2302:	f2 0f 5c cd          	subsd  %xmm5,%xmm1
    2306:	f2 0f 5c cc          	subsd  %xmm4,%xmm1
    230a:	f2 0f 59 cb          	mulsd  %xmm3,%xmm1
    230e:	f2 0f 5e 0d 00 00 00 	divsd  0x0(%rip),%xmm1        # 2316 <_ZNK7vecgeom3cxx17UnplacedTrapezoid6VolumeEv+0x56>
    2315:	00 
    2316:	f2 0f 58 c1          	addsd  %xmm1,%xmm0
    231a:	f2 0f 59 47 20       	mulsd  0x20(%rdi),%xmm0
    231f:	c3                   	retq   

0000000000002320 <_ZN7vecgeom3cxx17UnplacedTrapezoid23fromCornersToParametersEPKNS0_8Vector3DIdEE>:
    2320:	53                   	push   %rbx
    2321:	48 89 fb             	mov    %rdi,%rbx
    2324:	48 83 ec 10          	sub    $0x10,%rsp
    2328:	f2 0f 10 86 70 01 00 	movsd  0x170(%rsi),%xmm0
    232f:	00 
    2330:	f2 0f 10 0d 00 00 00 	movsd  0x0(%rip),%xmm1        # 2338 <_ZN7vecgeom3cxx17UnplacedTrapezoid23fromCornersToParametersEPKNS0_8Vector3DIdEE+0x18>
    2337:	00 
    2338:	f2 0f 11 47 20       	movsd  %xmm0,0x20(%rdi)
    233d:	f2 0f 10 25 00 00 00 	movsd  0x0(%rip),%xmm4        # 2345 <_ZN7vecgeom3cxx17UnplacedTrapezoid23fromCornersToParametersEPKNS0_8Vector3DIdEE+0x25>
    2344:	00 
    2345:	f2 0f 10 56 78       	movsd  0x78(%rsi),%xmm2
    234a:	f2 0f 5e e0          	divsd  %xmm0,%xmm4
    234e:	f2 0f 5c 56 18       	subsd  0x18(%rsi),%xmm2
    2353:	f2 0f 59 d1          	mulsd  %xmm1,%xmm2
    2357:	f2 0f 10 2d 00 00 00 	movsd  0x0(%rip),%xmm5        # 235f <_ZN7vecgeom3cxx17UnplacedTrapezoid23fromCornersToParametersEPKNS0_8Vector3DIdEE+0x3f>
    235e:	00 
    235f:	f2 0f 11 57 38       	movsd  %xmm2,0x38(%rdi)
    2364:	f2 0f 10 46 40       	movsd  0x40(%rsi),%xmm0
    2369:	f2 0f 5c 46 10       	subsd  0x10(%rsi),%xmm0
    236e:	f2 0f 59 c1          	mulsd  %xmm1,%xmm0
    2372:	f2 0f 11 47 40       	movsd  %xmm0,0x40(%rdi)
    2377:	f2 0f 10 86 a0 00 00 	movsd  0xa0(%rsi),%xmm0
    237e:	00 
    237f:	f2 0f 5c 46 70       	subsd  0x70(%rsi),%xmm0
    2384:	f2 0f 59 c1          	mulsd  %xmm1,%xmm0
    2388:	f2 0f 11 47 48       	movsd  %xmm0,0x48(%rdi)
    238d:	f2 0f 10 46 70       	movsd  0x70(%rsi),%xmm0
    2392:	f2 0f 58 86 a0 00 00 	addsd  0xa0(%rsi),%xmm0
    2399:	00 
    239a:	f2 0f 5c 46 40       	subsd  0x40(%rsi),%xmm0
    239f:	f2 0f 5c 46 10       	subsd  0x10(%rsi),%xmm0
    23a4:	f2 0f 59 c5          	mulsd  %xmm5,%xmm0
    23a8:	f2 0f 5e c2          	divsd  %xmm2,%xmm0
    23ac:	f2 0f 11 47 50       	movsd  %xmm0,0x50(%rdi)
    23b1:	f2 0f 10 86 38 01 00 	movsd  0x138(%rsi),%xmm0
    23b8:	00 
    23b9:	f2 0f 5c 86 d8 00 00 	subsd  0xd8(%rsi),%xmm0
    23c0:	00 
    23c1:	f2 0f 59 c1          	mulsd  %xmm1,%xmm0
    23c5:	f2 0f 11 47 58       	movsd  %xmm0,0x58(%rdi)
    23ca:	f2 0f 10 96 00 01 00 	movsd  0x100(%rsi),%xmm2
    23d1:	00 
    23d2:	f2 0f 5c 96 d0 00 00 	subsd  0xd0(%rsi),%xmm2
    23d9:	00 
    23da:	f2 0f 59 d1          	mulsd  %xmm1,%xmm2
    23de:	f2 0f 11 57 60       	movsd  %xmm2,0x60(%rdi)
    23e3:	f2 0f 10 9e 60 01 00 	movsd  0x160(%rsi),%xmm3
    23ea:	00 
    23eb:	f2 0f 5c 9e 30 01 00 	subsd  0x130(%rsi),%xmm3
    23f2:	00 
    23f3:	f2 0f 59 d9          	mulsd  %xmm1,%xmm3
    23f7:	f2 0f 11 5f 68       	movsd  %xmm3,0x68(%rdi)
    23fc:	f2 0f 10 8e 30 01 00 	movsd  0x130(%rsi),%xmm1
    2403:	00 
    2404:	f2 0f 58 8e 60 01 00 	addsd  0x160(%rsi),%xmm1
    240b:	00 
    240c:	f2 0f 5c 8e 00 01 00 	subsd  0x100(%rsi),%xmm1
    2413:	00 
    2414:	f2 0f 5c 8e d0 00 00 	subsd  0xd0(%rsi),%xmm1
    241b:	00 
    241c:	f2 0f 59 cd          	mulsd  %xmm5,%xmm1
    2420:	f2 0f 5e c8          	divsd  %xmm0,%xmm1
    2424:	f2 0f 11 4f 70       	movsd  %xmm1,0x70(%rdi)
    2429:	f2 0f 59 c8          	mulsd  %xmm0,%xmm1
    242d:	f2 0f 58 8e d0 00 00 	addsd  0xd0(%rsi),%xmm1
    2434:	00 
    2435:	f2 0f 58 ca          	addsd  %xmm2,%xmm1
    2439:	f2 0f 59 cc          	mulsd  %xmm4,%xmm1
    243d:	f2 0f 11 4f 78       	movsd  %xmm1,0x78(%rdi)
    2442:	f2 0f 11 4c 24 08    	movsd  %xmm1,0x8(%rsp)
    2448:	f2 0f 10 96 d8 00 00 	movsd  0xd8(%rsi),%xmm2
    244f:	00 
    2450:	f2 0f 58 d0          	addsd  %xmm0,%xmm2
    2454:	66 0f 28 c1          	movapd %xmm1,%xmm0
    2458:	f2 0f 59 c1          	mulsd  %xmm1,%xmm0
    245c:	f2 0f 59 d4          	mulsd  %xmm4,%xmm2
    2460:	66 0f 28 da          	movapd %xmm2,%xmm3
    2464:	f2 0f 11 97 80 00 00 	movsd  %xmm2,0x80(%rdi)
    246b:	00 
    246c:	f2 0f 11 14 24       	movsd  %xmm2,(%rsp)
    2471:	f2 0f 59 da          	mulsd  %xmm2,%xmm3
    2475:	f2 0f 58 c3          	addsd  %xmm3,%xmm0
    2479:	f2 0f 51 c0          	sqrtsd %xmm0,%xmm0
    247d:	e8 00 00 00 00       	callq  2482 <_ZN7vecgeom3cxx17UnplacedTrapezoid23fromCornersToParametersEPKNS0_8Vector3DIdEE+0x162>
    2482:	f2 0f 10 14 24       	movsd  (%rsp),%xmm2
    2487:	f2 0f 11 43 28       	movsd  %xmm0,0x28(%rbx)
    248c:	f2 0f 10 4c 24 08    	movsd  0x8(%rsp),%xmm1
    2492:	66 0f 28 c2          	movapd %xmm2,%xmm0
    2496:	e8 00 00 00 00       	callq  249b <_ZN7vecgeom3cxx17UnplacedTrapezoid23fromCornersToParametersEPKNS0_8Vector3DIdEE+0x17b>
    249b:	f2 0f 11 43 30       	movsd  %xmm0,0x30(%rbx)
    24a0:	48 83 c4 10          	add    $0x10,%rsp
    24a4:	5b                   	pop    %rbx
    24a5:	c3                   	retq   
    24a6:	66 2e 0f 1f 84 00 00 	nopw   %cs:0x0(%rax,%rax,1)
    24ad:	00 00 00 

00000000000024b0 <_ZN7vecgeom3cxx17UnplacedTrapezoidC1EPKNS0_8Vector3DIdEE>:
    24b0:	55                   	push   %rbp
    24b1:	48 89 f5             	mov    %rsi,%rbp
    24b4:	53                   	push   %rbx
    24b5:	48 89 fb             	mov    %rdi,%rbx
    24b8:	48 83 ec 08          	sub    $0x8,%rsp
    24bc:	48 8b 05 00 00 00 00 	mov    0x0(%rip),%rax        # 24c3 <_ZN7vecgeom3cxx17UnplacedTrapezoidC1EPKNS0_8Vector3DIdEE+0x13>
    24c3:	48 c7 47 20 00 00 00 	movq   $0x0,0x20(%rdi)
    24ca:	00 
    24cb:	48 c7 47 28 00 00 00 	movq   $0x0,0x28(%rdi)
    24d2:	00 
    24d3:	48 c7 47 30 00 00 00 	movq   $0x0,0x30(%rdi)
    24da:	00 
    24db:	48 c7 47 38 00 00 00 	movq   $0x0,0x38(%rdi)
    24e2:	00 
    24e3:	48 c7 47 40 00 00 00 	movq   $0x0,0x40(%rdi)
    24ea:	00 
    24eb:	48 8d 50 10          	lea    0x10(%rax),%rdx
    24ef:	48 83 c0 68          	add    $0x68,%rax
    24f3:	48 c7 47 48 00 00 00 	movq   $0x0,0x48(%rdi)
    24fa:	00 
    24fb:	48 89 47 10          	mov    %rax,0x10(%rdi)
    24ff:	48 c7 47 50 00 00 00 	movq   $0x0,0x50(%rdi)
    2506:	00 
    2507:	48 89 17             	mov    %rdx,(%rdi)
    250a:	48 c7 47 58 00 00 00 	movq   $0x0,0x58(%rdi)
    2511:	00 
    2512:	48 c7 47 60 00 00 00 	movq   $0x0,0x60(%rdi)
    2519:	00 
    251a:	48 c7 47 68 00 00 00 	movq   $0x0,0x68(%rdi)
    2521:	00 
    2522:	48 c7 47 70 00 00 00 	movq   $0x0,0x70(%rdi)
    2529:	00 
    252a:	48 c7 47 78 00 00 00 	movq   $0x0,0x78(%rdi)
    2531:	00 
    2532:	48 c7 87 80 00 00 00 	movq   $0x0,0x80(%rdi)
    2539:	00 00 00 00 
    253d:	48 c7 87 88 00 00 00 	movq   $0x0,0x88(%rdi)
    2544:	00 00 00 00 
    2548:	48 c7 87 90 00 00 00 	movq   $0x0,0x90(%rdi)
    254f:	00 00 00 00 
    2553:	48 c7 87 98 00 00 00 	movq   $0x0,0x98(%rdi)
    255a:	00 00 00 00 
    255e:	48 c7 87 a0 00 00 00 	movq   $0x0,0xa0(%rdi)
    2565:	00 00 00 00 
    2569:	48 c7 87 a8 00 00 00 	movq   $0x0,0xa8(%rdi)
    2570:	00 00 00 00 
    2574:	48 c7 87 b0 00 00 00 	movq   $0x0,0xb0(%rdi)
    257b:	00 00 00 00 
    257f:	48 c7 87 b8 00 00 00 	movq   $0x0,0xb8(%rdi)
    2586:	00 00 00 00 
    258a:	48 c7 87 c0 00 00 00 	movq   $0x0,0xc0(%rdi)
    2591:	00 00 00 00 
    2595:	48 c7 87 c8 00 00 00 	movq   $0x0,0xc8(%rdi)
    259c:	00 00 00 00 
    25a0:	48 c7 87 d0 00 00 00 	movq   $0x0,0xd0(%rdi)
    25a7:	00 00 00 00 
    25ab:	48 c7 87 d8 00 00 00 	movq   $0x0,0xd8(%rdi)
    25b2:	00 00 00 00 
    25b6:	48 c7 87 e0 00 00 00 	movq   $0x0,0xe0(%rdi)
    25bd:	00 00 00 00 
    25c1:	48 c7 87 e8 00 00 00 	movq   $0x0,0xe8(%rdi)
    25c8:	00 00 00 00 
    25cc:	48 c7 87 f0 00 00 00 	movq   $0x0,0xf0(%rdi)
    25d3:	00 00 00 00 
    25d7:	48 c7 87 f8 00 00 00 	movq   $0x0,0xf8(%rdi)
    25de:	00 00 00 00 
    25e2:	48 c7 87 00 01 00 00 	movq   $0x0,0x100(%rdi)
    25e9:	00 00 00 00 
    25ed:	e8 00 00 00 00       	callq  25f2 <_ZN7vecgeom3cxx17UnplacedTrapezoidC1EPKNS0_8Vector3DIdEE+0x142>
    25f2:	84 c0                	test   %al,%al
    25f4:	75 0e                	jne    2604 <_ZN7vecgeom3cxx17UnplacedTrapezoidC1EPKNS0_8Vector3DIdEE+0x154>
    25f6:	48 8d 3d 00 00 00 00 	lea    0x0(%rip),%rdi        # 25fd <_ZN7vecgeom3cxx17UnplacedTrapezoidC1EPKNS0_8Vector3DIdEE+0x14d>
    25fd:	31 c0                	xor    %eax,%eax
    25ff:	e8 00 00 00 00       	callq  2604 <_ZN7vecgeom3cxx17UnplacedTrapezoidC1EPKNS0_8Vector3DIdEE+0x154>
    2604:	48 89 ee             	mov    %rbp,%rsi
    2607:	48 89 df             	mov    %rbx,%rdi
    260a:	e8 00 00 00 00       	callq  260f <_ZN7vecgeom3cxx17UnplacedTrapezoidC1EPKNS0_8Vector3DIdEE+0x15f>
    260f:	48 83 c4 08          	add    $0x8,%rsp
    2613:	5b                   	pop    %rbx
    2614:	5d                   	pop    %rbp
    2615:	c3                   	retq   
    2616:	48 8b 15 00 00 00 00 	mov    0x0(%rip),%rdx        # 261d <_ZN7vecgeom3cxx17UnplacedTrapezoidC1EPKNS0_8Vector3DIdEE+0x16d>
    261d:	48 89 c7             	mov    %rax,%rdi
    2620:	48 83 c2 10          	add    $0x10,%rdx
    2624:	48 89 53 10          	mov    %rdx,0x10(%rbx)
    2628:	48 8b 15 00 00 00 00 	mov    0x0(%rip),%rdx        # 262f <_ZN7vecgeom3cxx17UnplacedTrapezoidC1EPKNS0_8Vector3DIdEE+0x17f>
    262f:	48 83 c2 10          	add    $0x10,%rdx
    2633:	48 89 13             	mov    %rdx,(%rbx)
    2636:	e8 00 00 00 00       	callq  263b <_ZN7vecgeom3cxx17UnplacedTrapezoidC1EPKNS0_8Vector3DIdEE+0x18b>
    263b:	90                   	nop
    263c:	0f 1f 40 00          	nopl   0x0(%rax)

0000000000002640 <_ZNK7vecgeom3cxx17UnplacedTrapezoid23fromParametersToCornersEPNS0_8Vector3DIdEE>:
    2640:	f2 0f 10 47 20       	movsd  0x20(%rdi),%xmm0
    2645:	f2 0f 10 0d 00 00 00 	movsd  0x0(%rip),%xmm1        # 264d <_ZNK7vecgeom3cxx17UnplacedTrapezoid23fromParametersToCornersEPNS0_8Vector3DIdEE+0xd>
    264c:	00 
    264d:	f2 0f 10 57 38       	movsd  0x38(%rdi),%xmm2
    2652:	66 0f 57 c8          	xorpd  %xmm0,%xmm1
    2656:	f2 0f 10 5f 78       	movsd  0x78(%rdi),%xmm3
    265b:	f2 0f 10 67 50       	movsd  0x50(%rdi),%xmm4
    2660:	66 0f 28 f1          	movapd %xmm1,%xmm6
    2664:	f2 0f 10 af 80 00 00 	movsd  0x80(%rdi),%xmm5
    266b:	00 
    266c:	f2 0f 59 e2          	mulsd  %xmm2,%xmm4
    2670:	66 0f 28 f9          	movapd %xmm1,%xmm7
    2674:	f2 0f 59 f3          	mulsd  %xmm3,%xmm6
    2678:	f2 0f 59 fd          	mulsd  %xmm5,%xmm7
    267c:	f2 44 0f 10 4f 40    	movsd  0x40(%rdi),%xmm9
    2682:	f2 0f 59 d8          	mulsd  %xmm0,%xmm3
    2686:	f2 0f 11 4e 20       	movsd  %xmm1,0x20(%rsi)
    268b:	66 44 0f 28 d6       	movapd %xmm6,%xmm10
    2690:	f2 0f 11 4e 50       	movsd  %xmm1,0x50(%rsi)
    2695:	f2 0f 59 e8          	mulsd  %xmm0,%xmm5
    2699:	f2 0f 58 f4          	addsd  %xmm4,%xmm6
    269d:	66 44 0f 28 c7       	movapd %xmm7,%xmm8
    26a2:	f2 44 0f 5c d4       	subsd  %xmm4,%xmm10
    26a7:	f2 0f 10 67 48       	movsd  0x48(%rdi),%xmm4
    26ac:	f2 44 0f 5c c2       	subsd  %xmm2,%xmm8
    26b1:	f2 0f 11 8e 80 00 00 	movsd  %xmm1,0x80(%rsi)
    26b8:	00 
    26b9:	f2 0f 58 d7          	addsd  %xmm7,%xmm2
    26bd:	f2 0f 11 8e b0 00 00 	movsd  %xmm1,0xb0(%rsi)
    26c4:	00 
    26c5:	66 0f 28 fe          	movapd %xmm6,%xmm7
    26c9:	f2 0f 10 4f 58       	movsd  0x58(%rdi),%xmm1
    26ce:	66 45 0f 28 da       	movapd %xmm10,%xmm11
    26d3:	f2 0f 5c fc          	subsd  %xmm4,%xmm7
    26d7:	f2 44 0f 11 46 18    	movsd  %xmm8,0x18(%rsi)
    26dd:	f2 0f 58 e6          	addsd  %xmm6,%xmm4
    26e1:	f2 44 0f 11 46 48    	movsd  %xmm8,0x48(%rsi)
    26e7:	f2 0f 11 56 78       	movsd  %xmm2,0x78(%rsi)
    26ec:	66 0f 28 f5          	movapd %xmm5,%xmm6
    26f0:	f2 0f 11 96 a8 00 00 	movsd  %xmm2,0xa8(%rsi)
    26f7:	00 
    26f8:	f2 45 0f 5c d9       	subsd  %xmm9,%xmm11
    26fd:	f2 0f 11 7e 70       	movsd  %xmm7,0x70(%rsi)
    2702:	66 0f 28 fb          	movapd %xmm3,%xmm7
    2706:	f2 0f 11 a6 a0 00 00 	movsd  %xmm4,0xa0(%rsi)
    270d:	00 
    270e:	f2 0f 5c f1          	subsd  %xmm1,%xmm6
    2712:	f2 0f 10 67 70       	movsd  0x70(%rdi),%xmm4
    2717:	f2 45 0f 58 ca       	addsd  %xmm10,%xmm9
    271c:	f2 0f 10 57 60       	movsd  0x60(%rdi),%xmm2
    2721:	f2 0f 59 e1          	mulsd  %xmm1,%xmm4
    2725:	f2 0f 58 cd          	addsd  %xmm5,%xmm1
    2729:	f2 44 0f 11 5e 10    	movsd  %xmm11,0x10(%rsi)
    272f:	f2 0f 11 b6 d8 00 00 	movsd  %xmm6,0xd8(%rsi)
    2736:	00 
    2737:	f2 44 0f 11 4e 40    	movsd  %xmm9,0x40(%rsi)
    273d:	f2 0f 11 86 e0 00 00 	movsd  %xmm0,0xe0(%rsi)
    2744:	00 
    2745:	f2 0f 5c fc          	subsd  %xmm4,%xmm7
    2749:	f2 0f 11 b6 08 01 00 	movsd  %xmm6,0x108(%rsi)
    2750:	00 
    2751:	f2 0f 58 dc          	addsd  %xmm4,%xmm3
    2755:	f2 0f 11 86 10 01 00 	movsd  %xmm0,0x110(%rsi)
    275c:	00 
    275d:	66 44 0f 28 c7       	movapd %xmm7,%xmm8
    2762:	66 0f 28 e3          	movapd %xmm3,%xmm4
    2766:	f2 44 0f 5c c2       	subsd  %xmm2,%xmm8
    276b:	f2 0f 58 d7          	addsd  %xmm7,%xmm2
    276f:	f2 44 0f 11 86 d0 00 	movsd  %xmm8,0xd0(%rsi)
    2776:	00 00 
    2778:	f2 0f 11 96 00 01 00 	movsd  %xmm2,0x100(%rsi)
    277f:	00 
    2780:	f2 0f 10 57 68       	movsd  0x68(%rdi),%xmm2
    2785:	f2 0f 11 8e 38 01 00 	movsd  %xmm1,0x138(%rsi)
    278c:	00 
    278d:	f2 0f 5c e2          	subsd  %xmm2,%xmm4
    2791:	f2 0f 11 86 40 01 00 	movsd  %xmm0,0x140(%rsi)
    2798:	00 
    2799:	f2 0f 58 d3          	addsd  %xmm3,%xmm2
    279d:	f2 0f 11 a6 30 01 00 	movsd  %xmm4,0x130(%rsi)
    27a4:	00 
    27a5:	f2 0f 11 96 60 01 00 	movsd  %xmm2,0x160(%rsi)
    27ac:	00 
    27ad:	f2 0f 11 8e 68 01 00 	movsd  %xmm1,0x168(%rsi)
    27b4:	00 
    27b5:	f2 0f 11 86 70 01 00 	movsd  %xmm0,0x170(%rsi)
    27bc:	00 
    27bd:	c3                   	retq   
    27be:	66 90                	xchg   %ax,%ax

00000000000027c0 <_ZNK7vecgeom3cxx17UnplacedTrapezoid6ExtentERNS0_8Vector3DIdEES4_>:
    27c0:	41 54                	push   %r12
    27c2:	49 89 d4             	mov    %rdx,%r12
    27c5:	55                   	push   %rbp
    27c6:	48 89 f5             	mov    %rsi,%rbp
    27c9:	53                   	push   %rbx
    27ca:	48 81 ec 80 01 00 00 	sub    $0x180,%rsp
    27d1:	48 8b 05 00 00 00 00 	mov    0x0(%rip),%rax        # 27d8 <_ZNK7vecgeom3cxx17UnplacedTrapezoid6ExtentERNS0_8Vector3DIdEES4_+0x18>
    27d8:	f2 0f 10 47 20       	movsd  0x20(%rdi),%xmm0
    27dd:	48 c7 44 24 10 00 00 	movq   $0x0,0x10(%rsp)
    27e4:	00 00 
    27e6:	48 89 e3             	mov    %rsp,%rbx
    27e9:	f2 0f 10 0d 00 00 00 	movsd  0x0(%rip),%xmm1        # 27f1 <_ZNK7vecgeom3cxx17UnplacedTrapezoid6ExtentERNS0_8Vector3DIdEES4_+0x31>
    27f0:	00 
    27f1:	48 c7 44 24 18 00 00 	movq   $0x0,0x18(%rsp)
    27f8:	00 00 
    27fa:	48 83 c0 10          	add    $0x10,%rax
    27fe:	48 c7 44 24 20 00 00 	movq   $0x0,0x20(%rsp)
    2805:	00 00 
    2807:	48 c7 44 24 40 00 00 	movq   $0x0,0x40(%rsp)
    280e:	00 00 
    2810:	66 0f 57 c1          	xorpd  %xmm1,%xmm0
    2814:	48 89 04 24          	mov    %rax,(%rsp)
    2818:	48 89 44 24 30       	mov    %rax,0x30(%rsp)
    281d:	48 c7 44 24 48 00 00 	movq   $0x0,0x48(%rsp)
    2824:	00 00 
    2826:	48 c7 44 24 50 00 00 	movq   $0x0,0x50(%rsp)
    282d:	00 00 
    282f:	48 89 44 24 60       	mov    %rax,0x60(%rsp)
    2834:	f2 0f 11 46 20       	movsd  %xmm0,0x20(%rsi)
    2839:	48 89 e6             	mov    %rsp,%rsi
    283c:	48 c7 44 24 70 00 00 	movq   $0x0,0x70(%rsp)
    2843:	00 00 
    2845:	48 c7 44 24 78 00 00 	movq   $0x0,0x78(%rsp)
    284c:	00 00 
    284e:	48 c7 84 24 80 00 00 	movq   $0x0,0x80(%rsp)
    2855:	00 00 00 00 00 
    285a:	f2 0f 10 47 20       	movsd  0x20(%rdi),%xmm0
    285f:	48 89 84 24 90 00 00 	mov    %rax,0x90(%rsp)
    2866:	00 
    2867:	48 c7 84 24 a0 00 00 	movq   $0x0,0xa0(%rsp)
    286e:	00 00 00 00 00 
    2873:	f2 0f 11 42 20       	movsd  %xmm0,0x20(%rdx)
    2878:	48 c7 84 24 a8 00 00 	movq   $0x0,0xa8(%rsp)
    287f:	00 00 00 00 00 
    2884:	48 c7 84 24 b0 00 00 	movq   $0x0,0xb0(%rsp)
    288b:	00 00 00 00 00 
    2890:	48 89 84 24 c0 00 00 	mov    %rax,0xc0(%rsp)
    2897:	00 
    2898:	48 c7 84 24 d0 00 00 	movq   $0x0,0xd0(%rsp)
    289f:	00 00 00 00 00 
    28a4:	48 c7 84 24 d8 00 00 	movq   $0x0,0xd8(%rsp)
    28ab:	00 00 00 00 00 
    28b0:	48 c7 84 24 e0 00 00 	movq   $0x0,0xe0(%rsp)
    28b7:	00 00 00 00 00 
    28bc:	48 89 84 24 f0 00 00 	mov    %rax,0xf0(%rsp)
    28c3:	00 
    28c4:	48 c7 84 24 00 01 00 	movq   $0x0,0x100(%rsp)
    28cb:	00 00 00 00 00 
    28d0:	48 c7 84 24 08 01 00 	movq   $0x0,0x108(%rsp)
    28d7:	00 00 00 00 00 
    28dc:	48 c7 84 24 10 01 00 	movq   $0x0,0x110(%rsp)
    28e3:	00 00 00 00 00 
    28e8:	48 89 84 24 20 01 00 	mov    %rax,0x120(%rsp)
    28ef:	00 
    28f0:	48 c7 84 24 30 01 00 	movq   $0x0,0x130(%rsp)
    28f7:	00 00 00 00 00 
    28fc:	48 c7 84 24 38 01 00 	movq   $0x0,0x138(%rsp)
    2903:	00 00 00 00 00 
    2908:	48 c7 84 24 40 01 00 	movq   $0x0,0x140(%rsp)
    290f:	00 00 00 00 00 
    2914:	48 89 84 24 50 01 00 	mov    %rax,0x150(%rsp)
    291b:	00 
    291c:	48 c7 84 24 60 01 00 	movq   $0x0,0x160(%rsp)
    2923:	00 00 00 00 00 
    2928:	48 c7 84 24 68 01 00 	movq   $0x0,0x168(%rsp)
    292f:	00 00 00 00 00 
    2934:	48 c7 84 24 70 01 00 	movq   $0x0,0x170(%rsp)
    293b:	00 00 00 00 00 
    2940:	e8 00 00 00 00       	callq  2945 <_ZNK7vecgeom3cxx17UnplacedTrapezoid6ExtentERNS0_8Vector3DIdEES4_+0x185>
    2945:	f2 44 0f 10 44 24 40 	movsd  0x40(%rsp),%xmm8
    294c:	48 81 c3 50 01 00 00 	add    $0x150,%rbx
    2953:	f2 0f 10 44 24 10    	movsd  0x10(%rsp),%xmm0
    2959:	66 41 0f 28 c8       	movapd %xmm8,%xmm1
    295e:	f2 0f 10 7c 24 70    	movsd  0x70(%rsp),%xmm7
    2964:	f2 0f 10 b4 24 a0 00 	movsd  0xa0(%rsp),%xmm6
    296b:	00 00 
    296d:	f2 0f 5f c8          	maxsd  %xmm0,%xmm1
    2971:	f2 0f 10 ac 24 d0 00 	movsd  0xd0(%rsp),%xmm5
    2978:	00 00 
    297a:	f2 41 0f 5d c0       	minsd  %xmm8,%xmm0
    297f:	f2 0f 10 a4 24 00 01 	movsd  0x100(%rsp),%xmm4
    2986:	00 00 
    2988:	f2 0f 10 9c 24 30 01 	movsd  0x130(%rsp),%xmm3
    298f:	00 00 
    2991:	f2 0f 10 94 24 60 01 	movsd  0x160(%rsp),%xmm2
    2998:	00 00 
    299a:	f2 0f 5f cf          	maxsd  %xmm7,%xmm1
    299e:	f2 44 0f 10 44 24 48 	movsd  0x48(%rsp),%xmm8
    29a5:	f2 0f 5d c7          	minsd  %xmm7,%xmm0
    29a9:	f2 0f 10 7c 24 78    	movsd  0x78(%rsp),%xmm7
    29af:	f2 0f 5f ce          	maxsd  %xmm6,%xmm1
    29b3:	f2 0f 5d c6          	minsd  %xmm6,%xmm0
    29b7:	f2 0f 10 b4 24 a8 00 	movsd  0xa8(%rsp),%xmm6
    29be:	00 00 
    29c0:	f2 0f 5f cd          	maxsd  %xmm5,%xmm1
    29c4:	f2 0f 5d c5          	minsd  %xmm5,%xmm0
    29c8:	f2 0f 10 ac 24 d8 00 	movsd  0xd8(%rsp),%xmm5
    29cf:	00 00 
    29d1:	f2 0f 5f cc          	maxsd  %xmm4,%xmm1
    29d5:	f2 0f 5d c4          	minsd  %xmm4,%xmm0
    29d9:	f2 0f 10 a4 24 08 01 	movsd  0x108(%rsp),%xmm4
    29e0:	00 00 
    29e2:	f2 0f 5f cb          	maxsd  %xmm3,%xmm1
    29e6:	f2 0f 5d c3          	minsd  %xmm3,%xmm0
    29ea:	f2 0f 10 9c 24 38 01 	movsd  0x138(%rsp),%xmm3
    29f1:	00 00 
    29f3:	f2 0f 5f ca          	maxsd  %xmm2,%xmm1
    29f7:	f2 0f 5d c2          	minsd  %xmm2,%xmm0
    29fb:	f2 0f 10 94 24 68 01 	movsd  0x168(%rsp),%xmm2
    2a02:	00 00 
    2a04:	f2 41 0f 11 4c 24 10 	movsd  %xmm1,0x10(%r12)
    2a0b:	66 41 0f 28 c8       	movapd %xmm8,%xmm1
    2a10:	f2 0f 11 45 10       	movsd  %xmm0,0x10(%rbp)
    2a15:	f2 0f 10 44 24 18    	movsd  0x18(%rsp),%xmm0
    2a1b:	f2 0f 5f c8          	maxsd  %xmm0,%xmm1
    2a1f:	f2 41 0f 5d c0       	minsd  %xmm8,%xmm0
    2a24:	f2 0f 5f cf          	maxsd  %xmm7,%xmm1
    2a28:	f2 0f 5d c7          	minsd  %xmm7,%xmm0
    2a2c:	f2 0f 5f ce          	maxsd  %xmm6,%xmm1
    2a30:	f2 0f 5d c6          	minsd  %xmm6,%xmm0
    2a34:	f2 0f 5f cd          	maxsd  %xmm5,%xmm1
    2a38:	f2 0f 5d c5          	minsd  %xmm5,%xmm0
    2a3c:	f2 0f 5f cc          	maxsd  %xmm4,%xmm1
    2a40:	f2 0f 5d c4          	minsd  %xmm4,%xmm0
    2a44:	f2 0f 5f cb          	maxsd  %xmm3,%xmm1
    2a48:	f2 0f 5d c3          	minsd  %xmm3,%xmm0
    2a4c:	f2 0f 5f ca          	maxsd  %xmm2,%xmm1
    2a50:	f2 0f 5d c2          	minsd  %xmm2,%xmm0
    2a54:	f2 41 0f 11 4c 24 18 	movsd  %xmm1,0x18(%r12)
    2a5b:	f2 0f 11 45 18       	movsd  %xmm0,0x18(%rbp)
    2a60:	48 8d 6c 24 d0       	lea    -0x30(%rsp),%rbp
    2a65:	0f 1f 00             	nopl   (%rax)
    2a68:	48 8b 03             	mov    (%rbx),%rax
    2a6b:	48 89 df             	mov    %rbx,%rdi
    2a6e:	48 83 eb 30          	sub    $0x30,%rbx
    2a72:	ff 10                	callq  *(%rax)
    2a74:	48 39 eb             	cmp    %rbp,%rbx
    2a77:	75 ef                	jne    2a68 <_ZNK7vecgeom3cxx17UnplacedTrapezoid6ExtentERNS0_8Vector3DIdEES4_+0x2a8>
    2a79:	48 81 c4 80 01 00 00 	add    $0x180,%rsp
    2a80:	5b                   	pop    %rbx
    2a81:	5d                   	pop    %rbp
    2a82:	41 5c                	pop    %r12
    2a84:	c3                   	retq   
    2a85:	48 8d 6c 24 d0       	lea    -0x30(%rsp),%rbp
    2a8a:	49 89 c4             	mov    %rax,%r12
    2a8d:	48 81 c3 50 01 00 00 	add    $0x150,%rbx
    2a94:	48 8b 03             	mov    (%rbx),%rax
    2a97:	48 89 df             	mov    %rbx,%rdi
    2a9a:	48 83 eb 30          	sub    $0x30,%rbx
    2a9e:	ff 10                	callq  *(%rax)
    2aa0:	48 39 eb             	cmp    %rbp,%rbx
    2aa3:	75 ef                	jne    2a94 <_ZNK7vecgeom3cxx17UnplacedTrapezoid6ExtentERNS0_8Vector3DIdEES4_+0x2d4>
    2aa5:	4c 89 e7             	mov    %r12,%rdi
    2aa8:	e8 00 00 00 00       	callq  2aad <_ZNK7vecgeom3cxx17UnplacedTrapezoid6ExtentERNS0_8Vector3DIdEES4_+0x2ed>
    2aad:	90                   	nop
    2aae:	66 90                	xchg   %ax,%ax

0000000000002ab0 <_ZN7vecgeom3cxx17UnplacedTrapezoid10MakePlanesEv>:
    2ab0:	41 54                	push   %r12
    2ab2:	55                   	push   %rbp
    2ab3:	48 89 fd             	mov    %rdi,%rbp
    2ab6:	53                   	push   %rbx
    2ab7:	48 81 ec 80 01 00 00 	sub    $0x180,%rsp
    2abe:	48 8b 05 00 00 00 00 	mov    0x0(%rip),%rax        # 2ac5 <_ZN7vecgeom3cxx17UnplacedTrapezoid10MakePlanesEv+0x15>
    2ac5:	48 89 e6             	mov    %rsp,%rsi
    2ac8:	48 c7 44 24 10 00 00 	movq   $0x0,0x10(%rsp)
    2acf:	00 00 
    2ad1:	48 c7 44 24 18 00 00 	movq   $0x0,0x18(%rsp)
    2ad8:	00 00 
    2ada:	48 c7 44 24 20 00 00 	movq   $0x0,0x20(%rsp)
    2ae1:	00 00 
    2ae3:	48 c7 44 24 40 00 00 	movq   $0x0,0x40(%rsp)
    2aea:	00 00 
    2aec:	48 89 e3             	mov    %rsp,%rbx
    2aef:	48 83 c0 10          	add    $0x10,%rax
    2af3:	48 c7 44 24 48 00 00 	movq   $0x0,0x48(%rsp)
    2afa:	00 00 
    2afc:	48 c7 44 24 50 00 00 	movq   $0x0,0x50(%rsp)
    2b03:	00 00 
    2b05:	48 89 04 24          	mov    %rax,(%rsp)
    2b09:	48 89 44 24 30       	mov    %rax,0x30(%rsp)
    2b0e:	48 89 44 24 60       	mov    %rax,0x60(%rsp)
    2b13:	48 c7 44 24 70 00 00 	movq   $0x0,0x70(%rsp)
    2b1a:	00 00 
    2b1c:	48 c7 44 24 78 00 00 	movq   $0x0,0x78(%rsp)
    2b23:	00 00 
    2b25:	48 c7 84 24 80 00 00 	movq   $0x0,0x80(%rsp)
    2b2c:	00 00 00 00 00 
    2b31:	48 89 84 24 90 00 00 	mov    %rax,0x90(%rsp)
    2b38:	00 
    2b39:	48 c7 84 24 a0 00 00 	movq   $0x0,0xa0(%rsp)
    2b40:	00 00 00 00 00 
    2b45:	48 c7 84 24 a8 00 00 	movq   $0x0,0xa8(%rsp)
    2b4c:	00 00 00 00 00 
    2b51:	48 c7 84 24 b0 00 00 	movq   $0x0,0xb0(%rsp)
    2b58:	00 00 00 00 00 
    2b5d:	48 89 84 24 c0 00 00 	mov    %rax,0xc0(%rsp)
    2b64:	00 
    2b65:	48 c7 84 24 d0 00 00 	movq   $0x0,0xd0(%rsp)
    2b6c:	00 00 00 00 00 
    2b71:	48 c7 84 24 d8 00 00 	movq   $0x0,0xd8(%rsp)
    2b78:	00 00 00 00 00 
    2b7d:	48 c7 84 24 e0 00 00 	movq   $0x0,0xe0(%rsp)
    2b84:	00 00 00 00 00 
    2b89:	48 89 84 24 f0 00 00 	mov    %rax,0xf0(%rsp)
    2b90:	00 
    2b91:	48 c7 84 24 00 01 00 	movq   $0x0,0x100(%rsp)
    2b98:	00 00 00 00 00 
    2b9d:	48 c7 84 24 08 01 00 	movq   $0x0,0x108(%rsp)
    2ba4:	00 00 00 00 00 
    2ba9:	48 c7 84 24 10 01 00 	movq   $0x0,0x110(%rsp)
    2bb0:	00 00 00 00 00 
    2bb5:	48 89 84 24 20 01 00 	mov    %rax,0x120(%rsp)
    2bbc:	00 
    2bbd:	48 c7 84 24 30 01 00 	movq   $0x0,0x130(%rsp)
    2bc4:	00 00 00 00 00 
    2bc9:	48 c7 84 24 38 01 00 	movq   $0x0,0x138(%rsp)
    2bd0:	00 00 00 00 00 
    2bd5:	48 c7 84 24 40 01 00 	movq   $0x0,0x140(%rsp)
    2bdc:	00 00 00 00 00 
    2be1:	48 89 84 24 50 01 00 	mov    %rax,0x150(%rsp)
    2be8:	00 
    2be9:	48 c7 84 24 60 01 00 	movq   $0x0,0x160(%rsp)
    2bf0:	00 00 00 00 00 
    2bf5:	48 c7 84 24 68 01 00 	movq   $0x0,0x168(%rsp)
    2bfc:	00 00 00 00 00 
    2c01:	48 c7 84 24 70 01 00 	movq   $0x0,0x170(%rsp)
    2c08:	00 00 00 00 00 
    2c0d:	e8 00 00 00 00       	callq  2c12 <_ZN7vecgeom3cxx17UnplacedTrapezoid10MakePlanesEv+0x162>
    2c12:	48 89 e6             	mov    %rsp,%rsi
    2c15:	48 89 ef             	mov    %rbp,%rdi
    2c18:	e8 00 00 00 00       	callq  2c1d <_ZN7vecgeom3cxx17UnplacedTrapezoid10MakePlanesEv+0x16d>
    2c1d:	48 8d 6c 24 d0       	lea    -0x30(%rsp),%rbp
    2c22:	41 89 c4             	mov    %eax,%r12d
    2c25:	48 81 c3 50 01 00 00 	add    $0x150,%rbx
    2c2c:	0f 1f 40 00          	nopl   0x0(%rax)
    2c30:	48 8b 13             	mov    (%rbx),%rdx
    2c33:	48 89 df             	mov    %rbx,%rdi
    2c36:	48 83 eb 30          	sub    $0x30,%rbx
    2c3a:	ff 12                	callq  *(%rdx)
    2c3c:	48 39 eb             	cmp    %rbp,%rbx
    2c3f:	75 ef                	jne    2c30 <_ZN7vecgeom3cxx17UnplacedTrapezoid10MakePlanesEv+0x180>
    2c41:	48 81 c4 80 01 00 00 	add    $0x180,%rsp
    2c48:	44 89 e0             	mov    %r12d,%eax
    2c4b:	5b                   	pop    %rbx
    2c4c:	5d                   	pop    %rbp
    2c4d:	41 5c                	pop    %r12
    2c4f:	c3                   	retq   
    2c50:	48 8d 6c 24 d0       	lea    -0x30(%rsp),%rbp
    2c55:	49 89 c4             	mov    %rax,%r12
    2c58:	48 81 c3 50 01 00 00 	add    $0x150,%rbx
    2c5f:	48 8b 03             	mov    (%rbx),%rax
    2c62:	48 89 df             	mov    %rbx,%rdi
    2c65:	48 83 eb 30          	sub    $0x30,%rbx
    2c69:	ff 10                	callq  *(%rax)
    2c6b:	48 39 eb             	cmp    %rbp,%rbx
    2c6e:	75 ef                	jne    2c5f <_ZN7vecgeom3cxx17UnplacedTrapezoid10MakePlanesEv+0x1af>
    2c70:	4c 89 e7             	mov    %r12,%rdi
    2c73:	e8 00 00 00 00       	callq  2c78 <_ZN7vecgeom3cxx17UnplacedTrapezoid10MakePlanesEv+0x1c8>
    2c78:	0f 1f 84 00 00 00 00 	nopl   0x0(%rax,%rax,1)
    2c7f:	00 

0000000000002c80 <_ZN7vecgeom3cxx17UnplacedTrapezoidC1Eddddddddddd>:
    2c80:	53                   	push   %rbx
    2c81:	66 44 0f 28 c0       	movapd %xmm0,%xmm8
    2c86:	48 89 fb             	mov    %rdi,%rbx
    2c89:	48 83 ec 50          	sub    $0x50,%rsp
    2c8d:	48 8b 05 00 00 00 00 	mov    0x0(%rip),%rax        # 2c94 <_ZN7vecgeom3cxx17UnplacedTrapezoidC1Eddddddddddd+0x14>
    2c94:	f2 0f 11 47 20       	movsd  %xmm0,0x20(%rdi)
    2c99:	f2 0f 11 44 24 28    	movsd  %xmm0,0x28(%rsp)
    2c9f:	f2 0f 10 44 24 70    	movsd  0x70(%rsp),%xmm0
    2ca5:	48 8d 50 10          	lea    0x10(%rax),%rdx
    2ca9:	48 83 c0 68          	add    $0x68,%rax
    2cad:	f2 0f 11 4f 28       	movsd  %xmm1,0x28(%rdi)
    2cb2:	48 89 47 10          	mov    %rax,0x10(%rdi)
    2cb6:	f2 0f 11 57 30       	movsd  %xmm2,0x30(%rdi)
    2cbb:	48 89 17             	mov    %rdx,(%rdi)
    2cbe:	f2 0f 11 5b 38       	movsd  %xmm3,0x38(%rbx)
    2cc3:	f2 0f 11 77 50       	movsd  %xmm6,0x50(%rdi)
    2cc8:	f2 0f 11 67 40       	movsd  %xmm4,0x40(%rdi)
    2ccd:	f2 0f 11 6f 48       	movsd  %xmm5,0x48(%rdi)
    2cd2:	f2 0f 11 7b 58       	movsd  %xmm7,0x58(%rbx)
    2cd7:	48 c7 87 88 00 00 00 	movq   $0x0,0x88(%rdi)
    2cde:	00 00 00 00 
    2ce2:	f2 0f 11 47 70       	movsd  %xmm0,0x70(%rdi)
    2ce7:	66 0f 57 c0          	xorpd  %xmm0,%xmm0
    2ceb:	f2 0f 11 7c 24 10    	movsd  %xmm7,0x10(%rsp)
    2cf1:	48 c7 87 90 00 00 00 	movq   $0x0,0x90(%rdi)
    2cf8:	00 00 00 00 
    2cfc:	f2 0f 10 74 24 60    	movsd  0x60(%rsp),%xmm6
    2d02:	66 41 0f 2f c0       	comisd %xmm8,%xmm0
    2d07:	f2 0f 10 7c 24 68    	movsd  0x68(%rsp),%xmm7
    2d0d:	48 c7 87 98 00 00 00 	movq   $0x0,0x98(%rdi)
    2d14:	00 00 00 00 
    2d18:	f2 0f 11 4c 24 18    	movsd  %xmm1,0x18(%rsp)
    2d1e:	48 c7 87 a0 00 00 00 	movq   $0x0,0xa0(%rdi)
    2d25:	00 00 00 00 
    2d29:	48 c7 87 a8 00 00 00 	movq   $0x0,0xa8(%rdi)
    2d30:	00 00 00 00 
    2d34:	f2 0f 11 54 24 20    	movsd  %xmm2,0x20(%rsp)
    2d3a:	f2 0f 11 5c 24 30    	movsd  %xmm3,0x30(%rsp)
    2d40:	f2 0f 11 64 24 38    	movsd  %xmm4,0x38(%rsp)
    2d46:	f2 0f 11 6c 24 08    	movsd  %xmm5,0x8(%rsp)
    2d4c:	f2 0f 11 77 60       	movsd  %xmm6,0x60(%rdi)
    2d51:	f2 0f 11 7f 68       	movsd  %xmm7,0x68(%rdi)
    2d56:	f2 0f 11 47 78       	movsd  %xmm0,0x78(%rdi)
    2d5b:	f2 0f 11 87 80 00 00 	movsd  %xmm0,0x80(%rdi)
    2d62:	00 
    2d63:	48 c7 87 b0 00 00 00 	movq   $0x0,0xb0(%rdi)
    2d6a:	00 00 00 00 
    2d6e:	48 c7 87 b8 00 00 00 	movq   $0x0,0xb8(%rdi)
    2d75:	00 00 00 00 
    2d79:	48 c7 87 c0 00 00 00 	movq   $0x0,0xc0(%rdi)
    2d80:	00 00 00 00 
    2d84:	48 c7 87 c8 00 00 00 	movq   $0x0,0xc8(%rdi)
    2d8b:	00 00 00 00 
    2d8f:	48 c7 87 d0 00 00 00 	movq   $0x0,0xd0(%rdi)
    2d96:	00 00 00 00 
    2d9a:	48 c7 87 d8 00 00 00 	movq   $0x0,0xd8(%rdi)
    2da1:	00 00 00 00 
    2da5:	48 c7 87 e0 00 00 00 	movq   $0x0,0xe0(%rdi)
    2dac:	00 00 00 00 
    2db0:	48 c7 87 e8 00 00 00 	movq   $0x0,0xe8(%rdi)
    2db7:	00 00 00 00 
    2dbb:	48 c7 87 f0 00 00 00 	movq   $0x0,0xf0(%rdi)
    2dc2:	00 00 00 00 
    2dc6:	48 c7 87 f8 00 00 00 	movq   $0x0,0xf8(%rdi)
    2dcd:	00 00 00 00 
    2dd1:	48 c7 87 00 01 00 00 	movq   $0x0,0x100(%rdi)
    2dd8:	00 00 00 00 
    2ddc:	73 10                	jae    2dee <_ZN7vecgeom3cxx17UnplacedTrapezoidC1Eddddddddddd+0x16e>
    2dde:	66 0f 2f c3          	comisd %xmm3,%xmm0
    2de2:	73 0a                	jae    2dee <_ZN7vecgeom3cxx17UnplacedTrapezoidC1Eddddddddddd+0x16e>
    2de4:	66 0f 2f c4          	comisd %xmm4,%xmm0
    2de8:	0f 82 d2 00 00 00    	jb     2ec0 <_ZN7vecgeom3cxx17UnplacedTrapezoidC1Eddddddddddd+0x240>
    2dee:	48 8d 3d 00 00 00 00 	lea    0x0(%rip),%rdi        # 2df5 <_ZN7vecgeom3cxx17UnplacedTrapezoidC1Eddddddddddd+0x175>
    2df5:	e8 00 00 00 00       	callq  2dfa <_ZN7vecgeom3cxx17UnplacedTrapezoidC1Eddddddddddd+0x17a>
    2dfa:	f2 0f 10 5c 24 68    	movsd  0x68(%rsp),%xmm3
    2e00:	48 8d 3d 00 00 00 00 	lea    0x0(%rip),%rdi        # 2e07 <_ZN7vecgeom3cxx17UnplacedTrapezoidC1Eddddddddddd+0x187>
    2e07:	f2 0f 10 54 24 60    	movsd  0x60(%rsp),%xmm2
    2e0d:	b8 04 00 00 00       	mov    $0x4,%eax
    2e12:	f2 0f 10 4c 24 08    	movsd  0x8(%rsp),%xmm1
    2e18:	f2 0f 10 44 24 38    	movsd  0x38(%rsp),%xmm0
    2e1e:	e8 00 00 00 00       	callq  2e23 <_ZN7vecgeom3cxx17UnplacedTrapezoidC1Eddddddddddd+0x1a3>
    2e23:	f2 0f 10 4c 24 10    	movsd  0x10(%rsp),%xmm1
    2e29:	48 8d 3d 00 00 00 00 	lea    0x0(%rip),%rdi        # 2e30 <_ZN7vecgeom3cxx17UnplacedTrapezoidC1Eddddddddddd+0x1b0>
    2e30:	f2 0f 10 44 24 30    	movsd  0x30(%rsp),%xmm0
    2e36:	b8 02 00 00 00       	mov    $0x2,%eax
    2e3b:	e8 00 00 00 00       	callq  2e40 <_ZN7vecgeom3cxx17UnplacedTrapezoidC1Eddddddddddd+0x1c0>
    2e40:	f2 0f 10 44 24 28    	movsd  0x28(%rsp),%xmm0
    2e46:	48 8d 3d 00 00 00 00 	lea    0x0(%rip),%rdi        # 2e4d <_ZN7vecgeom3cxx17UnplacedTrapezoidC1Eddddddddddd+0x1cd>
    2e4d:	b8 01 00 00 00       	mov    $0x1,%eax
    2e52:	e8 00 00 00 00       	callq  2e57 <_ZN7vecgeom3cxx17UnplacedTrapezoidC1Eddddddddddd+0x1d7>
    2e57:	48 8d 7c 24 48       	lea    0x48(%rsp),%rdi
    2e5c:	48 8d 74 24 40       	lea    0x40(%rsp),%rsi
    2e61:	f2 0f 10 44 24 20    	movsd  0x20(%rsp),%xmm0
    2e67:	e8 00 00 00 00       	callq  2e6c <_ZN7vecgeom3cxx17UnplacedTrapezoidC1Eddddddddddd+0x1ec>
    2e6c:	f2 0f 10 4c 24 48    	movsd  0x48(%rsp),%xmm1
    2e72:	f2 0f 10 5c 24 40    	movsd  0x40(%rsp),%xmm3
    2e78:	f2 0f 10 44 24 18    	movsd  0x18(%rsp),%xmm0
    2e7e:	f2 0f 11 4c 24 10    	movsd  %xmm1,0x10(%rsp)
    2e84:	f2 0f 11 5c 24 08    	movsd  %xmm3,0x8(%rsp)
    2e8a:	e8 00 00 00 00       	callq  2e8f <_ZN7vecgeom3cxx17UnplacedTrapezoidC1Eddddddddddd+0x20f>
    2e8f:	f2 0f 10 4c 24 10    	movsd  0x10(%rsp),%xmm1
    2e95:	48 89 df             	mov    %rbx,%rdi
    2e98:	f2 0f 59 c8          	mulsd  %xmm0,%xmm1
    2e9c:	f2 0f 59 44 24 08    	mulsd  0x8(%rsp),%xmm0
    2ea2:	f2 0f 11 8b 80 00 00 	movsd  %xmm1,0x80(%rbx)
    2ea9:	00 
    2eaa:	f2 0f 11 43 78       	movsd  %xmm0,0x78(%rbx)
    2eaf:	e8 00 00 00 00       	callq  2eb4 <_ZN7vecgeom3cxx17UnplacedTrapezoidC1Eddddddddddd+0x234>
    2eb4:	48 83 c4 50          	add    $0x50,%rsp
    2eb8:	5b                   	pop    %rbx
    2eb9:	c3                   	retq   
    2eba:	66 0f 1f 44 00 00    	nopw   0x0(%rax,%rax,1)
    2ec0:	66 0f 2f c5          	comisd %xmm5,%xmm0
    2ec4:	0f 83 24 ff ff ff    	jae    2dee <_ZN7vecgeom3cxx17UnplacedTrapezoidC1Eddddddddddd+0x16e>
    2eca:	66 0f 2f 44 24 10    	comisd 0x10(%rsp),%xmm0
    2ed0:	0f 83 18 ff ff ff    	jae    2dee <_ZN7vecgeom3cxx17UnplacedTrapezoidC1Eddddddddddd+0x16e>
    2ed6:	66 0f 2f c6          	comisd %xmm6,%xmm0
    2eda:	0f 83 0e ff ff ff    	jae    2dee <_ZN7vecgeom3cxx17UnplacedTrapezoidC1Eddddddddddd+0x16e>
    2ee0:	66 0f 2f c7          	comisd %xmm7,%xmm0
    2ee4:	0f 82 6d ff ff ff    	jb     2e57 <_ZN7vecgeom3cxx17UnplacedTrapezoidC1Eddddddddddd+0x1d7>
    2eea:	e9 ff fe ff ff       	jmpq   2dee <_ZN7vecgeom3cxx17UnplacedTrapezoidC1Eddddddddddd+0x16e>
    2eef:	48 8b 15 00 00 00 00 	mov    0x0(%rip),%rdx        # 2ef6 <_ZN7vecgeom3cxx17UnplacedTrapezoidC1Eddddddddddd+0x276>
    2ef6:	48 89 c7             	mov    %rax,%rdi
    2ef9:	48 83 c2 10          	add    $0x10,%rdx
    2efd:	48 89 53 10          	mov    %rdx,0x10(%rbx)
    2f01:	48 8b 15 00 00 00 00 	mov    0x0(%rip),%rdx        # 2f08 <_ZN7vecgeom3cxx17UnplacedTrapezoidC1Eddddddddddd+0x288>
    2f08:	48 83 c2 10          	add    $0x10,%rdx
    2f0c:	48 89 13             	mov    %rdx,(%rbx)
    2f0f:	e8 00 00 00 00       	callq  2f14 <_ZN7vecgeom3cxx17UnplacedTrapezoidC1Eddddddddddd+0x294>
    2f14:	66 66 66 2e 0f 1f 84 	data32 data32 nopw %cs:0x0(%rax,%rax,1)
    2f1b:	00 00 00 00 00 

0000000000002f20 <_ZN7vecgeom3cxx17UnplacedTrapezoidC1Eddd>:
    2f20:	53                   	push   %rbx
    2f21:	66 0f 28 d8          	movapd %xmm0,%xmm3
    2f25:	48 89 fb             	mov    %rdi,%rbx
    2f28:	48 83 ec 20          	sub    $0x20,%rsp
    2f2c:	48 8b 05 00 00 00 00 	mov    0x0(%rip),%rax        # 2f33 <_ZN7vecgeom3cxx17UnplacedTrapezoidC1Eddd+0x13>
    2f33:	f2 0f 11 44 24 08    	movsd  %xmm0,0x8(%rsp)
    2f39:	66 0f 57 c0          	xorpd  %xmm0,%xmm0
    2f3d:	f2 0f 11 4c 24 10    	movsd  %xmm1,0x10(%rsp)
    2f43:	48 8d 50 10          	lea    0x10(%rax),%rdx
    2f47:	48 83 c0 68          	add    $0x68,%rax
    2f4b:	f2 0f 11 54 24 18    	movsd  %xmm2,0x18(%rsp)
    2f51:	66 0f 2f c3          	comisd %xmm3,%xmm0
    2f55:	48 89 17             	mov    %rdx,(%rdi)
    2f58:	48 89 47 10          	mov    %rax,0x10(%rdi)
    2f5c:	f2 0f 11 53 20       	movsd  %xmm2,0x20(%rbx)
    2f61:	f2 0f 11 47 28       	movsd  %xmm0,0x28(%rdi)
    2f66:	f2 0f 11 47 30       	movsd  %xmm0,0x30(%rdi)
    2f6b:	f2 0f 11 4b 38       	movsd  %xmm1,0x38(%rbx)
    2f70:	f2 0f 11 5f 40       	movsd  %xmm3,0x40(%rdi)
    2f75:	f2 0f 11 5f 48       	movsd  %xmm3,0x48(%rdi)
    2f7a:	f2 0f 11 47 50       	movsd  %xmm0,0x50(%rdi)
    2f7f:	f2 0f 11 4b 58       	movsd  %xmm1,0x58(%rbx)
    2f84:	48 c7 87 88 00 00 00 	movq   $0x0,0x88(%rdi)
    2f8b:	00 00 00 00 
    2f8f:	f2 0f 11 5f 60       	movsd  %xmm3,0x60(%rdi)
    2f94:	48 c7 87 90 00 00 00 	movq   $0x0,0x90(%rdi)
    2f9b:	00 00 00 00 
    2f9f:	f2 0f 11 5f 68       	movsd  %xmm3,0x68(%rdi)
    2fa4:	48 c7 87 98 00 00 00 	movq   $0x0,0x98(%rdi)
    2fab:	00 00 00 00 
    2faf:	f2 0f 11 47 70       	movsd  %xmm0,0x70(%rdi)
    2fb4:	48 c7 87 a0 00 00 00 	movq   $0x0,0xa0(%rdi)
    2fbb:	00 00 00 00 
    2fbf:	f2 0f 11 47 78       	movsd  %xmm0,0x78(%rdi)
    2fc4:	48 c7 87 a8 00 00 00 	movq   $0x0,0xa8(%rdi)
    2fcb:	00 00 00 00 
    2fcf:	f2 0f 11 87 80 00 00 	movsd  %xmm0,0x80(%rdi)
    2fd6:	00 
    2fd7:	48 c7 87 b0 00 00 00 	movq   $0x0,0xb0(%rdi)
    2fde:	00 00 00 00 
    2fe2:	48 c7 87 b8 00 00 00 	movq   $0x0,0xb8(%rdi)
    2fe9:	00 00 00 00 
    2fed:	48 c7 87 c0 00 00 00 	movq   $0x0,0xc0(%rdi)
    2ff4:	00 00 00 00 
    2ff8:	48 c7 87 c8 00 00 00 	movq   $0x0,0xc8(%rdi)
    2fff:	00 00 00 00 
    3003:	48 c7 87 d0 00 00 00 	movq   $0x0,0xd0(%rdi)
    300a:	00 00 00 00 
    300e:	48 c7 87 d8 00 00 00 	movq   $0x0,0xd8(%rdi)
    3015:	00 00 00 00 
    3019:	48 c7 87 e0 00 00 00 	movq   $0x0,0xe0(%rdi)
    3020:	00 00 00 00 
    3024:	48 c7 87 e8 00 00 00 	movq   $0x0,0xe8(%rdi)
    302b:	00 00 00 00 
    302f:	48 c7 87 f0 00 00 00 	movq   $0x0,0xf0(%rdi)
    3036:	00 00 00 00 
    303a:	48 c7 87 f8 00 00 00 	movq   $0x0,0xf8(%rdi)
    3041:	00 00 00 00 
    3045:	48 c7 87 00 01 00 00 	movq   $0x0,0x100(%rdi)
    304c:	00 00 00 00 
    3050:	73 1e                	jae    3070 <_ZN7vecgeom3cxx17UnplacedTrapezoidC1Eddd+0x150>
    3052:	66 0f 2f c1          	comisd %xmm1,%xmm0
    3056:	73 18                	jae    3070 <_ZN7vecgeom3cxx17UnplacedTrapezoidC1Eddd+0x150>
    3058:	66 0f 2f c2          	comisd %xmm2,%xmm0
    305c:	73 12                	jae    3070 <_ZN7vecgeom3cxx17UnplacedTrapezoidC1Eddd+0x150>
    305e:	48 89 df             	mov    %rbx,%rdi
    3061:	e8 00 00 00 00       	callq  3066 <_ZN7vecgeom3cxx17UnplacedTrapezoidC1Eddd+0x146>
    3066:	48 83 c4 20          	add    $0x20,%rsp
    306a:	5b                   	pop    %rbx
    306b:	c3                   	retq   
    306c:	0f 1f 40 00          	nopl   0x0(%rax)
    3070:	48 8d 3d 00 00 00 00 	lea    0x0(%rip),%rdi        # 3077 <_ZN7vecgeom3cxx17UnplacedTrapezoidC1Eddd+0x157>
    3077:	e8 00 00 00 00       	callq  307c <_ZN7vecgeom3cxx17UnplacedTrapezoidC1Eddd+0x15c>
    307c:	f2 0f 10 54 24 18    	movsd  0x18(%rsp),%xmm2
    3082:	48 8d 3d 00 00 00 00 	lea    0x0(%rip),%rdi        # 3089 <_ZN7vecgeom3cxx17UnplacedTrapezoidC1Eddd+0x169>
    3089:	f2 0f 10 4c 24 10    	movsd  0x10(%rsp),%xmm1
    308f:	b8 03 00 00 00       	mov    $0x3,%eax
    3094:	f2 0f 10 44 24 08    	movsd  0x8(%rsp),%xmm0
    309a:	e8 00 00 00 00       	callq  309f <_ZN7vecgeom3cxx17UnplacedTrapezoidC1Eddd+0x17f>
    309f:	eb bd                	jmp    305e <_ZN7vecgeom3cxx17UnplacedTrapezoidC1Eddd+0x13e>
    30a1:	48 8b 15 00 00 00 00 	mov    0x0(%rip),%rdx        # 30a8 <_ZN7vecgeom3cxx17UnplacedTrapezoidC1Eddd+0x188>
    30a8:	48 89 c7             	mov    %rax,%rdi
    30ab:	48 83 c2 10          	add    $0x10,%rdx
    30af:	48 89 53 10          	mov    %rdx,0x10(%rbx)
    30b3:	48 8b 15 00 00 00 00 	mov    0x0(%rip),%rdx        # 30ba <_ZN7vecgeom3cxx17UnplacedTrapezoidC1Eddd+0x19a>
    30ba:	48 83 c2 10          	add    $0x10,%rdx
    30be:	48 89 13             	mov    %rdx,(%rbx)
    30c1:	e8 00 00 00 00       	callq  30c6 <_ZN7vecgeom3cxx17UnplacedTrapezoidC1Eddd+0x1a6>
    30c6:	66 2e 0f 1f 84 00 00 	nopw   %cs:0x0(%rax,%rax,1)
    30cd:	00 00 00 

00000000000030d0 <_ZN7vecgeom3cxx17UnplacedTrapezoidC1EPKd>:
    30d0:	55                   	push   %rbp
    30d1:	48 89 f5             	mov    %rsi,%rbp
    30d4:	53                   	push   %rbx
    30d5:	48 89 fb             	mov    %rdi,%rbx
    30d8:	48 83 ec 18          	sub    $0x18,%rsp
    30dc:	48 8b 05 00 00 00 00 	mov    0x0(%rip),%rax        # 30e3 <_ZN7vecgeom3cxx17UnplacedTrapezoidC1EPKd+0x13>
    30e3:	f2 0f 10 06          	movsd  (%rsi),%xmm0
    30e7:	f2 0f 11 47 20       	movsd  %xmm0,0x20(%rdi)
    30ec:	48 8d 50 10          	lea    0x10(%rax),%rdx
    30f0:	48 83 c0 68          	add    $0x68,%rax
    30f4:	48 89 47 10          	mov    %rax,0x10(%rdi)
    30f8:	f2 0f 10 46 08       	movsd  0x8(%rsi),%xmm0
    30fd:	48 89 17             	mov    %rdx,(%rdi)
    3100:	f2 0f 11 47 28       	movsd  %xmm0,0x28(%rdi)
    3105:	f2 0f 10 46 10       	movsd  0x10(%rsi),%xmm0
    310a:	f2 0f 11 47 30       	movsd  %xmm0,0x30(%rdi)
    310f:	f2 0f 10 46 18       	movsd  0x18(%rsi),%xmm0
    3114:	f2 0f 11 47 38       	movsd  %xmm0,0x38(%rdi)
    3119:	f2 0f 10 46 20       	movsd  0x20(%rsi),%xmm0
    311e:	f2 0f 11 47 40       	movsd  %xmm0,0x40(%rdi)
    3123:	f2 0f 10 46 28       	movsd  0x28(%rsi),%xmm0
    3128:	f2 0f 11 47 48       	movsd  %xmm0,0x48(%rdi)
    312d:	f2 0f 10 46 30       	movsd  0x30(%rsi),%xmm0
    3132:	f2 0f 11 47 50       	movsd  %xmm0,0x50(%rdi)
    3137:	f2 0f 10 46 38       	movsd  0x38(%rsi),%xmm0
    313c:	f2 0f 11 47 58       	movsd  %xmm0,0x58(%rdi)
    3141:	f2 0f 10 46 40       	movsd  0x40(%rsi),%xmm0
    3146:	f2 0f 11 47 60       	movsd  %xmm0,0x60(%rdi)
    314b:	f2 0f 10 46 48       	movsd  0x48(%rsi),%xmm0
    3150:	f2 0f 11 47 68       	movsd  %xmm0,0x68(%rdi)
    3155:	f2 0f 10 46 50       	movsd  0x50(%rsi),%xmm0
    315a:	48 c7 47 78 00 00 00 	movq   $0x0,0x78(%rdi)
    3161:	00 
    3162:	48 c7 87 80 00 00 00 	movq   $0x0,0x80(%rdi)
    3169:	00 00 00 00 
    316d:	f2 0f 11 47 70       	movsd  %xmm0,0x70(%rdi)
    3172:	48 c7 87 88 00 00 00 	movq   $0x0,0x88(%rdi)
    3179:	00 00 00 00 
    317d:	48 c7 87 90 00 00 00 	movq   $0x0,0x90(%rdi)
    3184:	00 00 00 00 
    3188:	48 c7 87 98 00 00 00 	movq   $0x0,0x98(%rdi)
    318f:	00 00 00 00 
    3193:	48 c7 87 a0 00 00 00 	movq   $0x0,0xa0(%rdi)
    319a:	00 00 00 00 
    319e:	48 c7 87 a8 00 00 00 	movq   $0x0,0xa8(%rdi)
    31a5:	00 00 00 00 
    31a9:	48 c7 87 b0 00 00 00 	movq   $0x0,0xb0(%rdi)
    31b0:	00 00 00 00 
    31b4:	48 c7 87 b8 00 00 00 	movq   $0x0,0xb8(%rdi)
    31bb:	00 00 00 00 
    31bf:	48 c7 87 c0 00 00 00 	movq   $0x0,0xc0(%rdi)
    31c6:	00 00 00 00 
    31ca:	48 c7 87 c8 00 00 00 	movq   $0x0,0xc8(%rdi)
    31d1:	00 00 00 00 
    31d5:	48 c7 87 d0 00 00 00 	movq   $0x0,0xd0(%rdi)
    31dc:	00 00 00 00 
    31e0:	48 c7 87 d8 00 00 00 	movq   $0x0,0xd8(%rdi)
    31e7:	00 00 00 00 
    31eb:	48 c7 87 e0 00 00 00 	movq   $0x0,0xe0(%rdi)
    31f2:	00 00 00 00 
    31f6:	48 c7 87 e8 00 00 00 	movq   $0x0,0xe8(%rdi)
    31fd:	00 00 00 00 
    3201:	48 c7 87 f0 00 00 00 	movq   $0x0,0xf0(%rdi)
    3208:	00 00 00 00 
    320c:	48 c7 87 f8 00 00 00 	movq   $0x0,0xf8(%rdi)
    3213:	00 00 00 00 
    3217:	48 c7 87 00 01 00 00 	movq   $0x0,0x100(%rdi)
    321e:	00 00 00 00 
    3222:	f2 0f 10 46 08       	movsd  0x8(%rsi),%xmm0
    3227:	e8 00 00 00 00       	callq  322c <_ZN7vecgeom3cxx17UnplacedTrapezoidC1EPKd+0x15c>
    322c:	f2 0f 11 44 24 08    	movsd  %xmm0,0x8(%rsp)
    3232:	f2 0f 10 45 10       	movsd  0x10(%rbp),%xmm0
    3237:	e8 00 00 00 00       	callq  323c <_ZN7vecgeom3cxx17UnplacedTrapezoidC1EPKd+0x16c>
    323c:	f2 0f 59 44 24 08    	mulsd  0x8(%rsp),%xmm0
    3242:	f2 0f 11 83 80 00 00 	movsd  %xmm0,0x80(%rbx)
    3249:	00 
    324a:	f2 0f 10 45 08       	movsd  0x8(%rbp),%xmm0
    324f:	e8 00 00 00 00       	callq  3254 <_ZN7vecgeom3cxx17UnplacedTrapezoidC1EPKd+0x184>
    3254:	f2 0f 11 44 24 08    	movsd  %xmm0,0x8(%rsp)
    325a:	f2 0f 10 45 10       	movsd  0x10(%rbp),%xmm0
    325f:	e8 00 00 00 00       	callq  3264 <_ZN7vecgeom3cxx17UnplacedTrapezoidC1EPKd+0x194>
    3264:	f2 0f 59 44 24 08    	mulsd  0x8(%rsp),%xmm0
    326a:	48 89 df             	mov    %rbx,%rdi
    326d:	f2 0f 11 43 78       	movsd  %xmm0,0x78(%rbx)
    3272:	e8 00 00 00 00       	callq  3277 <_ZN7vecgeom3cxx17UnplacedTrapezoidC1EPKd+0x1a7>
    3277:	48 83 c4 18          	add    $0x18,%rsp
    327b:	5b                   	pop    %rbx
    327c:	5d                   	pop    %rbp
    327d:	c3                   	retq   
    327e:	48 8b 15 00 00 00 00 	mov    0x0(%rip),%rdx        # 3285 <_ZN7vecgeom3cxx17UnplacedTrapezoidC1EPKd+0x1b5>
    3285:	48 89 c7             	mov    %rax,%rdi
    3288:	48 83 c2 10          	add    $0x10,%rdx
    328c:	48 89 53 10          	mov    %rdx,0x10(%rbx)
    3290:	48 8b 15 00 00 00 00 	mov    0x0(%rip),%rdx        # 3297 <_ZN7vecgeom3cxx17UnplacedTrapezoidC1EPKd+0x1c7>
    3297:	48 83 c2 10          	add    $0x10,%rdx
    329b:	48 89 13             	mov    %rdx,(%rbx)
    329e:	e8 00 00 00 00       	callq  32a3 <_ZN7vecgeom3cxx17UnplacedTrapezoidC1EPKd+0x1d3>
    32a3:	90                   	nop
    32a4:	66 66 66 2e 0f 1f 84 	data32 data32 nopw %cs:0x0(%rax,%rax,1)
    32ab:	00 00 00 00 00 

00000000000032b0 <_ZN7vecgeom3cxx17UnplacedTrapezoidC1ERKS1_>:
    32b0:	f2 0f 10 46 20       	movsd  0x20(%rsi),%xmm0
    32b5:	53                   	push   %rbx
    32b6:	48 8b 05 00 00 00 00 	mov    0x0(%rip),%rax        # 32bd <_ZN7vecgeom3cxx17UnplacedTrapezoidC1ERKS1_+0xd>
    32bd:	48 89 fb             	mov    %rdi,%rbx
    32c0:	f2 0f 11 47 20       	movsd  %xmm0,0x20(%rdi)
    32c5:	f2 0f 10 46 28       	movsd  0x28(%rsi),%xmm0
    32ca:	48 8d 50 10          	lea    0x10(%rax),%rdx
    32ce:	48 83 c0 68          	add    $0x68,%rax
    32d2:	f2 0f 11 47 28       	movsd  %xmm0,0x28(%rdi)
    32d7:	48 89 47 10          	mov    %rax,0x10(%rdi)
    32db:	f2 0f 10 46 30       	movsd  0x30(%rsi),%xmm0
    32e0:	48 89 17             	mov    %rdx,(%rdi)
    32e3:	f2 0f 11 47 30       	movsd  %xmm0,0x30(%rdi)
    32e8:	f2 0f 10 46 38       	movsd  0x38(%rsi),%xmm0
    32ed:	f2 0f 11 47 38       	movsd  %xmm0,0x38(%rdi)
    32f2:	f2 0f 10 46 40       	movsd  0x40(%rsi),%xmm0
    32f7:	f2 0f 11 47 40       	movsd  %xmm0,0x40(%rdi)
    32fc:	f2 0f 10 46 48       	movsd  0x48(%rsi),%xmm0
    3301:	f2 0f 11 47 48       	movsd  %xmm0,0x48(%rdi)
    3306:	f2 0f 10 46 50       	movsd  0x50(%rsi),%xmm0
    330b:	f2 0f 11 47 50       	movsd  %xmm0,0x50(%rdi)
    3310:	f2 0f 10 46 58       	movsd  0x58(%rsi),%xmm0
    3315:	f2 0f 11 47 58       	movsd  %xmm0,0x58(%rdi)
    331a:	f2 0f 10 46 60       	movsd  0x60(%rsi),%xmm0
    331f:	f2 0f 11 47 60       	movsd  %xmm0,0x60(%rdi)
    3324:	f2 0f 10 46 68       	movsd  0x68(%rsi),%xmm0
    3329:	f2 0f 11 47 68       	movsd  %xmm0,0x68(%rdi)
    332e:	f2 0f 10 46 70       	movsd  0x70(%rsi),%xmm0
    3333:	f2 0f 11 47 70       	movsd  %xmm0,0x70(%rdi)
    3338:	f2 0f 10 46 78       	movsd  0x78(%rsi),%xmm0
    333d:	f2 0f 11 47 78       	movsd  %xmm0,0x78(%rdi)
    3342:	f2 0f 10 86 80 00 00 	movsd  0x80(%rsi),%xmm0
    3349:	00 
    334a:	48 c7 87 88 00 00 00 	movq   $0x0,0x88(%rdi)
    3351:	00 00 00 00 
    3355:	48 c7 87 90 00 00 00 	movq   $0x0,0x90(%rdi)
    335c:	00 00 00 00 
    3360:	f2 0f 11 87 80 00 00 	movsd  %xmm0,0x80(%rdi)
    3367:	00 
    3368:	48 c7 87 98 00 00 00 	movq   $0x0,0x98(%rdi)
    336f:	00 00 00 00 
    3373:	48 c7 87 a0 00 00 00 	movq   $0x0,0xa0(%rdi)
    337a:	00 00 00 00 
    337e:	48 c7 87 a8 00 00 00 	movq   $0x0,0xa8(%rdi)
    3385:	00 00 00 00 
    3389:	48 c7 87 b0 00 00 00 	movq   $0x0,0xb0(%rdi)
    3390:	00 00 00 00 
    3394:	48 c7 87 b8 00 00 00 	movq   $0x0,0xb8(%rdi)
    339b:	00 00 00 00 
    339f:	48 c7 87 c0 00 00 00 	movq   $0x0,0xc0(%rdi)
    33a6:	00 00 00 00 
    33aa:	48 c7 87 c8 00 00 00 	movq   $0x0,0xc8(%rdi)
    33b1:	00 00 00 00 
    33b5:	48 c7 87 d0 00 00 00 	movq   $0x0,0xd0(%rdi)
    33bc:	00 00 00 00 
    33c0:	48 c7 87 d8 00 00 00 	movq   $0x0,0xd8(%rdi)
    33c7:	00 00 00 00 
    33cb:	48 c7 87 e0 00 00 00 	movq   $0x0,0xe0(%rdi)
    33d2:	00 00 00 00 
    33d6:	48 c7 87 e8 00 00 00 	movq   $0x0,0xe8(%rdi)
    33dd:	00 00 00 00 
    33e1:	48 c7 87 f0 00 00 00 	movq   $0x0,0xf0(%rdi)
    33e8:	00 00 00 00 
    33ec:	48 c7 87 f8 00 00 00 	movq   $0x0,0xf8(%rdi)
    33f3:	00 00 00 00 
    33f7:	48 c7 87 00 01 00 00 	movq   $0x0,0x100(%rdi)
    33fe:	00 00 00 00 
    3402:	e8 00 00 00 00       	callq  3407 <_ZN7vecgeom3cxx17UnplacedTrapezoidC1ERKS1_+0x157>
    3407:	5b                   	pop    %rbx
    3408:	c3                   	retq   
    3409:	48 8b 15 00 00 00 00 	mov    0x0(%rip),%rdx        # 3410 <_ZN7vecgeom3cxx17UnplacedTrapezoidC1ERKS1_+0x160>
    3410:	48 89 c7             	mov    %rax,%rdi
    3413:	48 83 c2 10          	add    $0x10,%rdx
    3417:	48 89 53 10          	mov    %rdx,0x10(%rbx)
    341b:	48 8b 15 00 00 00 00 	mov    0x0(%rip),%rdx        # 3422 <_ZN7vecgeom3cxx17UnplacedTrapezoidC1ERKS1_+0x172>
    3422:	48 83 c2 10          	add    $0x10,%rdx
    3426:	48 89 13             	mov    %rdx,(%rbx)
    3429:	e8 00 00 00 00       	callq  342e <_ZN7vecgeom3cxx17UnplacedTrapezoidC1ERKS1_+0x17e>
    342e:	66 90                	xchg   %ax,%ax

0000000000003430 <_ZN7vecgeom3cxx17UnplacedTrapezoidaSERKS1_>:
    3430:	f2 0f 10 46 20       	movsd  0x20(%rsi),%xmm0
    3435:	53                   	push   %rbx
    3436:	48 89 fb             	mov    %rdi,%rbx
    3439:	f2 0f 11 47 20       	movsd  %xmm0,0x20(%rdi)
    343e:	f2 0f 10 46 28       	movsd  0x28(%rsi),%xmm0
    3443:	f2 0f 11 47 28       	movsd  %xmm0,0x28(%rdi)
    3448:	f2 0f 10 46 30       	movsd  0x30(%rsi),%xmm0
    344d:	f2 0f 11 47 30       	movsd  %xmm0,0x30(%rdi)
    3452:	f2 0f 10 46 38       	movsd  0x38(%rsi),%xmm0
    3457:	f2 0f 11 47 38       	movsd  %xmm0,0x38(%rdi)
    345c:	f2 0f 10 46 40       	movsd  0x40(%rsi),%xmm0
    3461:	f2 0f 11 47 40       	movsd  %xmm0,0x40(%rdi)
    3466:	f2 0f 10 46 48       	movsd  0x48(%rsi),%xmm0
    346b:	f2 0f 11 47 48       	movsd  %xmm0,0x48(%rdi)
    3470:	f2 0f 10 46 50       	movsd  0x50(%rsi),%xmm0
    3475:	f2 0f 11 47 50       	movsd  %xmm0,0x50(%rdi)
    347a:	f2 0f 10 46 58       	movsd  0x58(%rsi),%xmm0
    347f:	f2 0f 11 47 58       	movsd  %xmm0,0x58(%rdi)
    3484:	f2 0f 10 46 60       	movsd  0x60(%rsi),%xmm0
    3489:	f2 0f 11 47 60       	movsd  %xmm0,0x60(%rdi)
    348e:	f2 0f 10 46 68       	movsd  0x68(%rsi),%xmm0
    3493:	f2 0f 11 47 68       	movsd  %xmm0,0x68(%rdi)
    3498:	f2 0f 10 46 70       	movsd  0x70(%rsi),%xmm0
    349d:	f2 0f 11 47 70       	movsd  %xmm0,0x70(%rdi)
    34a2:	f2 0f 10 86 80 00 00 	movsd  0x80(%rsi),%xmm0
    34a9:	00 
    34aa:	f2 0f 11 87 80 00 00 	movsd  %xmm0,0x80(%rdi)
    34b1:	00 
    34b2:	f2 0f 10 46 78       	movsd  0x78(%rsi),%xmm0
    34b7:	f2 0f 11 47 78       	movsd  %xmm0,0x78(%rdi)
    34bc:	e8 00 00 00 00       	callq  34c1 <_ZN7vecgeom3cxx17UnplacedTrapezoidaSERKS1_+0x91>
    34c1:	48 89 d8             	mov    %rbx,%rax
    34c4:	5b                   	pop    %rbx
    34c5:	c3                   	retq   
    34c6:	66 2e 0f 1f 84 00 00 	nopw   %cs:0x0(%rax,%rax,1)
    34cd:	00 00 00 

00000000000034d0 <_ZNK7vecgeom3cxx17UnplacedTrapezoid17GetPointOnSurfaceEv>:
    34d0:	41 57                	push   %r15
    34d2:	41 56                	push   %r14
    34d4:	41 55                	push   %r13
    34d6:	41 54                	push   %r12
    34d8:	55                   	push   %rbp
    34d9:	48 89 fd             	mov    %rdi,%rbp
    34dc:	53                   	push   %rbx
    34dd:	48 89 f3             	mov    %rsi,%rbx
    34e0:	48 89 df             	mov    %rbx,%rdi
    34e3:	48 81 ec 58 02 00 00 	sub    $0x258,%rsp
    34ea:	4c 8b 25 00 00 00 00 	mov    0x0(%rip),%r12        # 34f1 <_ZNK7vecgeom3cxx17UnplacedTrapezoid17GetPointOnSurfaceEv+0x21>
    34f1:	4c 8d ac 24 d0 00 00 	lea    0xd0(%rsp),%r13
    34f8:	00 
    34f9:	48 c7 84 24 e0 00 00 	movq   $0x0,0xe0(%rsp)
    3500:	00 00 00 00 00 
    3505:	48 c7 84 24 e8 00 00 	movq   $0x0,0xe8(%rsp)
    350c:	00 00 00 00 00 
    3511:	48 c7 84 24 f0 00 00 	movq   $0x0,0xf0(%rsp)
    3518:	00 00 00 00 00 
    351d:	48 c7 84 24 10 01 00 	movq   $0x0,0x110(%rsp)
    3524:	00 00 00 00 00 
    3529:	4c 8d b4 24 a0 00 00 	lea    0xa0(%rsp),%r14
    3530:	00 
    3531:	49 8d 44 24 10       	lea    0x10(%r12),%rax
    3536:	4c 89 ee             	mov    %r13,%rsi
    3539:	48 c7 84 24 18 01 00 	movq   $0x0,0x118(%rsp)
    3540:	00 00 00 00 00 
    3545:	48 c7 84 24 20 01 00 	movq   $0x0,0x120(%rsp)
    354c:	00 00 00 00 00 
    3551:	48 c7 84 24 40 01 00 	movq   $0x0,0x140(%rsp)
    3558:	00 00 00 00 00 
    355d:	48 89 84 24 d0 00 00 	mov    %rax,0xd0(%rsp)
    3564:	00 
    3565:	48 89 84 24 00 01 00 	mov    %rax,0x100(%rsp)
    356c:	00 
    356d:	48 89 84 24 30 01 00 	mov    %rax,0x130(%rsp)
    3574:	00 
    3575:	48 c7 84 24 48 01 00 	movq   $0x0,0x148(%rsp)
    357c:	00 00 00 00 00 
    3581:	48 c7 84 24 50 01 00 	movq   $0x0,0x150(%rsp)
    3588:	00 00 00 00 00 
    358d:	48 89 84 24 60 01 00 	mov    %rax,0x160(%rsp)
    3594:	00 
    3595:	48 c7 84 24 70 01 00 	movq   $0x0,0x170(%rsp)
    359c:	00 00 00 00 00 
    35a1:	48 c7 84 24 78 01 00 	movq   $0x0,0x178(%rsp)
    35a8:	00 00 00 00 00 
    35ad:	48 c7 84 24 80 01 00 	movq   $0x0,0x180(%rsp)
    35b4:	00 00 00 00 00 
    35b9:	48 89 84 24 90 01 00 	mov    %rax,0x190(%rsp)
    35c0:	00 
    35c1:	48 c7 84 24 a0 01 00 	movq   $0x0,0x1a0(%rsp)
    35c8:	00 00 00 00 00 
    35cd:	48 c7 84 24 a8 01 00 	movq   $0x0,0x1a8(%rsp)
    35d4:	00 00 00 00 00 
    35d9:	48 c7 84 24 b0 01 00 	movq   $0x0,0x1b0(%rsp)
    35e0:	00 00 00 00 00 
    35e5:	48 89 84 24 c0 01 00 	mov    %rax,0x1c0(%rsp)
    35ec:	00 
    35ed:	48 c7 84 24 d0 01 00 	movq   $0x0,0x1d0(%rsp)
    35f4:	00 00 00 00 00 
    35f9:	48 c7 84 24 d8 01 00 	movq   $0x0,0x1d8(%rsp)
    3600:	00 00 00 00 00 
    3605:	48 c7 84 24 e0 01 00 	movq   $0x0,0x1e0(%rsp)
    360c:	00 00 00 00 00 
    3611:	48 89 84 24 f0 01 00 	mov    %rax,0x1f0(%rsp)
    3618:	00 
    3619:	48 c7 84 24 00 02 00 	movq   $0x0,0x200(%rsp)
    3620:	00 00 00 00 00 
    3625:	48 c7 84 24 08 02 00 	movq   $0x0,0x208(%rsp)
    362c:	00 00 00 00 00 
    3631:	48 c7 84 24 10 02 00 	movq   $0x0,0x210(%rsp)
    3638:	00 00 00 00 00 
    363d:	48 89 84 24 20 02 00 	mov    %rax,0x220(%rsp)
    3644:	00 
    3645:	48 c7 84 24 30 02 00 	movq   $0x0,0x230(%rsp)
    364c:	00 00 00 00 00 
    3651:	48 c7 84 24 38 02 00 	movq   $0x0,0x238(%rsp)
    3658:	00 00 00 00 00 
    365d:	48 c7 84 24 40 02 00 	movq   $0x0,0x240(%rsp)
    3664:	00 00 00 00 00 
    3669:	e8 00 00 00 00       	callq  366e <_ZNK7vecgeom3cxx17UnplacedTrapezoid17GetPointOnSurfaceEv+0x19e>
    366e:	4c 8b 3d 00 00 00 00 	mov    0x0(%rip),%r15        # 3675 <_ZNK7vecgeom3cxx17UnplacedTrapezoid17GetPointOnSurfaceEv+0x1a5>
    3675:	41 80 3f 00          	cmpb   $0x0,(%r15)
    3679:	0f 84 d8 02 00 00    	je     3957 <_ZNK7vecgeom3cxx17UnplacedTrapezoid17GetPointOnSurfaceEv+0x487>
    367f:	4c 8b 35 00 00 00 00 	mov    0x0(%rip),%r14        # 3686 <_ZNK7vecgeom3cxx17UnplacedTrapezoid17GetPointOnSurfaceEv+0x1b6>
    3686:	d9 e8                	fld1   
    3688:	49 8b 86 80 13 00 00 	mov    0x1380(%r14),%rax
    368f:	41 ba 02 00 00 00    	mov    $0x2,%r10d
    3695:	66 0f 57 c9          	xorpd  %xmm1,%xmm1
    3699:	4d 8d 86 20 07 00 00 	lea    0x720(%r14),%r8
    36a0:	bf df b0 08 99       	mov    $0x9908b0df,%edi
    36a5:	31 f6                	xor    %esi,%esi
    36a7:	4d 8d 8e 80 13 00 00 	lea    0x1380(%r14),%r9
    36ae:	d9 05 00 00 00 00    	flds   0x0(%rip)        # 36b4 <_ZNK7vecgeom3cxx17UnplacedTrapezoid17GetPointOnSurfaceEv+0x1e4>
    36b4:	eb 77                	jmp    372d <_ZNK7vecgeom3cxx17UnplacedTrapezoid17GetPointOnSurfaceEv+0x25d>
    36b6:	66 2e 0f 1f 84 00 00 	nopw   %cs:0x0(%rax,%rax,1)
    36bd:	00 00 00 
    36c0:	49 8b 14 c6          	mov    (%r14,%rax,8),%rdx
    36c4:	48 8d 48 01          	lea    0x1(%rax),%rcx
    36c8:	48 89 d0             	mov    %rdx,%rax
    36cb:	48 c1 e8 0b          	shr    $0xb,%rax
    36cf:	89 c0                	mov    %eax,%eax
    36d1:	48 31 d0             	xor    %rdx,%rax
    36d4:	48 89 c2             	mov    %rax,%rdx
    36d7:	48 c1 e2 07          	shl    $0x7,%rdx
    36db:	81 e2 80 56 2c 9d    	and    $0x9d2c5680,%edx
    36e1:	48 31 c2             	xor    %rax,%rdx
    36e4:	48 89 d0             	mov    %rdx,%rax
    36e7:	48 c1 e0 0f          	shl    $0xf,%rax
    36eb:	25 00 00 c6 ef       	and    $0xefc60000,%eax
    36f0:	48 31 d0             	xor    %rdx,%rax
    36f3:	48 89 c2             	mov    %rax,%rdx
    36f6:	48 c1 ea 12          	shr    $0x12,%rdx
    36fa:	48 31 d0             	xor    %rdx,%rax
    36fd:	0f 88 10 01 00 00    	js     3813 <_ZNK7vecgeom3cxx17UnplacedTrapezoid17GetPointOnSurfaceEv+0x343>
    3703:	d9 c9                	fxch   %st(1)
    3705:	f2 48 0f 2a c0       	cvtsi2sd %rax,%xmm0
    370a:	dd 54 24 08          	fstl   0x8(%rsp)
    370e:	49 83 ea 01          	sub    $0x1,%r10
    3712:	f2 0f 10 54 24 08    	movsd  0x8(%rsp),%xmm2
    3718:	d8 c9                	fmul   %st(1),%st
    371a:	f2 0f 59 c2          	mulsd  %xmm2,%xmm0
    371e:	f2 0f 58 c8          	addsd  %xmm0,%xmm1
    3722:	0f 84 07 01 00 00    	je     382f <_ZNK7vecgeom3cxx17UnplacedTrapezoid17GetPointOnSurfaceEv+0x35f>
    3728:	d9 c9                	fxch   %st(1)
    372a:	48 89 c8             	mov    %rcx,%rax
    372d:	48 3d 6f 02 00 00    	cmp    $0x26f,%rax
    3733:	76 8b                	jbe    36c0 <_ZNK7vecgeom3cxx17UnplacedTrapezoid17GetPointOnSurfaceEv+0x1f0>
    3735:	49 8d 56 08          	lea    0x8(%r14),%rdx
    3739:	49 8b 06             	mov    (%r14),%rax
    373c:	eb 05                	jmp    3743 <_ZNK7vecgeom3cxx17UnplacedTrapezoid17GetPointOnSurfaceEv+0x273>
    373e:	66 90                	xchg   %ax,%ax
    3740:	4c 89 d8             	mov    %r11,%rax
    3743:	4c 8b 1a             	mov    (%rdx),%r11
    3746:	48 25 00 00 00 80    	and    $0xffffffff80000000,%rax
    374c:	4c 89 d9             	mov    %r11,%rcx
    374f:	81 e1 ff ff ff 7f    	and    $0x7fffffff,%ecx
    3755:	48 09 c1             	or     %rax,%rcx
    3758:	48 89 f0             	mov    %rsi,%rax
    375b:	f6 c1 01             	test   $0x1,%cl
    375e:	48 0f 45 c7          	cmovne %rdi,%rax
    3762:	48 33 82 60 0c 00 00 	xor    0xc60(%rdx),%rax
    3769:	48 d1 e9             	shr    %rcx
    376c:	48 83 c2 08          	add    $0x8,%rdx
    3770:	48 31 c8             	xor    %rcx,%rax
    3773:	48 89 42 f0          	mov    %rax,-0x10(%rdx)
    3777:	4c 39 c2             	cmp    %r8,%rdx
    377a:	75 c4                	jne    3740 <_ZNK7vecgeom3cxx17UnplacedTrapezoid17GetPointOnSurfaceEv+0x270>
    377c:	4c 89 c2             	mov    %r8,%rdx
    377f:	49 8b 86 18 07 00 00 	mov    0x718(%r14),%rax
    3786:	eb 0b                	jmp    3793 <_ZNK7vecgeom3cxx17UnplacedTrapezoid17GetPointOnSurfaceEv+0x2c3>
    3788:	0f 1f 84 00 00 00 00 	nopl   0x0(%rax,%rax,1)
    378f:	00 
    3790:	4c 89 d8             	mov    %r11,%rax
    3793:	4c 8b 1a             	mov    (%rdx),%r11
    3796:	48 25 00 00 00 80    	and    $0xffffffff80000000,%rax
    379c:	4c 89 d9             	mov    %r11,%rcx
    379f:	81 e1 ff ff ff 7f    	and    $0x7fffffff,%ecx
    37a5:	48 09 c1             	or     %rax,%rcx
    37a8:	48 89 f0             	mov    %rsi,%rax
    37ab:	f6 c1 01             	test   $0x1,%cl
    37ae:	48 0f 45 c7          	cmovne %rdi,%rax
    37b2:	48 33 82 e0 f8 ff ff 	xor    -0x720(%rdx),%rax
    37b9:	48 d1 e9             	shr    %rcx
    37bc:	48 83 c2 08          	add    $0x8,%rdx
    37c0:	48 31 c8             	xor    %rcx,%rax
    37c3:	48 89 42 f0          	mov    %rax,-0x10(%rdx)
    37c7:	4c 39 ca             	cmp    %r9,%rdx
    37ca:	75 c4                	jne    3790 <_ZNK7vecgeom3cxx17UnplacedTrapezoid17GetPointOnSurfaceEv+0x2c0>
    37cc:	49 8b 16             	mov    (%r14),%rdx
    37cf:	49 8b 86 78 13 00 00 	mov    0x1378(%r14),%rax
    37d6:	48 89 d1             	mov    %rdx,%rcx
    37d9:	48 25 00 00 00 80    	and    $0xffffffff80000000,%rax
    37df:	81 e1 ff ff ff 7f    	and    $0x7fffffff,%ecx
    37e5:	48 09 c1             	or     %rax,%rcx
    37e8:	48 89 c8             	mov    %rcx,%rax
    37eb:	48 d1 e8             	shr    %rax
    37ee:	49 33 86 60 0c 00 00 	xor    0xc60(%r14),%rax
    37f5:	83 e1 01             	and    $0x1,%ecx
    37f8:	48 89 f9             	mov    %rdi,%rcx
    37fb:	48 0f 44 ce          	cmove  %rsi,%rcx
    37ff:	48 31 c8             	xor    %rcx,%rax
    3802:	b9 01 00 00 00       	mov    $0x1,%ecx
    3807:	49 89 86 78 13 00 00 	mov    %rax,0x1378(%r14)
    380e:	e9 b5 fe ff ff       	jmpq   36c8 <_ZNK7vecgeom3cxx17UnplacedTrapezoid17GetPointOnSurfaceEv+0x1f8>
    3813:	d9 c9                	fxch   %st(1)
    3815:	48 89 c2             	mov    %rax,%rdx
    3818:	83 e0 01             	and    $0x1,%eax
    381b:	48 d1 ea             	shr    %rdx
    381e:	48 09 c2             	or     %rax,%rdx
    3821:	f2 48 0f 2a c2       	cvtsi2sd %rdx,%xmm0
    3826:	f2 0f 58 c0          	addsd  %xmm0,%xmm0
    382a:	e9 db fe ff ff       	jmpq   370a <_ZNK7vecgeom3cxx17UnplacedTrapezoid17GetPointOnSurfaceEv+0x23a>
    382f:	dd d9                	fstp   %st(1)
    3831:	dd 5c 24 08          	fstpl  0x8(%rsp)
    3835:	49 89 8e 80 13 00 00 	mov    %rcx,0x1380(%r14)
    383c:	48 89 df             	mov    %rbx,%rdi
    383f:	f2 41 0f 10 86 88 13 	movsd  0x1388(%r14),%xmm0
    3846:	00 00 
    3848:	f2 0f 10 64 24 08    	movsd  0x8(%rsp),%xmm4
    384e:	f2 41 0f 10 9e 90 13 	movsd  0x1390(%r14),%xmm3
    3855:	00 00 
    3857:	4c 8d b4 24 a0 00 00 	lea    0xa0(%rsp),%r14
    385e:	00 
    385f:	f2 0f 5e cc          	divsd  %xmm4,%xmm1
    3863:	f2 0f 5c d8          	subsd  %xmm0,%xmm3
    3867:	f2 0f 59 cb          	mulsd  %xmm3,%xmm1
    386b:	f2 0f 58 c1          	addsd  %xmm1,%xmm0
    386f:	f2 0f 11 44 24 08    	movsd  %xmm0,0x8(%rsp)
    3875:	e8 00 00 00 00       	callq  387a <_ZNK7vecgeom3cxx17UnplacedTrapezoid17GetPointOnSurfaceEv+0x3aa>
    387a:	f2 0f 59 44 24 08    	mulsd  0x8(%rsp),%xmm0
    3880:	66 0f 57 ed          	xorpd  %xmm5,%xmm5
    3884:	f2 0f 10 8b 08 01 00 	movsd  0x108(%rbx),%xmm1
    388b:	00 
    388c:	66 0f 2f c5          	comisd %xmm5,%xmm0
    3890:	0f 82 72 01 00 00    	jb     3a08 <_ZNK7vecgeom3cxx17UnplacedTrapezoid17GetPointOnSurfaceEv+0x538>
    3896:	66 0f 2f c8          	comisd %xmm0,%xmm1
    389a:	0f 87 96 02 00 00    	ja     3b36 <_ZNK7vecgeom3cxx17UnplacedTrapezoid17GetPointOnSurfaceEv+0x666>
    38a0:	f2 0f 58 8b 10 01 00 	addsd  0x110(%rbx),%xmm1
    38a7:	00 
    38a8:	66 0f 2f c8          	comisd %xmm0,%xmm1
    38ac:	0f 87 78 03 00 00    	ja     3c2a <_ZNK7vecgeom3cxx17UnplacedTrapezoid17GetPointOnSurfaceEv+0x75a>
    38b2:	f2 0f 58 8b 18 01 00 	addsd  0x118(%rbx),%xmm1
    38b9:	00 
    38ba:	66 0f 2f c8          	comisd %xmm0,%xmm1
    38be:	0f 87 98 05 00 00    	ja     3e5c <_ZNK7vecgeom3cxx17UnplacedTrapezoid17GetPointOnSurfaceEv+0x98c>
    38c4:	f2 0f 58 8b 20 01 00 	addsd  0x120(%rbx),%xmm1
    38cb:	00 
    38cc:	66 0f 2f c8          	comisd %xmm0,%xmm1
    38d0:	0f 87 bc 04 00 00    	ja     3d92 <_ZNK7vecgeom3cxx17UnplacedTrapezoid17GetPointOnSurfaceEv+0x8c2>
    38d6:	f2 0f 58 8b 28 01 00 	addsd  0x128(%rbx),%xmm1
    38dd:	00 
    38de:	66 0f 2f c8          	comisd %xmm0,%xmm1
    38e2:	0f 87 0c 04 00 00    	ja     3cf4 <_ZNK7vecgeom3cxx17UnplacedTrapezoid17GetPointOnSurfaceEv+0x824>
    38e8:	f2 0f 58 8b 30 01 00 	addsd  0x130(%rbx),%xmm1
    38ef:	00 
    38f0:	66 0f 2f c8          	comisd %xmm0,%xmm1
    38f4:	0f 87 72 01 00 00    	ja     3a6c <_ZNK7vecgeom3cxx17UnplacedTrapezoid17GetPointOnSurfaceEv+0x59c>
    38fa:	49 8d 44 24 10       	lea    0x10(%r12),%rax
    38ff:	4c 8d b4 24 a0 00 00 	lea    0xa0(%rsp),%r14
    3906:	00 
    3907:	48 c7 45 10 00 00 00 	movq   $0x0,0x10(%rbp)
    390e:	00 
    390f:	48 c7 45 18 00 00 00 	movq   $0x0,0x18(%rbp)
    3916:	00 
    3917:	48 c7 45 20 00 00 00 	movq   $0x0,0x20(%rbp)
    391e:	00 
    391f:	48 89 45 00          	mov    %rax,0x0(%rbp)
    3923:	49 81 c5 50 01 00 00 	add    $0x150,%r13
    392a:	66 0f 1f 44 00 00    	nopw   0x0(%rax,%rax,1)
    3930:	49 8b 45 00          	mov    0x0(%r13),%rax
    3934:	4c 89 ef             	mov    %r13,%rdi
    3937:	49 83 ed 30          	sub    $0x30,%r13
    393b:	ff 10                	callq  *(%rax)
    393d:	4d 39 f5             	cmp    %r14,%r13
    3940:	75 ee                	jne    3930 <_ZNK7vecgeom3cxx17UnplacedTrapezoid17GetPointOnSurfaceEv+0x460>
    3942:	48 81 c4 58 02 00 00 	add    $0x258,%rsp
    3949:	48 89 e8             	mov    %rbp,%rax
    394c:	5b                   	pop    %rbx
    394d:	5d                   	pop    %rbp
    394e:	41 5c                	pop    %r12
    3950:	41 5d                	pop    %r13
    3952:	41 5e                	pop    %r14
    3954:	41 5f                	pop    %r15
    3956:	c3                   	retq   
    3957:	4c 89 ff             	mov    %r15,%rdi
    395a:	e8 00 00 00 00       	callq  395f <_ZNK7vecgeom3cxx17UnplacedTrapezoid17GetPointOnSurfaceEv+0x48f>
    395f:	85 c0                	test   %eax,%eax
    3961:	4c 8b 35 00 00 00 00 	mov    0x0(%rip),%r14        # 3968 <_ZNK7vecgeom3cxx17UnplacedTrapezoid17GetPointOnSurfaceEv+0x498>
    3968:	0f 84 18 fd ff ff    	je     3686 <_ZNK7vecgeom3cxx17UnplacedTrapezoid17GetPointOnSurfaceEv+0x1b6>
    396e:	49 c7 06 00 00 00 00 	movq   $0x0,(%r14)
    3975:	31 d2                	xor    %edx,%edx
    3977:	b9 01 00 00 00       	mov    $0x1,%ecx
    397c:	48 bf 21 0d d2 20 0d 	movabs $0xd20d20d20d20d21,%rdi
    3983:	d2 20 0d 
    3986:	66 2e 0f 1f 84 00 00 	nopw   %cs:0x0(%rax,%rax,1)
    398d:	00 00 00 
    3990:	48 89 d0             	mov    %rdx,%rax
    3993:	48 c1 e8 1e          	shr    $0x1e,%rax
    3997:	48 31 d0             	xor    %rdx,%rax
    399a:	48 89 ca             	mov    %rcx,%rdx
    399d:	48 c1 ea 04          	shr    $0x4,%rdx
    39a1:	48 69 f0 65 89 07 6c 	imul   $0x6c078965,%rax,%rsi
    39a8:	48 89 d0             	mov    %rdx,%rax
    39ab:	48 f7 e7             	mul    %rdi
    39ae:	48 89 c8             	mov    %rcx,%rax
    39b1:	48 d1 ea             	shr    %rdx
    39b4:	48 69 d2 70 02 00 00 	imul   $0x270,%rdx,%rdx
    39bb:	48 29 d0             	sub    %rdx,%rax
    39be:	48 89 c2             	mov    %rax,%rdx
    39c1:	01 f2                	add    %esi,%edx
    39c3:	49 89 14 ce          	mov    %rdx,(%r14,%rcx,8)
    39c7:	48 83 c1 01          	add    $0x1,%rcx
    39cb:	48 81 f9 70 02 00 00 	cmp    $0x270,%rcx
    39d2:	75 bc                	jne    3990 <_ZNK7vecgeom3cxx17UnplacedTrapezoid17GetPointOnSurfaceEv+0x4c0>
    39d4:	f2 0f 10 35 00 00 00 	movsd  0x0(%rip),%xmm6        # 39dc <_ZNK7vecgeom3cxx17UnplacedTrapezoid17GetPointOnSurfaceEv+0x50c>
    39db:	00 
    39dc:	49 c7 86 80 13 00 00 	movq   $0x270,0x1380(%r14)
    39e3:	70 02 00 00 
    39e7:	49 c7 86 88 13 00 00 	movq   $0x0,0x1388(%r14)
    39ee:	00 00 00 00 
    39f2:	4c 89 ff             	mov    %r15,%rdi
    39f5:	f2 41 0f 11 b6 90 13 	movsd  %xmm6,0x1390(%r14)
    39fc:	00 00 
    39fe:	e8 00 00 00 00       	callq  3a03 <_ZNK7vecgeom3cxx17UnplacedTrapezoid17GetPointOnSurfaceEv+0x533>
    3a03:	e9 7e fc ff ff       	jmpq   3686 <_ZNK7vecgeom3cxx17UnplacedTrapezoid17GetPointOnSurfaceEv+0x1b6>
    3a08:	66 0f 2f c1          	comisd %xmm1,%xmm0
    3a0c:	0f 83 8e fe ff ff    	jae    38a0 <_ZNK7vecgeom3cxx17UnplacedTrapezoid17GetPointOnSurfaceEv+0x3d0>
    3a12:	f2 0f 58 8b 10 01 00 	addsd  0x110(%rbx),%xmm1
    3a19:	00 
    3a1a:	66 0f 2f c1          	comisd %xmm1,%xmm0
    3a1e:	0f 83 8e fe ff ff    	jae    38b2 <_ZNK7vecgeom3cxx17UnplacedTrapezoid17GetPointOnSurfaceEv+0x3e2>
    3a24:	f2 0f 58 8b 18 01 00 	addsd  0x118(%rbx),%xmm1
    3a2b:	00 
    3a2c:	66 0f 2f c1          	comisd %xmm1,%xmm0
    3a30:	0f 83 8e fe ff ff    	jae    38c4 <_ZNK7vecgeom3cxx17UnplacedTrapezoid17GetPointOnSurfaceEv+0x3f4>
    3a36:	f2 0f 58 8b 20 01 00 	addsd  0x120(%rbx),%xmm1
    3a3d:	00 
    3a3e:	66 0f 2f c1          	comisd %xmm1,%xmm0
    3a42:	0f 83 8e fe ff ff    	jae    38d6 <_ZNK7vecgeom3cxx17UnplacedTrapezoid17GetPointOnSurfaceEv+0x406>
    3a48:	f2 0f 58 8b 28 01 00 	addsd  0x128(%rbx),%xmm1
    3a4f:	00 
    3a50:	66 0f 2f c1          	comisd %xmm1,%xmm0
    3a54:	0f 82 a0 fe ff ff    	jb     38fa <_ZNK7vecgeom3cxx17UnplacedTrapezoid17GetPointOnSurfaceEv+0x42a>
    3a5a:	f2 0f 58 8b 30 01 00 	addsd  0x130(%rbx),%xmm1
    3a61:	00 
    3a62:	66 0f 2f c8          	comisd %xmm0,%xmm1
    3a66:	0f 86 8e fe ff ff    	jbe    38fa <_ZNK7vecgeom3cxx17UnplacedTrapezoid17GetPointOnSurfaceEv+0x42a>
    3a6c:	48 8b 94 24 d0 01 00 	mov    0x1d0(%rsp),%rdx
    3a73:	00 
    3a74:	49 8d 44 24 10       	lea    0x10(%r12),%rax
    3a79:	48 89 84 24 a0 00 00 	mov    %rax,0xa0(%rsp)
    3a80:	00 
    3a81:	48 89 44 24 70       	mov    %rax,0x70(%rsp)
    3a86:	48 89 94 24 b0 00 00 	mov    %rdx,0xb0(%rsp)
    3a8d:	00 
    3a8e:	48 8b 94 24 d8 01 00 	mov    0x1d8(%rsp),%rdx
    3a95:	00 
    3a96:	48 89 44 24 40       	mov    %rax,0x40(%rsp)
    3a9b:	48 89 44 24 10       	mov    %rax,0x10(%rsp)
    3aa0:	48 8b 84 24 a0 01 00 	mov    0x1a0(%rsp),%rax
    3aa7:	00 
    3aa8:	48 89 94 24 b8 00 00 	mov    %rdx,0xb8(%rsp)
    3aaf:	00 
    3ab0:	48 8b 94 24 e0 01 00 	mov    0x1e0(%rsp),%rdx
    3ab7:	00 
    3ab8:	48 89 44 24 20       	mov    %rax,0x20(%rsp)
    3abd:	48 8b 84 24 a8 01 00 	mov    0x1a8(%rsp),%rax
    3ac4:	00 
    3ac5:	48 89 94 24 c0 00 00 	mov    %rdx,0xc0(%rsp)
    3acc:	00 
    3acd:	48 8b 94 24 30 02 00 	mov    0x230(%rsp),%rdx
    3ad4:	00 
    3ad5:	48 89 44 24 28       	mov    %rax,0x28(%rsp)
    3ada:	48 8b 84 24 b0 01 00 	mov    0x1b0(%rsp),%rax
    3ae1:	00 
    3ae2:	48 89 94 24 80 00 00 	mov    %rdx,0x80(%rsp)
    3ae9:	00 
    3aea:	48 8b 94 24 38 02 00 	mov    0x238(%rsp),%rdx
    3af1:	00 
    3af2:	48 89 94 24 88 00 00 	mov    %rdx,0x88(%rsp)
    3af9:	00 
    3afa:	48 8b 94 24 40 02 00 	mov    0x240(%rsp),%rdx
    3b01:	00 
    3b02:	48 89 94 24 90 00 00 	mov    %rdx,0x90(%rsp)
    3b09:	00 
    3b0a:	48 8b 94 24 00 02 00 	mov    0x200(%rsp),%rdx
    3b11:	00 
    3b12:	48 89 54 24 50       	mov    %rdx,0x50(%rsp)
    3b17:	48 8b 94 24 08 02 00 	mov    0x208(%rsp),%rdx
    3b1e:	00 
    3b1f:	48 89 54 24 58       	mov    %rdx,0x58(%rsp)
    3b24:	48 8b 94 24 10 02 00 	mov    0x210(%rsp),%rdx
    3b2b:	00 
    3b2c:	48 89 54 24 60       	mov    %rdx,0x60(%rsp)
    3b31:	e9 c5 00 00 00       	jmpq   3bfb <_ZNK7vecgeom3cxx17UnplacedTrapezoid17GetPointOnSurfaceEv+0x72b>
    3b36:	48 8b 94 24 10 01 00 	mov    0x110(%rsp),%rdx
    3b3d:	00 
    3b3e:	49 8d 44 24 10       	lea    0x10(%r12),%rax
    3b43:	48 89 84 24 a0 00 00 	mov    %rax,0xa0(%rsp)
    3b4a:	00 
    3b4b:	48 89 44 24 70       	mov    %rax,0x70(%rsp)
    3b50:	48 89 94 24 b0 00 00 	mov    %rdx,0xb0(%rsp)
    3b57:	00 
    3b58:	48 8b 94 24 18 01 00 	mov    0x118(%rsp),%rdx
    3b5f:	00 
    3b60:	48 89 44 24 40       	mov    %rax,0x40(%rsp)
    3b65:	48 89 94 24 b8 00 00 	mov    %rdx,0xb8(%rsp)
    3b6c:	00 
    3b6d:	48 8b 94 24 20 01 00 	mov    0x120(%rsp),%rdx
    3b74:	00 
    3b75:	48 89 94 24 c0 00 00 	mov    %rdx,0xc0(%rsp)
    3b7c:	00 
    3b7d:	48 8b 94 24 d0 01 00 	mov    0x1d0(%rsp),%rdx
    3b84:	00 
    3b85:	48 89 94 24 80 00 00 	mov    %rdx,0x80(%rsp)
    3b8c:	00 
    3b8d:	48 8b 94 24 d8 01 00 	mov    0x1d8(%rsp),%rdx
    3b94:	00 
    3b95:	48 89 94 24 88 00 00 	mov    %rdx,0x88(%rsp)
    3b9c:	00 
    3b9d:	48 8b 94 24 e0 01 00 	mov    0x1e0(%rsp),%rdx
    3ba4:	00 
    3ba5:	48 89 94 24 90 00 00 	mov    %rdx,0x90(%rsp)
    3bac:	00 
    3bad:	48 8b 94 24 a0 01 00 	mov    0x1a0(%rsp),%rdx
    3bb4:	00 
    3bb5:	48 89 54 24 50       	mov    %rdx,0x50(%rsp)
    3bba:	48 8b 94 24 a8 01 00 	mov    0x1a8(%rsp),%rdx
    3bc1:	00 
    3bc2:	48 89 54 24 58       	mov    %rdx,0x58(%rsp)
    3bc7:	48 8b 94 24 b0 01 00 	mov    0x1b0(%rsp),%rdx
    3bce:	00 
    3bcf:	48 89 44 24 10       	mov    %rax,0x10(%rsp)
    3bd4:	48 8b 84 24 e0 00 00 	mov    0xe0(%rsp),%rax
    3bdb:	00 
    3bdc:	48 89 54 24 60       	mov    %rdx,0x60(%rsp)
    3be1:	48 89 44 24 20       	mov    %rax,0x20(%rsp)
    3be6:	48 8b 84 24 e8 00 00 	mov    0xe8(%rsp),%rax
    3bed:	00 
    3bee:	48 89 44 24 28       	mov    %rax,0x28(%rsp)
    3bf3:	48 8b 84 24 f0 00 00 	mov    0xf0(%rsp),%rax
    3bfa:	00 
    3bfb:	4c 8d b4 24 a0 00 00 	lea    0xa0(%rsp),%r14
    3c02:	00 
    3c03:	48 8d 4c 24 40       	lea    0x40(%rsp),%rcx
    3c08:	48 8d 54 24 10       	lea    0x10(%rsp),%rdx
    3c0d:	4c 8d 44 24 70       	lea    0x70(%rsp),%r8
    3c12:	48 89 de             	mov    %rbx,%rsi
    3c15:	48 89 ef             	mov    %rbp,%rdi
    3c18:	4d 89 f1             	mov    %r14,%r9
    3c1b:	48 89 44 24 30       	mov    %rax,0x30(%rsp)
    3c20:	e8 00 00 00 00       	callq  3c25 <_ZNK7vecgeom3cxx17UnplacedTrapezoid17GetPointOnSurfaceEv+0x755>
    3c25:	e9 f9 fc ff ff       	jmpq   3923 <_ZNK7vecgeom3cxx17UnplacedTrapezoid17GetPointOnSurfaceEv+0x453>
    3c2a:	48 8b 94 24 00 02 00 	mov    0x200(%rsp),%rdx
    3c31:	00 
    3c32:	49 8d 44 24 10       	lea    0x10(%r12),%rax
    3c37:	48 89 84 24 a0 00 00 	mov    %rax,0xa0(%rsp)
    3c3e:	00 
    3c3f:	48 89 44 24 70       	mov    %rax,0x70(%rsp)
    3c44:	48 89 94 24 b0 00 00 	mov    %rdx,0xb0(%rsp)
    3c4b:	00 
    3c4c:	48 8b 94 24 08 02 00 	mov    0x208(%rsp),%rdx
    3c53:	00 
    3c54:	48 89 44 24 40       	mov    %rax,0x40(%rsp)
    3c59:	48 89 44 24 10       	mov    %rax,0x10(%rsp)
    3c5e:	48 8b 84 24 40 01 00 	mov    0x140(%rsp),%rax
    3c65:	00 
    3c66:	48 89 94 24 b8 00 00 	mov    %rdx,0xb8(%rsp)
    3c6d:	00 
    3c6e:	48 8b 94 24 10 02 00 	mov    0x210(%rsp),%rdx
    3c75:	00 
    3c76:	48 89 44 24 20       	mov    %rax,0x20(%rsp)
    3c7b:	48 8b 84 24 48 01 00 	mov    0x148(%rsp),%rax
    3c82:	00 
    3c83:	48 89 94 24 c0 00 00 	mov    %rdx,0xc0(%rsp)
    3c8a:	00 
    3c8b:	48 8b 94 24 30 02 00 	mov    0x230(%rsp),%rdx
    3c92:	00 
    3c93:	48 89 44 24 28       	mov    %rax,0x28(%rsp)
    3c98:	48 8b 84 24 50 01 00 	mov    0x150(%rsp),%rax
    3c9f:	00 
    3ca0:	48 89 94 24 80 00 00 	mov    %rdx,0x80(%rsp)
    3ca7:	00 
    3ca8:	48 8b 94 24 38 02 00 	mov    0x238(%rsp),%rdx
    3caf:	00 
    3cb0:	48 89 94 24 88 00 00 	mov    %rdx,0x88(%rsp)
    3cb7:	00 
    3cb8:	48 8b 94 24 40 02 00 	mov    0x240(%rsp),%rdx
    3cbf:	00 
    3cc0:	48 89 94 24 90 00 00 	mov    %rdx,0x90(%rsp)
    3cc7:	00 
    3cc8:	48 8b 94 24 70 01 00 	mov    0x170(%rsp),%rdx
    3ccf:	00 
    3cd0:	48 89 54 24 50       	mov    %rdx,0x50(%rsp)
    3cd5:	48 8b 94 24 78 01 00 	mov    0x178(%rsp),%rdx
    3cdc:	00 
    3cdd:	48 89 54 24 58       	mov    %rdx,0x58(%rsp)
    3ce2:	48 8b 94 24 80 01 00 	mov    0x180(%rsp),%rdx
    3ce9:	00 
    3cea:	48 89 54 24 60       	mov    %rdx,0x60(%rsp)
    3cef:	e9 07 ff ff ff       	jmpq   3bfb <_ZNK7vecgeom3cxx17UnplacedTrapezoid17GetPointOnSurfaceEv+0x72b>
    3cf4:	48 8b 94 24 40 01 00 	mov    0x140(%rsp),%rdx
    3cfb:	00 
    3cfc:	49 8d 44 24 10       	lea    0x10(%r12),%rax
    3d01:	48 89 84 24 a0 00 00 	mov    %rax,0xa0(%rsp)
    3d08:	00 
    3d09:	48 89 44 24 70       	mov    %rax,0x70(%rsp)
    3d0e:	48 89 94 24 b0 00 00 	mov    %rdx,0xb0(%rsp)
    3d15:	00 
    3d16:	48 8b 94 24 48 01 00 	mov    0x148(%rsp),%rdx
    3d1d:	00 
    3d1e:	48 89 44 24 40       	mov    %rax,0x40(%rsp)
    3d23:	48 89 94 24 b8 00 00 	mov    %rdx,0xb8(%rsp)
    3d2a:	00 
    3d2b:	48 8b 94 24 50 01 00 	mov    0x150(%rsp),%rdx
    3d32:	00 
    3d33:	48 89 94 24 c0 00 00 	mov    %rdx,0xc0(%rsp)
    3d3a:	00 
    3d3b:	48 8b 94 24 70 01 00 	mov    0x170(%rsp),%rdx
    3d42:	00 
    3d43:	48 89 94 24 80 00 00 	mov    %rdx,0x80(%rsp)
    3d4a:	00 
    3d4b:	48 8b 94 24 78 01 00 	mov    0x178(%rsp),%rdx
    3d52:	00 
    3d53:	48 89 94 24 88 00 00 	mov    %rdx,0x88(%rsp)
    3d5a:	00 
    3d5b:	48 8b 94 24 80 01 00 	mov    0x180(%rsp),%rdx
    3d62:	00 
    3d63:	48 89 94 24 90 00 00 	mov    %rdx,0x90(%rsp)
    3d6a:	00 
    3d6b:	48 8b 94 24 10 01 00 	mov    0x110(%rsp),%rdx
    3d72:	00 
    3d73:	48 89 54 24 50       	mov    %rdx,0x50(%rsp)
    3d78:	48 8b 94 24 18 01 00 	mov    0x118(%rsp),%rdx
    3d7f:	00 
    3d80:	48 89 54 24 58       	mov    %rdx,0x58(%rsp)
    3d85:	48 8b 94 24 20 01 00 	mov    0x120(%rsp),%rdx
    3d8c:	00 
    3d8d:	e9 3d fe ff ff       	jmpq   3bcf <_ZNK7vecgeom3cxx17UnplacedTrapezoid17GetPointOnSurfaceEv+0x6ff>
    3d92:	48 8b 94 24 70 01 00 	mov    0x170(%rsp),%rdx
    3d99:	00 
    3d9a:	49 8d 44 24 10       	lea    0x10(%r12),%rax
    3d9f:	48 89 84 24 a0 00 00 	mov    %rax,0xa0(%rsp)
    3da6:	00 
    3da7:	48 89 44 24 70       	mov    %rax,0x70(%rsp)
    3dac:	48 89 94 24 b0 00 00 	mov    %rdx,0xb0(%rsp)
    3db3:	00 
    3db4:	48 8b 94 24 78 01 00 	mov    0x178(%rsp),%rdx
    3dbb:	00 
    3dbc:	48 89 44 24 40       	mov    %rax,0x40(%rsp)
    3dc1:	48 89 44 24 10       	mov    %rax,0x10(%rsp)
    3dc6:	48 8b 84 24 10 01 00 	mov    0x110(%rsp),%rax
    3dcd:	00 
    3dce:	48 89 94 24 b8 00 00 	mov    %rdx,0xb8(%rsp)
    3dd5:	00 
    3dd6:	48 8b 94 24 80 01 00 	mov    0x180(%rsp),%rdx
    3ddd:	00 
    3dde:	48 89 44 24 20       	mov    %rax,0x20(%rsp)
    3de3:	48 8b 84 24 18 01 00 	mov    0x118(%rsp),%rax
    3dea:	00 
    3deb:	48 89 94 24 c0 00 00 	mov    %rdx,0xc0(%rsp)
    3df2:	00 
    3df3:	48 8b 94 24 30 02 00 	mov    0x230(%rsp),%rdx
    3dfa:	00 
    3dfb:	48 89 44 24 28       	mov    %rax,0x28(%rsp)
    3e00:	48 8b 84 24 20 01 00 	mov    0x120(%rsp),%rax
    3e07:	00 
    3e08:	48 89 94 24 80 00 00 	mov    %rdx,0x80(%rsp)
    3e0f:	00 
    3e10:	48 8b 94 24 38 02 00 	mov    0x238(%rsp),%rdx
    3e17:	00 
    3e18:	48 89 94 24 88 00 00 	mov    %rdx,0x88(%rsp)
    3e1f:	00 
    3e20:	48 8b 94 24 40 02 00 	mov    0x240(%rsp),%rdx
    3e27:	00 
    3e28:	48 89 94 24 90 00 00 	mov    %rdx,0x90(%rsp)
    3e2f:	00 
    3e30:	48 8b 94 24 d0 01 00 	mov    0x1d0(%rsp),%rdx
    3e37:	00 
    3e38:	48 89 54 24 50       	mov    %rdx,0x50(%rsp)
    3e3d:	48 8b 94 24 d8 01 00 	mov    0x1d8(%rsp),%rdx
    3e44:	00 
    3e45:	48 89 54 24 58       	mov    %rdx,0x58(%rsp)
    3e4a:	48 8b 94 24 e0 01 00 	mov    0x1e0(%rsp),%rdx
    3e51:	00 
    3e52:	48 89 54 24 60       	mov    %rdx,0x60(%rsp)
    3e57:	e9 9f fd ff ff       	jmpq   3bfb <_ZNK7vecgeom3cxx17UnplacedTrapezoid17GetPointOnSurfaceEv+0x72b>
    3e5c:	48 8b 94 24 a0 01 00 	mov    0x1a0(%rsp),%rdx
    3e63:	00 
    3e64:	49 8d 44 24 10       	lea    0x10(%r12),%rax
    3e69:	48 89 84 24 a0 00 00 	mov    %rax,0xa0(%rsp)
    3e70:	00 
    3e71:	48 89 44 24 70       	mov    %rax,0x70(%rsp)
    3e76:	48 89 94 24 b0 00 00 	mov    %rdx,0xb0(%rsp)
    3e7d:	00 
    3e7e:	48 8b 94 24 a8 01 00 	mov    0x1a8(%rsp),%rdx
    3e85:	00 
    3e86:	48 89 44 24 40       	mov    %rax,0x40(%rsp)
    3e8b:	48 89 94 24 b8 00 00 	mov    %rdx,0xb8(%rsp)
    3e92:	00 
    3e93:	48 8b 94 24 b0 01 00 	mov    0x1b0(%rsp),%rdx
    3e9a:	00 
    3e9b:	48 89 94 24 c0 00 00 	mov    %rdx,0xc0(%rsp)
    3ea2:	00 
    3ea3:	48 8b 94 24 00 02 00 	mov    0x200(%rsp),%rdx
    3eaa:	00 
    3eab:	48 89 94 24 80 00 00 	mov    %rdx,0x80(%rsp)
    3eb2:	00 
    3eb3:	48 8b 94 24 08 02 00 	mov    0x208(%rsp),%rdx
    3eba:	00 
    3ebb:	48 89 94 24 88 00 00 	mov    %rdx,0x88(%rsp)
    3ec2:	00 
    3ec3:	48 8b 94 24 10 02 00 	mov    0x210(%rsp),%rdx
    3eca:	00 
    3ecb:	48 89 94 24 90 00 00 	mov    %rdx,0x90(%rsp)
    3ed2:	00 
    3ed3:	48 8b 94 24 40 01 00 	mov    0x140(%rsp),%rdx
    3eda:	00 
    3edb:	48 89 54 24 50       	mov    %rdx,0x50(%rsp)
    3ee0:	48 8b 94 24 48 01 00 	mov    0x148(%rsp),%rdx
    3ee7:	00 
    3ee8:	48 89 54 24 58       	mov    %rdx,0x58(%rsp)
    3eed:	48 8b 94 24 50 01 00 	mov    0x150(%rsp),%rdx
    3ef4:	00 
    3ef5:	e9 d5 fc ff ff       	jmpq   3bcf <_ZNK7vecgeom3cxx17UnplacedTrapezoid17GetPointOnSurfaceEv+0x6ff>
    3efa:	48 89 c3             	mov    %rax,%rbx
    3efd:	49 81 c5 50 01 00 00 	add    $0x150,%r13
    3f04:	49 8b 45 00          	mov    0x0(%r13),%rax
    3f08:	4c 89 ef             	mov    %r13,%rdi
    3f0b:	49 83 ed 30          	sub    $0x30,%r13
    3f0f:	ff 10                	callq  *(%rax)
    3f11:	4d 39 f5             	cmp    %r14,%r13
    3f14:	75 ee                	jne    3f04 <_ZNK7vecgeom3cxx17UnplacedTrapezoid17GetPointOnSurfaceEv+0xa34>
    3f16:	48 89 df             	mov    %rbx,%rdi
    3f19:	e8 00 00 00 00       	callq  3f1e <_ZNK7vecgeom3cxx17UnplacedTrapezoid17GetPointOnSurfaceEv+0xa4e>

Disassembly of section .text._ZN7vecgeom3cxx11AlignedBaseD2Ev:

0000000000000000 <_ZN7vecgeom3cxx11AlignedBaseD1Ev>:
   0:	48 8b 05 00 00 00 00 	mov    0x0(%rip),%rax        # 7 <_ZN7vecgeom3cxx11AlignedBaseD1Ev+0x7>
   7:	48 83 c0 10          	add    $0x10,%rax
   b:	48 89 07             	mov    %rax,(%rdi)
   e:	c3                   	retq   

Disassembly of section .text._ZN7vecgeom3cxx15VUnplacedVolumeD2Ev:

0000000000000000 <_ZN7vecgeom3cxx15VUnplacedVolumeD1Ev>:
   0:	48 8b 05 00 00 00 00 	mov    0x0(%rip),%rax        # 7 <_ZN7vecgeom3cxx15VUnplacedVolumeD1Ev+0x7>
   7:	48 83 c0 10          	add    $0x10,%rax
   b:	48 89 07             	mov    %rax,(%rdi)
   e:	c3                   	retq   

Disassembly of section .text._ZNK7vecgeom3cxx17UnplacedTrapezoid11memory_sizeEv:

0000000000000000 <_ZNK7vecgeom3cxx17UnplacedTrapezoid11memory_sizeEv>:
   0:	b8 40 01 00 00       	mov    $0x140,%eax
   5:	c3                   	retq   

Disassembly of section .text._ZN7vecgeom3cxx8Vector3DIdED2Ev:

0000000000000000 <_ZN7vecgeom3cxx8Vector3DIdED1Ev>:
   0:	48 8b 05 00 00 00 00 	mov    0x0(%rip),%rax        # 7 <_ZN7vecgeom3cxx8Vector3DIdED1Ev+0x7>
   7:	48 83 c0 10          	add    $0x10,%rax
   b:	48 89 07             	mov    %rax,(%rdi)
   e:	c3                   	retq   

Disassembly of section .text._ZNK7vecgeom3cxx25ShapeImplementationHelperINS0_23TrapezoidImplementationILin1ELin1EEEE11memory_sizeEv:

0000000000000000 <_ZNK7vecgeom3cxx25ShapeImplementationHelperINS0_23TrapezoidImplementationILin1ELin1EEEE11memory_sizeEv>:
   0:	b8 30 00 00 00       	mov    $0x30,%eax
   5:	c3                   	retq   

Disassembly of section .text._ZN7vecgeom3cxx8Vector3DIN2Vc3SSE6VectorIdEEED2Ev:

0000000000000000 <_ZN7vecgeom3cxx8Vector3DIN2Vc3SSE6VectorIdEEED1Ev>:
   0:	48 8b 05 00 00 00 00 	mov    0x0(%rip),%rax        # 7 <_ZN7vecgeom3cxx8Vector3DIN2Vc3SSE6VectorIdEEED1Ev+0x7>
   7:	48 83 c0 10          	add    $0x10,%rax
   b:	48 89 07             	mov    %rax,(%rdi)
   e:	c3                   	retq   

Disassembly of section .text._ZN7vecgeom3cxx15VUnplacedVolumeD0Ev:

0000000000000000 <_ZN7vecgeom3cxx15VUnplacedVolumeD0Ev>:
   0:	48 8b 05 00 00 00 00 	mov    0x0(%rip),%rax        # 7 <_ZN7vecgeom3cxx15VUnplacedVolumeD0Ev+0x7>
   7:	48 83 c0 10          	add    $0x10,%rax
   b:	48 89 07             	mov    %rax,(%rdi)
   e:	e9 00 00 00 00       	jmpq   13 <.LC7+0x3>

Disassembly of section .text._ZNK7vecgeom3cxx17UnplacedTrapezoid12DeviceSizeOfEv:

0000000000000000 <_ZNK7vecgeom3cxx17UnplacedTrapezoid12DeviceSizeOfEv>:
   0:	e9 00 00 00 00       	jmpq   5 <_ZNK7vecgeom3cxx17UnplacedTrapezoid12DeviceSizeOfEv+0x5>

Disassembly of section .text._ZNK7vecgeom3cxx25ShapeImplementationHelperINS0_23TrapezoidImplementationILin1ELin1EEEE9PrintTypeEv:

0000000000000000 <_ZNK7vecgeom3cxx25ShapeImplementationHelperINS0_23TrapezoidImplementationILin1ELin1EEEE9PrintTypeEv>:
   0:	ba ff ff ff ff       	mov    $0xffffffff,%edx
   5:	48 8d 3d 00 00 00 00 	lea    0x0(%rip),%rdi        # c <_ZNK7vecgeom3cxx25ShapeImplementationHelperINS0_23TrapezoidImplementationILin1ELin1EEEE9PrintTypeEv+0xc>
   c:	31 c0                	xor    %eax,%eax
   e:	89 d6                	mov    %edx,%esi
  10:	e9 00 00 00 00       	jmpq   15 <.LC7+0x5>

Disassembly of section .text._ZN7vecgeom3cxx25ShapeImplementationHelperINS0_23TrapezoidImplementationILin1ELin1EEEED2Ev:

0000000000000000 <_ZN7vecgeom3cxx25ShapeImplementationHelperINS0_23TrapezoidImplementationILin1ELin1EEEED1Ev>:
   0:	48 8b 05 00 00 00 00 	mov    0x0(%rip),%rax        # 7 <_ZN7vecgeom3cxx25ShapeImplementationHelperINS0_23TrapezoidImplementationILin1ELin1EEEED1Ev+0x7>
   7:	48 83 c0 10          	add    $0x10,%rax
   b:	48 89 07             	mov    %rax,(%rdi)
   e:	e9 00 00 00 00       	jmpq   13 <.LC7+0x3>

Disassembly of section .text._ZN7vecgeom3cxx25ShapeImplementationHelperINS0_23TrapezoidImplementationILin1ELin1EEEED0Ev:

0000000000000000 <_ZN7vecgeom3cxx25ShapeImplementationHelperINS0_23TrapezoidImplementationILin1ELin1EEEED0Ev>:
   0:	48 8b 05 00 00 00 00 	mov    0x0(%rip),%rax        # 7 <_ZN7vecgeom3cxx25ShapeImplementationHelperINS0_23TrapezoidImplementationILin1ELin1EEEED0Ev+0x7>
   7:	53                   	push   %rbx
   8:	48 89 fb             	mov    %rdi,%rbx
   b:	48 83 c0 10          	add    $0x10,%rax
   f:	48 89 07             	mov    %rax,(%rdi)
  12:	e8 00 00 00 00       	callq  17 <_ZN7vecgeom3cxx25ShapeImplementationHelperINS0_23TrapezoidImplementationILin1ELin1EEEED0Ev+0x17>
  17:	48 89 df             	mov    %rbx,%rdi
  1a:	5b                   	pop    %rbx
  1b:	e9 00 00 00 00       	jmpq   20 <_ZThn16_N7vecgeom3cxx17UnplacedTrapezoidD1Ev>

Disassembly of section .text._ZNK7vecgeom3cxx25ShapeImplementationHelperINS0_23TrapezoidImplementationILin1ELin1EEEE12DeviceSizeOfEv:

0000000000000000 <_ZNK7vecgeom3cxx25ShapeImplementationHelperINS0_23TrapezoidImplementationILin1ELin1EEEE12DeviceSizeOfEv>:
   0:	e9 00 00 00 00       	jmpq   5 <_ZNK7vecgeom3cxx25ShapeImplementationHelperINS0_23TrapezoidImplementationILin1ELin1EEEE12DeviceSizeOfEv+0x5>

Disassembly of section .text._ZNK7vecgeom3cxx25ShapeImplementationHelperINS0_23TrapezoidImplementationILin1ELin1EEEE9CopyToGpuENS0_9DevicePtrINS_4cuda13LogicalVolumeEEENS5_INS6_16Transformation3DEEE:

0000000000000000 <_ZNK7vecgeom3cxx25ShapeImplementationHelperINS0_23TrapezoidImplementationILin1ELin1EEEE9CopyToGpuENS0_9DevicePtrINS_4cuda13LogicalVolumeEEENS5_INS6_16Transformation3DEEE>:
   0:	41 55                	push   %r13
   2:	49 89 cd             	mov    %rcx,%r13
   5:	41 54                	push   %r12
   7:	49 89 d4             	mov    %rdx,%r12
   a:	55                   	push   %rbp
   b:	48 89 f5             	mov    %rsi,%rbp
   e:	53                   	push   %rbx
   f:	48 89 fb             	mov    %rdi,%rbx
  12:	48 83 ec 48          	sub    $0x48,%rsp
  16:	48 c7 04 24 00 00 00 	movq   $0x0,(%rsp)
  1d:	00 
  1e:	e8 00 00 00 00       	callq  23 <_ZNK7vecgeom3cxx25ShapeImplementationHelperINS0_23TrapezoidImplementationILin1ELin1EEEE9CopyToGpuENS0_9DevicePtrINS_4cuda13LogicalVolumeEEENS5_INS6_16Transformation3DEEE+0x23>
  23:	48 89 e7             	mov    %rsp,%rdi
  26:	89 c6                	mov    %eax,%esi
  28:	e8 00 00 00 00       	callq  2d <_ZNK7vecgeom3cxx25ShapeImplementationHelperINS0_23TrapezoidImplementationILin1ELin1EEEE9CopyToGpuENS0_9DevicePtrINS_4cuda13LogicalVolumeEEENS5_INS6_16Transformation3DEEE+0x2d>
  2d:	89 c7                	mov    %eax,%edi
  2f:	e8 00 00 00 00       	callq  34 <_ZNK7vecgeom3cxx25ShapeImplementationHelperINS0_23TrapezoidImplementationILin1ELin1EEEE9CopyToGpuENS0_9DevicePtrINS_4cuda13LogicalVolumeEEENS5_INS6_16Transformation3DEEE+0x34>
  34:	48 8b 14 24          	mov    (%rsp),%rdx
  38:	48 8b 45 00          	mov    0x0(%rbp),%rax
  3c:	48 8d 4c 24 30       	lea    0x30(%rsp),%rcx
  41:	4c 8d 44 24 10       	lea    0x10(%rsp),%r8
  46:	48 89 ee             	mov    %rbp,%rsi
  49:	48 89 df             	mov    %rbx,%rdi
  4c:	48 89 54 24 10       	mov    %rdx,0x10(%rsp)
  51:	49 8b 55 00          	mov    0x0(%r13),%rdx
  55:	48 8b 80 f0 00 00 00 	mov    0xf0(%rax),%rax
  5c:	48 89 54 24 30       	mov    %rdx,0x30(%rsp)
  61:	49 8b 14 24          	mov    (%r12),%rdx
  65:	48 89 54 24 20       	mov    %rdx,0x20(%rsp)
  6a:	48 8d 54 24 20       	lea    0x20(%rsp),%rdx
  6f:	ff d0                	callq  *%rax
  71:	48 83 c4 48          	add    $0x48,%rsp
  75:	48 89 d8             	mov    %rbx,%rax
  78:	5b                   	pop    %rbx
  79:	5d                   	pop    %rbp
  7a:	41 5c                	pop    %r12
  7c:	41 5d                	pop    %r13
  7e:	c3                   	retq   

Disassembly of section .text._ZNK7vecgeom3cxx25ShapeImplementationHelperINS0_23TrapezoidImplementationILin1ELin1EEEE9CopyToGpuENS0_9DevicePtrINS_4cuda13LogicalVolumeEEENS5_INS6_16Transformation3DEEENS5_INS6_13VPlacedVolumeEEE:

0000000000000000 <_ZNK7vecgeom3cxx25ShapeImplementationHelperINS0_23TrapezoidImplementationILin1ELin1EEEE9CopyToGpuENS0_9DevicePtrINS_4cuda13LogicalVolumeEEENS5_INS6_16Transformation3DEEENS5_INS6_13VPlacedVolumeEEE>:
   0:	53                   	push   %rbx
   1:	48 89 fb             	mov    %rdi,%rbx
   4:	48 83 ec 40          	sub    $0x40,%rsp
   8:	49 8b 00             	mov    (%r8),%rax
   b:	44 8b 46 08          	mov    0x8(%rsi),%r8d
   f:	48 8d 74 24 20       	lea    0x20(%rsp),%rsi
  14:	48 89 e7             	mov    %rsp,%rdi
  17:	48 c7 44 24 10 00 00 	movq   $0x0,0x10(%rsp)
  1e:	00 00 
  20:	48 89 04 24          	mov    %rax,(%rsp)
  24:	48 8b 01             	mov    (%rcx),%rax
  27:	48 8d 4c 24 10       	lea    0x10(%rsp),%rcx
  2c:	48 89 44 24 30       	mov    %rax,0x30(%rsp)
  31:	48 8b 02             	mov    (%rdx),%rax
  34:	48 8d 54 24 30       	lea    0x30(%rsp),%rdx
  39:	48 89 44 24 20       	mov    %rax,0x20(%rsp)
  3e:	e8 00 00 00 00       	callq  43 <_ZNK7vecgeom3cxx25ShapeImplementationHelperINS0_23TrapezoidImplementationILin1ELin1EEEE9CopyToGpuENS0_9DevicePtrINS_4cuda13LogicalVolumeEEENS5_INS6_16Transformation3DEEENS5_INS6_13VPlacedVolumeEEE+0x43>
  43:	e8 00 00 00 00       	callq  48 <_ZNK7vecgeom3cxx25ShapeImplementationHelperINS0_23TrapezoidImplementationILin1ELin1EEEE9CopyToGpuENS0_9DevicePtrINS_4cuda13LogicalVolumeEEENS5_INS6_16Transformation3DEEENS5_INS6_13VPlacedVolumeEEE+0x48>
  48:	48 8b 04 24          	mov    (%rsp),%rax
  4c:	48 89 03             	mov    %rax,(%rbx)
  4f:	48 83 c4 40          	add    $0x40,%rsp
  53:	48 89 d8             	mov    %rbx,%rax
  56:	5b                   	pop    %rbx
  57:	c3                   	retq   

Disassembly of section .text.unlikely:

0000000000000000 <_ZStlsISt11char_traitsIcEERSt13basic_ostreamIcT_ES5_PKc.part.13>:
   0:	50                   	push   %rax
   1:	48 8b 07             	mov    (%rdi),%rax
   4:	48 03 78 e8          	add    -0x18(%rax),%rdi
   8:	8b 77 20             	mov    0x20(%rdi),%esi
   b:	83 ce 01             	or     $0x1,%esi
   e:	e8 00 00 00 00       	callq  13 <_ZStlsISt11char_traitsIcEERSt13basic_ostreamIcT_ES5_PKc.part.13+0x13>
  13:	5a                   	pop    %rdx
  14:	c3                   	retq   

Disassembly of section .text._ZNK7vecgeom3cxx25ShapeImplementationHelperINS0_23TrapezoidImplementationILin1ELin1EEEE13DistanceToOutERKNS0_8Vector3DIdEES8_d:

0000000000000000 <_ZNK7vecgeom3cxx25ShapeImplementationHelperINS0_23TrapezoidImplementationILin1ELin1EEEE13DistanceToOutERKNS0_8Vector3DIdEES8_d>:
   0:	66 0f 57 db          	xorpd  %xmm3,%xmm3
   4:	48 8b 47 18          	mov    0x18(%rdi),%rax
   8:	f2 0f 10 62 20       	movsd  0x20(%rdx),%xmm4
   d:	66 0f 2f dc          	comisd %xmm4,%xmm3
  11:	48 8b 00             	mov    (%rax),%rax
  14:	0f 93 c1             	setae  %cl
  17:	0f 82 53 02 00 00    	jb     270 <_ZNK7vecgeom3cxx25ShapeImplementationHelperINS0_23TrapezoidImplementationILin1ELin1EEEE13DistanceToOutERKNS0_8Vector3DIdEES8_d+0x270>
  1d:	f2 0f 10 2d 00 00 00 	movsd  0x0(%rip),%xmm5        # 25 <_ZNK7vecgeom3cxx25ShapeImplementationHelperINS0_23TrapezoidImplementationILin1ELin1EEEE13DistanceToOutERKNS0_8Vector3DIdEES8_d+0x25>
  24:	00 
  25:	f2 0f 10 0d 00 00 00 	movsd  0x0(%rip),%xmm1        # 2d <_ZNK7vecgeom3cxx25ShapeImplementationHelperINS0_23TrapezoidImplementationILin1ELin1EEEE13DistanceToOutERKNS0_8Vector3DIdEES8_d+0x2d>
  2c:	00 
  2d:	f2 0f 59 48 20       	mulsd  0x20(%rax),%xmm1
  32:	31 ff                	xor    %edi,%edi
  34:	66 0f 2f e3          	comisd %xmm3,%xmm4
  38:	f2 0f 10 56 20       	movsd  0x20(%rsi),%xmm2
  3d:	f2 0f 5c ca          	subsd  %xmm2,%xmm1
  41:	76 0c                	jbe    4f <_ZNK7vecgeom3cxx25ShapeImplementationHelperINS0_23TrapezoidImplementationILin1ELin1EEEE13DistanceToOutERKNS0_8Vector3DIdEES8_d+0x4f>
  43:	66 0f 2f 0d 00 00 00 	comisd 0x0(%rip),%xmm1        # 4b <_ZNK7vecgeom3cxx25ShapeImplementationHelperINS0_23TrapezoidImplementationILin1ELin1EEEE13DistanceToOutERKNS0_8Vector3DIdEES8_d+0x4b>
  4a:	00 
  4b:	40 0f 96 c7          	setbe  %dil
  4f:	84 c9                	test   %cl,%cl
  51:	74 16                	je     69 <_ZNK7vecgeom3cxx25ShapeImplementationHelperINS0_23TrapezoidImplementationILin1ELin1EEEE13DistanceToOutERKNS0_8Vector3DIdEES8_d+0x69>
  53:	66 0f 2f 0d 00 00 00 	comisd 0x0(%rip),%xmm1        # 5b <_ZNK7vecgeom3cxx25ShapeImplementationHelperINS0_23TrapezoidImplementationILin1ELin1EEEE13DistanceToOutERKNS0_8Vector3DIdEES8_d+0x5b>
  5a:	00 
  5b:	f2 0f 10 05 00 00 00 	movsd  0x0(%rip),%xmm0        # 63 <_ZNK7vecgeom3cxx25ShapeImplementationHelperINS0_23TrapezoidImplementationILin1ELin1EEEE13DistanceToOutERKNS0_8Vector3DIdEES8_d+0x63>
  62:	00 
  63:	0f 83 ff 01 00 00    	jae    268 <_ZNK7vecgeom3cxx25ShapeImplementationHelperINS0_23TrapezoidImplementationILin1ELin1EEEE13DistanceToOutERKNS0_8Vector3DIdEES8_d+0x268>
  69:	40 84 ff             	test   %dil,%dil
  6c:	0f 85 ee 01 00 00    	jne    260 <_ZNK7vecgeom3cxx25ShapeImplementationHelperINS0_23TrapezoidImplementationILin1ELin1EEEE13DistanceToOutERKNS0_8Vector3DIdEES8_d+0x260>
  72:	f2 0f 58 ec          	addsd  %xmm4,%xmm5
  76:	66 0f 28 fc          	movapd %xmm4,%xmm7
  7a:	f2 0f 10 b0 a8 00 00 	movsd  0xa8(%rax),%xmm6
  81:	00 
  82:	f2 0f 10 a0 88 00 00 	movsd  0x88(%rax),%xmm4
  89:	00 
  8a:	66 0f 28 c2          	movapd %xmm2,%xmm0
  8e:	f2 44 0f 10 66 18    	movsd  0x18(%rsi),%xmm12
  94:	66 0f 16 b0 b0 00 00 	movhpd 0xb0(%rax),%xmm6
  9b:	00 
  9c:	f2 0f 5e cd          	divsd  %xmm5,%xmm1
  a0:	66 0f 16 a0 90 00 00 	movhpd 0x90(%rax),%xmm4
  a7:	00 
  a8:	66 44 0f 28 d6       	movapd %xmm6,%xmm10
  ad:	66 0f 28 d4          	movapd %xmm4,%xmm2
  b1:	66 45 0f 14 e4       	unpcklpd %xmm12,%xmm12
  b6:	66 0f 14 c0          	unpcklpd %xmm0,%xmm0
  ba:	f2 0f 10 a8 c8 00 00 	movsd  0xc8(%rax),%xmm5
  c1:	00 
  c2:	66 44 0f 28 d9       	movapd %xmm1,%xmm11
  c7:	f2 0f 10 4e 10       	movsd  0x10(%rsi),%xmm1
  cc:	66 45 0f 59 d4       	mulpd  %xmm12,%xmm10
  d1:	66 0f 16 a8 d0 00 00 	movhpd 0xd0(%rax),%xmm5
  d8:	00 
  d9:	66 0f 14 c9          	unpcklpd %xmm1,%xmm1
  dd:	f2 44 0f 10 4a 10    	movsd  0x10(%rdx),%xmm9
  e3:	f2 44 0f 10 42 18    	movsd  0x18(%rdx),%xmm8
  e9:	66 0f 59 d1          	mulpd  %xmm1,%xmm2
  ed:	66 45 0f 14 c9       	unpcklpd %xmm9,%xmm9
  f2:	66 45 0f 14 c0       	unpcklpd %xmm8,%xmm8
  f7:	66 0f 14 ff          	unpcklpd %xmm7,%xmm7
  fb:	66 41 0f 58 d2       	addpd  %xmm10,%xmm2
 100:	66 44 0f 28 d0       	movapd %xmm0,%xmm10
 105:	66 41 0f 59 f0       	mulpd  %xmm8,%xmm6
 10a:	66 44 0f 59 d5       	mulpd  %xmm5,%xmm10
 10f:	66 41 0f 59 e1       	mulpd  %xmm9,%xmm4
 114:	66 0f 59 ef          	mulpd  %xmm7,%xmm5
 118:	66 41 0f 58 d2       	addpd  %xmm10,%xmm2
 11d:	f2 44 0f 10 90 e8 00 	movsd  0xe8(%rax),%xmm10
 124:	00 00 
 126:	66 0f 58 e6          	addpd  %xmm6,%xmm4
 12a:	f2 0f 10 b0 d8 00 00 	movsd  0xd8(%rax),%xmm6
 131:	00 
 132:	66 44 0f 16 90 f0 00 	movhpd 0xf0(%rax),%xmm10
 139:	00 00 
 13b:	66 0f 16 b0 e0 00 00 	movhpd 0xe0(%rax),%xmm6
 142:	00 
 143:	66 41 0f 58 d2       	addpd  %xmm10,%xmm2
 148:	f2 44 0f 10 90 98 00 	movsd  0x98(%rax),%xmm10
 14f:	00 00 
 151:	66 0f 59 c6          	mulpd  %xmm6,%xmm0
 155:	66 0f 58 e5          	addpd  %xmm5,%xmm4
 159:	66 0f 28 2d 00 00 00 	movapd 0x0(%rip),%xmm5        # 161 <_ZNK7vecgeom3cxx25ShapeImplementationHelperINS0_23TrapezoidImplementationILin1ELin1EEEE13DistanceToOutERKNS0_8Vector3DIdEES8_d+0x161>
 160:	00 
 161:	66 44 0f 16 90 a0 00 	movhpd 0xa0(%rax),%xmm10
 168:	00 00 
 16a:	66 0f 59 f7          	mulpd  %xmm7,%xmm6
 16e:	66 0f 57 d5          	xorpd  %xmm5,%xmm2
 172:	66 0f 29 64 24 b8    	movapd %xmm4,-0x48(%rsp)
 178:	66 41 0f 59 ca       	mulpd  %xmm10,%xmm1
 17d:	66 0f 5e d4          	divpd  %xmm4,%xmm2
 181:	f2 0f 10 a0 b8 00 00 	movsd  0xb8(%rax),%xmm4
 188:	00 
 189:	66 0f 16 a0 c0 00 00 	movhpd 0xc0(%rax),%xmm4
 190:	00 
 191:	66 44 0f 59 e4       	mulpd  %xmm4,%xmm12
 196:	66 44 0f 59 c4       	mulpd  %xmm4,%xmm8
 19b:	66 0f 29 54 24 d8    	movapd %xmm2,-0x28(%rsp)
 1a1:	66 41 0f 58 cc       	addpd  %xmm12,%xmm1
 1a6:	66 41 0f 28 d2       	movapd %xmm10,%xmm2
 1ab:	66 41 0f 59 d1       	mulpd  %xmm9,%xmm2
 1b0:	66 0f 58 c8          	addpd  %xmm0,%xmm1
 1b4:	f2 0f 10 80 f8 00 00 	movsd  0xf8(%rax),%xmm0
 1bb:	00 
 1bc:	66 41 0f 58 d0       	addpd  %xmm8,%xmm2
 1c1:	66 0f 16 80 00 01 00 	movhpd 0x100(%rax),%xmm0
 1c8:	00 
 1c9:	66 0f 58 c8          	addpd  %xmm0,%xmm1
 1cd:	f2 0f 10 44 24 d8    	movsd  -0x28(%rsp),%xmm0
 1d3:	66 0f 58 d6          	addpd  %xmm6,%xmm2
 1d7:	66 0f 57 cd          	xorpd  %xmm5,%xmm1
 1db:	66 0f 2f c3          	comisd %xmm3,%xmm0
 1df:	66 0f 29 54 24 c8    	movapd %xmm2,-0x38(%rsp)
 1e5:	66 0f 5e ca          	divpd  %xmm2,%xmm1
 1e9:	66 0f 29 4c 24 e8    	movapd %xmm1,-0x18(%rsp)
 1ef:	0f 82 93 00 00 00    	jb     288 <_ZNK7vecgeom3cxx25ShapeImplementationHelperINS0_23TrapezoidImplementationILin1ELin1EEEE13DistanceToOutERKNS0_8Vector3DIdEES8_d+0x288>
 1f5:	66 0f 2f 5c 24 b8    	comisd -0x48(%rsp),%xmm3
 1fb:	0f 83 87 00 00 00    	jae    288 <_ZNK7vecgeom3cxx25ShapeImplementationHelperINS0_23TrapezoidImplementationILin1ELin1EEEE13DistanceToOutERKNS0_8Vector3DIdEES8_d+0x288>
 201:	f2 0f 5d 05 00 00 00 	minsd  0x0(%rip),%xmm0        # 209 <_ZNK7vecgeom3cxx25ShapeImplementationHelperINS0_23TrapezoidImplementationILin1ELin1EEEE13DistanceToOutERKNS0_8Vector3DIdEES8_d+0x209>
 208:	00 
 209:	f2 0f 10 4c 24 e0    	movsd  -0x20(%rsp),%xmm1
 20f:	66 0f 2f cb          	comisd %xmm3,%xmm1
 213:	72 0c                	jb     221 <_ZNK7vecgeom3cxx25ShapeImplementationHelperINS0_23TrapezoidImplementationILin1ELin1EEEE13DistanceToOutERKNS0_8Vector3DIdEES8_d+0x221>
 215:	66 0f 2f 5c 24 c0    	comisd -0x40(%rsp),%xmm3
 21b:	73 04                	jae    221 <_ZNK7vecgeom3cxx25ShapeImplementationHelperINS0_23TrapezoidImplementationILin1ELin1EEEE13DistanceToOutERKNS0_8Vector3DIdEES8_d+0x221>
 21d:	f2 0f 5d c1          	minsd  %xmm1,%xmm0
 221:	f2 0f 10 4c 24 e8    	movsd  -0x18(%rsp),%xmm1
 227:	66 0f 2f cb          	comisd %xmm3,%xmm1
 22b:	72 0c                	jb     239 <_ZNK7vecgeom3cxx25ShapeImplementationHelperINS0_23TrapezoidImplementationILin1ELin1EEEE13DistanceToOutERKNS0_8Vector3DIdEES8_d+0x239>
 22d:	66 0f 2f 5c 24 c8    	comisd -0x38(%rsp),%xmm3
 233:	73 04                	jae    239 <_ZNK7vecgeom3cxx25ShapeImplementationHelperINS0_23TrapezoidImplementationILin1ELin1EEEE13DistanceToOutERKNS0_8Vector3DIdEES8_d+0x239>
 235:	f2 0f 5d c1          	minsd  %xmm1,%xmm0
 239:	f2 0f 10 4c 24 f0    	movsd  -0x10(%rsp),%xmm1
 23f:	66 0f 2f cb          	comisd %xmm3,%xmm1
 243:	72 0c                	jb     251 <_ZNK7vecgeom3cxx25ShapeImplementationHelperINS0_23TrapezoidImplementationILin1ELin1EEEE13DistanceToOutERKNS0_8Vector3DIdEES8_d+0x251>
 245:	66 0f 2f 5c 24 d0    	comisd -0x30(%rsp),%xmm3
 24b:	73 04                	jae    251 <_ZNK7vecgeom3cxx25ShapeImplementationHelperINS0_23TrapezoidImplementationILin1ELin1EEEE13DistanceToOutERKNS0_8Vector3DIdEES8_d+0x251>
 24d:	f2 0f 5d c1          	minsd  %xmm1,%xmm0
 251:	f2 41 0f 5d c3       	minsd  %xmm11,%xmm0
 256:	c3                   	retq   
 257:	66 0f 1f 84 00 00 00 	nopw   0x0(%rax,%rax,1)
 25e:	00 00 
 260:	f2 0f 10 05 00 00 00 	movsd  0x0(%rip),%xmm0        # 268 <_ZNK7vecgeom3cxx25ShapeImplementationHelperINS0_23TrapezoidImplementationILin1ELin1EEEE13DistanceToOutERKNS0_8Vector3DIdEES8_d+0x268>
 267:	00 
 268:	f3 c3                	repz retq 
 26a:	66 0f 1f 44 00 00    	nopw   0x0(%rax,%rax,1)
 270:	f2 0f 10 2d 00 00 00 	movsd  0x0(%rip),%xmm5        # 278 <_ZNK7vecgeom3cxx25ShapeImplementationHelperINS0_23TrapezoidImplementationILin1ELin1EEEE13DistanceToOutERKNS0_8Vector3DIdEES8_d+0x278>
 277:	00 
 278:	f2 0f 10 0d 00 00 00 	movsd  0x0(%rip),%xmm1        # 280 <_ZNK7vecgeom3cxx25ShapeImplementationHelperINS0_23TrapezoidImplementationILin1ELin1EEEE13DistanceToOutERKNS0_8Vector3DIdEES8_d+0x280>
 27f:	00 
 280:	e9 a8 fd ff ff       	jmpq   2d <_ZNK7vecgeom3cxx25ShapeImplementationHelperINS0_23TrapezoidImplementationILin1ELin1EEEE13DistanceToOutERKNS0_8Vector3DIdEES8_d+0x2d>
 285:	0f 1f 00             	nopl   (%rax)
 288:	f2 0f 10 05 00 00 00 	movsd  0x0(%rip),%xmm0        # 290 <_ZNK7vecgeom3cxx25ShapeImplementationHelperINS0_23TrapezoidImplementationILin1ELin1EEEE13DistanceToOutERKNS0_8Vector3DIdEES8_d+0x290>
 28f:	00 
 290:	e9 74 ff ff ff       	jmpq   209 <_ZNK7vecgeom3cxx25ShapeImplementationHelperINS0_23TrapezoidImplementationILin1ELin1EEEE13DistanceToOutERKNS0_8Vector3DIdEES8_d+0x209>

Disassembly of section .text._ZNK7vecgeom3cxx25ShapeImplementationHelperINS0_23TrapezoidImplementationILin1ELin1EEEE11SafetyToOutERKNS0_8Vector3DIdEE:

0000000000000000 <_ZNK7vecgeom3cxx25ShapeImplementationHelperINS0_23TrapezoidImplementationILin1ELin1EEEE11SafetyToOutERKNS0_8Vector3DIdEE>:
   0:	48 8b 47 18          	mov    0x18(%rdi),%rax
   4:	f2 0f 10 56 20       	movsd  0x20(%rsi),%xmm2
   9:	f2 0f 10 0d 00 00 00 	movsd  0x0(%rip),%xmm1        # 11 <_ZNK7vecgeom3cxx25ShapeImplementationHelperINS0_23TrapezoidImplementationILin1ELin1EEEE11SafetyToOutERKNS0_8Vector3DIdEE+0x11>
  10:	00 
  11:	48 8b 00             	mov    (%rax),%rax
  14:	66 0f 54 ca          	andpd  %xmm2,%xmm1
  18:	f2 0f 10 40 20       	movsd  0x20(%rax),%xmm0
  1d:	f2 0f 5c c1          	subsd  %xmm1,%xmm0
  21:	66 0f 57 c9          	xorpd  %xmm1,%xmm1
  25:	f2 0f 5f c1          	maxsd  %xmm1,%xmm0
  29:	66 0f 2f c1          	comisd %xmm1,%xmm0
  2d:	0f 84 fe 00 00 00    	je     131 <_ZNK7vecgeom3cxx25ShapeImplementationHelperINS0_23TrapezoidImplementationILin1ELin1EEEE11SafetyToOutERKNS0_8Vector3DIdEE+0x131>
  33:	f2 0f 10 76 10       	movsd  0x10(%rsi),%xmm6
  38:	f2 0f 10 6e 18       	movsd  0x18(%rsi),%xmm5
  3d:	f2 0f 10 88 88 00 00 	movsd  0x88(%rax),%xmm1
  44:	00 
  45:	f2 0f 10 98 a8 00 00 	movsd  0xa8(%rax),%xmm3
  4c:	00 
  4d:	66 0f 14 f6          	unpcklpd %xmm6,%xmm6
  51:	66 0f 16 88 90 00 00 	movhpd 0x90(%rax),%xmm1
  58:	00 
  59:	66 0f 14 ed          	unpcklpd %xmm5,%xmm5
  5d:	66 0f 16 98 b0 00 00 	movhpd 0xb0(%rax),%xmm3
  64:	00 
  65:	66 0f 14 d2          	unpcklpd %xmm2,%xmm2
  69:	66 0f 28 25 00 00 00 	movapd 0x0(%rip),%xmm4        # 71 <_ZNK7vecgeom3cxx25ShapeImplementationHelperINS0_23TrapezoidImplementationILin1ELin1EEEE11SafetyToOutERKNS0_8Vector3DIdEE+0x71>
  70:	00 
  71:	66 0f 59 ce          	mulpd  %xmm6,%xmm1
  75:	66 0f 59 dd          	mulpd  %xmm5,%xmm3
  79:	66 0f 58 cb          	addpd  %xmm3,%xmm1
  7d:	f2 0f 10 98 c8 00 00 	movsd  0xc8(%rax),%xmm3
  84:	00 
  85:	66 0f 16 98 d0 00 00 	movhpd 0xd0(%rax),%xmm3
  8c:	00 
  8d:	66 0f 59 da          	mulpd  %xmm2,%xmm3
  91:	66 0f 58 cb          	addpd  %xmm3,%xmm1
  95:	f2 0f 10 98 e8 00 00 	movsd  0xe8(%rax),%xmm3
  9c:	00 
  9d:	66 0f 16 98 f0 00 00 	movhpd 0xf0(%rax),%xmm3
  a4:	00 
  a5:	66 0f 58 cb          	addpd  %xmm3,%xmm1
  a9:	f2 0f 10 98 b8 00 00 	movsd  0xb8(%rax),%xmm3
  b0:	00 
  b1:	66 0f 16 98 c0 00 00 	movhpd 0xc0(%rax),%xmm3
  b8:	00 
  b9:	66 0f 57 cc          	xorpd  %xmm4,%xmm1
  bd:	66 0f 59 dd          	mulpd  %xmm5,%xmm3
  c1:	66 0f 29 4c 24 d8    	movapd %xmm1,-0x28(%rsp)
  c7:	f2 0f 10 88 98 00 00 	movsd  0x98(%rax),%xmm1
  ce:	00 
  cf:	66 0f 16 88 a0 00 00 	movhpd 0xa0(%rax),%xmm1
  d6:	00 
  d7:	66 0f 59 ce          	mulpd  %xmm6,%xmm1
  db:	66 0f 58 cb          	addpd  %xmm3,%xmm1
  df:	f2 0f 10 98 d8 00 00 	movsd  0xd8(%rax),%xmm3
  e6:	00 
  e7:	66 0f 16 98 e0 00 00 	movhpd 0xe0(%rax),%xmm3
  ee:	00 
  ef:	66 0f 59 da          	mulpd  %xmm2,%xmm3
  f3:	f2 0f 10 90 f8 00 00 	movsd  0xf8(%rax),%xmm2
  fa:	00 
  fb:	66 0f 16 90 00 01 00 	movhpd 0x100(%rax),%xmm2
 102:	00 
 103:	66 0f 58 cb          	addpd  %xmm3,%xmm1
 107:	66 0f 58 ca          	addpd  %xmm2,%xmm1
 10b:	66 0f 57 cc          	xorpd  %xmm4,%xmm1
 10f:	66 0f 29 4c 24 e8    	movapd %xmm1,-0x18(%rsp)
 115:	f2 0f 10 4c 24 e0    	movsd  -0x20(%rsp),%xmm1
 11b:	f2 0f 5d 4c 24 d8    	minsd  -0x28(%rsp),%xmm1
 121:	f2 0f 5d 4c 24 e8    	minsd  -0x18(%rsp),%xmm1
 127:	f2 0f 5d 4c 24 f0    	minsd  -0x10(%rsp),%xmm1
 12d:	f2 0f 5d c1          	minsd  %xmm1,%xmm0
 131:	f3 c3                	repz retq 

Disassembly of section .text._ZNK7vecgeom3cxx25ShapeImplementationHelperINS0_23TrapezoidImplementationILin1ELin1EEEE10SafetyToInERKNS0_5SOA3DIdEEPd:

0000000000000000 <_ZNK7vecgeom3cxx25ShapeImplementationHelperINS0_23TrapezoidImplementationILin1ELin1EEEE10SafetyToInERKNS0_5SOA3DIdEEPd>:
   0:	48 8b 46 08          	mov    0x8(%rsi),%rax
   4:	85 c0                	test   %eax,%eax
   6:	0f 8e a9 02 00 00    	jle    2b5 <_ZNK7vecgeom3cxx25ShapeImplementationHelperINS0_23TrapezoidImplementationILin1ELin1EEEE10SafetyToInERKNS0_5SOA3DIdEEPd+0x2b5>
   c:	48 8b 0d 00 00 00 00 	mov    0x0(%rip),%rcx        # 13 <_ZNK7vecgeom3cxx25ShapeImplementationHelperINS0_23TrapezoidImplementationILin1ELin1EEEE10SafetyToInERKNS0_5SOA3DIdEEPd+0x13>
  13:	83 e8 01             	sub    $0x1,%eax
  16:	45 31 c0             	xor    %r8d,%r8d
  19:	d1 e8                	shr    %eax
  1b:	4c 8d 50 01          	lea    0x1(%rax),%r10
  1f:	66 0f 28 39          	movapd (%rcx),%xmm7
  23:	49 c1 e2 04          	shl    $0x4,%r10
  27:	66 0f 1f 84 00 00 00 	nopw   0x0(%rax,%rax,1)
  2e:	00 00 
  30:	48 8b 4f 20          	mov    0x20(%rdi),%rcx
  34:	4c 8b 4e 18          	mov    0x18(%rsi),%r9
  38:	48 8b 47 18          	mov    0x18(%rdi),%rax
  3c:	f2 0f 10 01          	movsd  (%rcx),%xmm0
  40:	66 43 0f 28 2c 01    	movapd (%r9,%r8,1),%xmm5
  46:	66 0f 14 c0          	unpcklpd %xmm0,%xmm0
  4a:	4c 8b 4e 20          	mov    0x20(%rsi),%r9
  4e:	48 8b 00             	mov    (%rax),%rax
  51:	f2 0f 10 49 18       	movsd  0x18(%rcx),%xmm1
  56:	f2 0f 10 51 20       	movsd  0x20(%rcx),%xmm2
  5b:	66 0f 5c e8          	subpd  %xmm0,%xmm5
  5f:	f2 0f 10 41 08       	movsd  0x8(%rcx),%xmm0
  64:	66 43 0f 28 24 01    	movapd (%r9,%r8,1),%xmm4
  6a:	66 0f 14 c0          	unpcklpd %xmm0,%xmm0
  6e:	4c 8b 4e 28          	mov    0x28(%rsi),%r9
  72:	66 0f 14 c9          	unpcklpd %xmm1,%xmm1
  76:	66 0f 14 d2          	unpcklpd %xmm2,%xmm2
  7a:	66 0f 5c e0          	subpd  %xmm0,%xmm4
  7e:	f2 0f 10 41 10       	movsd  0x10(%rcx),%xmm0
  83:	66 43 0f 28 1c 01    	movapd (%r9,%r8,1),%xmm3
  89:	66 0f 14 c0          	unpcklpd %xmm0,%xmm0
  8d:	66 0f 59 cd          	mulpd  %xmm5,%xmm1
  91:	66 0f 5c d8          	subpd  %xmm0,%xmm3
  95:	f2 0f 10 41 30       	movsd  0x30(%rcx),%xmm0
  9a:	66 0f 59 d5          	mulpd  %xmm5,%xmm2
  9e:	66 0f 14 c0          	unpcklpd %xmm0,%xmm0
  a2:	f2 0f 10 b0 c8 00 00 	movsd  0xc8(%rax),%xmm6
  a9:	00 
  aa:	f2 44 0f 10 88 98 00 	movsd  0x98(%rax),%xmm9
  b1:	00 00 
  b3:	66 0f 59 c4          	mulpd  %xmm4,%xmm0
  b7:	66 0f 14 f6          	unpcklpd %xmm6,%xmm6
  bb:	66 45 0f 14 c9       	unpcklpd %xmm9,%xmm9
  c0:	66 0f 58 c8          	addpd  %xmm0,%xmm1
  c4:	f2 0f 10 41 48       	movsd  0x48(%rcx),%xmm0
  c9:	66 0f 14 c0          	unpcklpd %xmm0,%xmm0
  cd:	66 0f 59 c3          	mulpd  %xmm3,%xmm0
  d1:	66 0f 58 c8          	addpd  %xmm0,%xmm1
  d5:	f2 0f 10 41 38       	movsd  0x38(%rcx),%xmm0
  da:	66 0f 14 c0          	unpcklpd %xmm0,%xmm0
  de:	66 44 0f 59 c9       	mulpd  %xmm1,%xmm9
  e3:	66 0f 59 c4          	mulpd  %xmm4,%xmm0
  e7:	66 0f 58 d0          	addpd  %xmm0,%xmm2
  eb:	f2 0f 10 41 50       	movsd  0x50(%rcx),%xmm0
  f0:	66 0f 14 c0          	unpcklpd %xmm0,%xmm0
  f4:	66 0f 59 c3          	mulpd  %xmm3,%xmm0
  f8:	66 0f 58 d0          	addpd  %xmm0,%xmm2
  fc:	f2 0f 10 41 28       	movsd  0x28(%rcx),%xmm0
 101:	66 0f 14 c0          	unpcklpd %xmm0,%xmm0
 105:	66 0f 59 c5          	mulpd  %xmm5,%xmm0
 109:	f2 0f 10 69 40       	movsd  0x40(%rcx),%xmm5
 10e:	66 0f 14 ed          	unpcklpd %xmm5,%xmm5
 112:	66 0f 59 ec          	mulpd  %xmm4,%xmm5
 116:	f2 0f 10 61 58       	movsd  0x58(%rcx),%xmm4
 11b:	66 0f 14 e4          	unpcklpd %xmm4,%xmm4
 11f:	66 0f 58 c5          	addpd  %xmm5,%xmm0
 123:	f2 0f 10 a8 d0 00 00 	movsd  0xd0(%rax),%xmm5
 12a:	00 
 12b:	66 0f 59 e3          	mulpd  %xmm3,%xmm4
 12f:	f2 0f 10 58 20       	movsd  0x20(%rax),%xmm3
 134:	66 0f 14 ed          	unpcklpd %xmm5,%xmm5
 138:	66 0f 14 db          	unpcklpd %xmm3,%xmm3
 13c:	66 0f 58 c4          	addpd  %xmm4,%xmm0
 140:	f2 0f 10 a0 88 00 00 	movsd  0x88(%rax),%xmm4
 147:	00 
 148:	66 0f 14 e4          	unpcklpd %xmm4,%xmm4
 14c:	66 44 0f 28 c0       	movapd %xmm0,%xmm8
 151:	66 0f 59 e1          	mulpd  %xmm1,%xmm4
 155:	66 44 0f 54 c7       	andpd  %xmm7,%xmm8
 15a:	66 0f 59 f0          	mulpd  %xmm0,%xmm6
 15e:	66 44 0f 5c c3       	subpd  %xmm3,%xmm8
 163:	f2 0f 10 98 a8 00 00 	movsd  0xa8(%rax),%xmm3
 16a:	00 
 16b:	66 0f 59 e8          	mulpd  %xmm0,%xmm5
 16f:	66 0f 14 db          	unpcklpd %xmm3,%xmm3
 173:	66 0f 59 da          	mulpd  %xmm2,%xmm3
 177:	66 0f 58 dc          	addpd  %xmm4,%xmm3
 17b:	f2 0f 10 a0 90 00 00 	movsd  0x90(%rax),%xmm4
 182:	00 
 183:	66 0f 14 e4          	unpcklpd %xmm4,%xmm4
 187:	66 0f 58 f3          	addpd  %xmm3,%xmm6
 18b:	f2 0f 10 98 e8 00 00 	movsd  0xe8(%rax),%xmm3
 192:	00 
 193:	66 0f 59 e1          	mulpd  %xmm1,%xmm4
 197:	66 0f 14 db          	unpcklpd %xmm3,%xmm3
 19b:	66 0f 58 f3          	addpd  %xmm3,%xmm6
 19f:	f2 0f 10 98 b0 00 00 	movsd  0xb0(%rax),%xmm3
 1a6:	00 
 1a7:	66 0f 14 db          	unpcklpd %xmm3,%xmm3
 1ab:	66 0f 59 da          	mulpd  %xmm2,%xmm3
 1af:	66 0f 58 dc          	addpd  %xmm4,%xmm3
 1b3:	f2 0f 10 a0 d8 00 00 	movsd  0xd8(%rax),%xmm4
 1ba:	00 
 1bb:	66 0f 14 e4          	unpcklpd %xmm4,%xmm4
 1bf:	66 0f 58 eb          	addpd  %xmm3,%xmm5
 1c3:	f2 0f 10 98 f0 00 00 	movsd  0xf0(%rax),%xmm3
 1ca:	00 
 1cb:	66 0f 59 e0          	mulpd  %xmm0,%xmm4
 1cf:	66 0f 14 db          	unpcklpd %xmm3,%xmm3
 1d3:	66 0f 58 eb          	addpd  %xmm3,%xmm5
 1d7:	f2 0f 10 98 b8 00 00 	movsd  0xb8(%rax),%xmm3
 1de:	00 
 1df:	66 0f 14 db          	unpcklpd %xmm3,%xmm3
 1e3:	66 0f 59 da          	mulpd  %xmm2,%xmm3
 1e7:	66 41 0f 58 d9       	addpd  %xmm9,%xmm3
 1ec:	66 0f 58 e3          	addpd  %xmm3,%xmm4
 1f0:	f2 0f 10 98 f8 00 00 	movsd  0xf8(%rax),%xmm3
 1f7:	00 
 1f8:	66 0f 14 db          	unpcklpd %xmm3,%xmm3
 1fc:	66 0f 58 e3          	addpd  %xmm3,%xmm4
 200:	f2 0f 10 98 e0 00 00 	movsd  0xe0(%rax),%xmm3
 207:	00 
 208:	66 0f 14 db          	unpcklpd %xmm3,%xmm3
 20c:	66 0f 59 d8          	mulpd  %xmm0,%xmm3
 210:	f2 0f 10 80 c0 00 00 	movsd  0xc0(%rax),%xmm0
 217:	00 
 218:	66 0f 14 c0          	unpcklpd %xmm0,%xmm0
 21c:	66 0f 59 c2          	mulpd  %xmm2,%xmm0
 220:	f2 0f 10 90 a0 00 00 	movsd  0xa0(%rax),%xmm2
 227:	00 
 228:	66 0f 14 d2          	unpcklpd %xmm2,%xmm2
 22c:	66 0f 59 d1          	mulpd  %xmm1,%xmm2
 230:	66 0f 28 cd          	movapd %xmm5,%xmm1
 234:	66 0f 58 c2          	addpd  %xmm2,%xmm0
 238:	66 0f 58 d8          	addpd  %xmm0,%xmm3
 23c:	f2 0f 10 80 00 01 00 	movsd  0x100(%rax),%xmm0
 243:	00 
 244:	66 0f 14 c0          	unpcklpd %xmm0,%xmm0
 248:	66 0f 58 d8          	addpd  %xmm0,%xmm3
 24c:	66 0f 28 c6          	movapd %xmm6,%xmm0
 250:	66 41 0f c2 c0 06    	cmpnlepd %xmm8,%xmm0
 256:	66 0f 54 f0          	andpd  %xmm0,%xmm6
 25a:	66 41 0f 55 c0       	andnpd %xmm8,%xmm0
 25f:	66 0f 56 c6          	orpd   %xmm6,%xmm0
 263:	66 0f c2 c8 06       	cmpnlepd %xmm0,%xmm1
 268:	66 0f 54 e9          	andpd  %xmm1,%xmm5
 26c:	66 0f 55 c8          	andnpd %xmm0,%xmm1
 270:	66 0f 28 c4          	movapd %xmm4,%xmm0
 274:	66 0f 56 cd          	orpd   %xmm5,%xmm1
 278:	66 0f c2 c1 06       	cmpnlepd %xmm1,%xmm0
 27d:	66 0f 54 e0          	andpd  %xmm0,%xmm4
 281:	66 0f 55 c1          	andnpd %xmm1,%xmm0
 285:	66 0f 28 cb          	movapd %xmm3,%xmm1
 289:	66 0f 56 c4          	orpd   %xmm4,%xmm0
 28d:	66 0f c2 c8 06       	cmpnlepd %xmm0,%xmm1
 292:	66 0f 54 d9          	andpd  %xmm1,%xmm3
 296:	66 0f 55 c8          	andnpd %xmm0,%xmm1
 29a:	66 0f 28 c1          	movapd %xmm1,%xmm0
 29e:	66 0f 56 c3          	orpd   %xmm3,%xmm0
 2a2:	66 42 0f 29 04 02    	movapd %xmm0,(%rdx,%r8,1)
 2a8:	49 83 c0 10          	add    $0x10,%r8
 2ac:	4d 39 d0             	cmp    %r10,%r8
 2af:	0f 85 7b fd ff ff    	jne    30 <_ZNK7vecgeom3cxx25ShapeImplementationHelperINS0_23TrapezoidImplementationILin1ELin1EEEE10SafetyToInERKNS0_5SOA3DIdEEPd+0x30>
 2b5:	f3 c3                	repz retq 

Disassembly of section .text._ZNK7vecgeom3cxx25ShapeImplementationHelperINS0_23TrapezoidImplementationILin1ELin1EEEE10SafetyToInERKNS0_8Vector3DIdEE:

0000000000000000 <_ZNK7vecgeom3cxx25ShapeImplementationHelperINS0_23TrapezoidImplementationILin1ELin1EEEE10SafetyToInERKNS0_8Vector3DIdEE>:
   0:	48 8b 57 20          	mov    0x20(%rdi),%rdx
   4:	f2 0f 10 46 10       	movsd  0x10(%rsi),%xmm0
   9:	f2 0f 10 66 18       	movsd  0x18(%rsi),%xmm4
   e:	48 8b 47 18          	mov    0x18(%rdi),%rax
  12:	f2 0f 10 5e 20       	movsd  0x20(%rsi),%xmm3
  17:	f2 0f 5c 02          	subsd  (%rdx),%xmm0
  1b:	f2 0f 10 52 18       	movsd  0x18(%rdx),%xmm2
  20:	f2 0f 5c 62 08       	subsd  0x8(%rdx),%xmm4
  25:	f2 0f 10 4a 30       	movsd  0x30(%rdx),%xmm1
  2a:	f2 0f 5c 5a 10       	subsd  0x10(%rdx),%xmm3
  2f:	f2 0f 10 6a 38       	movsd  0x38(%rdx),%xmm5
  34:	48 8b 00             	mov    (%rax),%rax
  37:	f2 0f 59 d0          	mulsd  %xmm0,%xmm2
  3b:	f2 0f 59 cc          	mulsd  %xmm4,%xmm1
  3f:	f2 0f 59 ec          	mulsd  %xmm4,%xmm5
  43:	f2 0f 59 62 40       	mulsd  0x40(%rdx),%xmm4
  48:	f2 0f 58 d1          	addsd  %xmm1,%xmm2
  4c:	f2 0f 10 4a 48       	movsd  0x48(%rdx),%xmm1
  51:	f2 0f 59 cb          	mulsd  %xmm3,%xmm1
  55:	f2 0f 58 d1          	addsd  %xmm1,%xmm2
  59:	f2 0f 10 4a 20       	movsd  0x20(%rdx),%xmm1
  5e:	f2 0f 59 c8          	mulsd  %xmm0,%xmm1
  62:	f2 0f 59 42 28       	mulsd  0x28(%rdx),%xmm0
  67:	66 0f 14 d2          	unpcklpd %xmm2,%xmm2
  6b:	f2 0f 58 cd          	addsd  %xmm5,%xmm1
  6f:	f2 0f 10 6a 50       	movsd  0x50(%rdx),%xmm5
  74:	f2 0f 59 eb          	mulsd  %xmm3,%xmm5
  78:	f2 0f 59 5a 58       	mulsd  0x58(%rdx),%xmm3
  7d:	f2 0f 58 c4          	addsd  %xmm4,%xmm0
  81:	f2 0f 10 a0 a8 00 00 	movsd  0xa8(%rax),%xmm4
  88:	00 
  89:	f2 0f 58 cd          	addsd  %xmm5,%xmm1
  8d:	66 0f 16 a0 b0 00 00 	movhpd 0xb0(%rax),%xmm4
  94:	00 
  95:	f2 0f 58 c3          	addsd  %xmm3,%xmm0
  99:	f2 0f 10 1d 00 00 00 	movsd  0x0(%rip),%xmm3        # a1 <_ZNK7vecgeom3cxx25ShapeImplementationHelperINS0_23TrapezoidImplementationILin1ELin1EEEE10SafetyToInERKNS0_8Vector3DIdEE+0xa1>
  a0:	00 
  a1:	66 0f 14 c9          	unpcklpd %xmm1,%xmm1
  a5:	66 0f 54 d8          	andpd  %xmm0,%xmm3
  a9:	66 0f 28 e8          	movapd %xmm0,%xmm5
  ad:	f2 0f 10 80 88 00 00 	movsd  0x88(%rax),%xmm0
  b4:	00 
  b5:	66 0f 59 e1          	mulpd  %xmm1,%xmm4
  b9:	66 0f 16 80 90 00 00 	movhpd 0x90(%rax),%xmm0
  c0:	00 
  c1:	66 0f 14 ed          	unpcklpd %xmm5,%xmm5
  c5:	f2 0f 5c 58 20       	subsd  0x20(%rax),%xmm3
  ca:	66 0f 59 c2          	mulpd  %xmm2,%xmm0
  ce:	66 0f 58 c4          	addpd  %xmm4,%xmm0
  d2:	f2 0f 10 a0 c8 00 00 	movsd  0xc8(%rax),%xmm4
  d9:	00 
  da:	66 0f 16 a0 d0 00 00 	movhpd 0xd0(%rax),%xmm4
  e1:	00 
  e2:	66 0f 59 e5          	mulpd  %xmm5,%xmm4
  e6:	66 0f 58 c4          	addpd  %xmm4,%xmm0
  ea:	f2 0f 10 a0 e8 00 00 	movsd  0xe8(%rax),%xmm4
  f1:	00 
  f2:	66 0f 16 a0 f0 00 00 	movhpd 0xf0(%rax),%xmm4
  f9:	00 
  fa:	66 0f 58 c4          	addpd  %xmm4,%xmm0
  fe:	66 0f 29 44 24 d8    	movapd %xmm0,-0x28(%rsp)
 104:	f2 0f 10 80 98 00 00 	movsd  0x98(%rax),%xmm0
 10b:	00 
 10c:	66 0f 16 80 a0 00 00 	movhpd 0xa0(%rax),%xmm0
 113:	00 
 114:	66 0f 59 c2          	mulpd  %xmm2,%xmm0
 118:	f2 0f 10 90 b8 00 00 	movsd  0xb8(%rax),%xmm2
 11f:	00 
 120:	66 0f 16 90 c0 00 00 	movhpd 0xc0(%rax),%xmm2
 127:	00 
 128:	66 0f 59 d1          	mulpd  %xmm1,%xmm2
 12c:	f2 0f 10 88 d8 00 00 	movsd  0xd8(%rax),%xmm1
 133:	00 
 134:	66 0f 16 88 e0 00 00 	movhpd 0xe0(%rax),%xmm1
 13b:	00 
 13c:	66 0f 58 c2          	addpd  %xmm2,%xmm0
 140:	66 0f 59 cd          	mulpd  %xmm5,%xmm1
 144:	66 0f 58 c1          	addpd  %xmm1,%xmm0
 148:	f2 0f 10 88 f8 00 00 	movsd  0xf8(%rax),%xmm1
 14f:	00 
 150:	66 0f 16 88 00 01 00 	movhpd 0x100(%rax),%xmm1
 157:	00 
 158:	66 0f 58 c1          	addpd  %xmm1,%xmm0
 15c:	66 0f 29 44 24 e8    	movapd %xmm0,-0x18(%rsp)
 162:	f2 0f 10 44 24 e0    	movsd  -0x20(%rsp),%xmm0
 168:	f2 0f 5f 44 24 d8    	maxsd  -0x28(%rsp),%xmm0
 16e:	f2 0f 5f 44 24 e8    	maxsd  -0x18(%rsp),%xmm0
 174:	f2 0f 5f 44 24 f0    	maxsd  -0x10(%rsp),%xmm0
 17a:	f2 0f 5f c3          	maxsd  %xmm3,%xmm0
 17e:	c3                   	retq   

Disassembly of section .text._ZNK7vecgeom3cxx25ShapeImplementationHelperINS0_23TrapezoidImplementationILin1ELin1EEEE19PlacedDistanceToOutERKNS0_8Vector3DIdEES8_d:

0000000000000000 <_ZNK7vecgeom3cxx25ShapeImplementationHelperINS0_23TrapezoidImplementationILin1ELin1EEEE19PlacedDistanceToOutERKNS0_8Vector3DIdEES8_d>:
   0:	48 8b 47 20          	mov    0x20(%rdi),%rax
   4:	f2 44 0f 10 5a 10    	movsd  0x10(%rdx),%xmm11
   a:	f2 44 0f 10 52 18    	movsd  0x18(%rdx),%xmm10
  10:	66 41 0f 28 cb       	movapd %xmm11,%xmm1
  15:	f2 44 0f 10 4a 20    	movsd  0x20(%rdx),%xmm9
  1b:	f2 0f 10 58 28       	movsd  0x28(%rax),%xmm3
  20:	f2 0f 10 50 40       	movsd  0x40(%rax),%xmm2
  25:	66 41 0f 28 e2       	movapd %xmm10,%xmm4
  2a:	f2 0f 59 cb          	mulsd  %xmm3,%xmm1
  2e:	f2 0f 59 e2          	mulsd  %xmm2,%xmm4
  32:	f2 0f 10 76 10       	movsd  0x10(%rsi),%xmm6
  37:	f2 0f 10 6e 18       	movsd  0x18(%rsi),%xmm5
  3c:	f2 0f 10 40 58       	movsd  0x58(%rax),%xmm0
  41:	f2 0f 5c 30          	subsd  (%rax),%xmm6
  45:	f2 0f 58 cc          	addsd  %xmm4,%xmm1
  49:	66 41 0f 28 e1       	movapd %xmm9,%xmm4
  4e:	f2 0f 5c 68 08       	subsd  0x8(%rax),%xmm5
  53:	f2 0f 10 78 38       	movsd  0x38(%rax),%xmm7
  58:	f2 0f 59 e0          	mulsd  %xmm0,%xmm4
  5c:	f2 44 0f 10 78 18    	movsd  0x18(%rax),%xmm15
  62:	f2 44 0f 10 60 20    	movsd  0x20(%rax),%xmm12
  68:	f2 0f 59 de          	mulsd  %xmm6,%xmm3
  6c:	f2 0f 11 7c 24 a8    	movsd  %xmm7,-0x58(%rsp)
  72:	f2 0f 58 cc          	addsd  %xmm4,%xmm1
  76:	f2 0f 10 66 20       	movsd  0x20(%rsi),%xmm4
  7b:	f2 0f 59 d5          	mulsd  %xmm5,%xmm2
  7f:	f2 0f 5c 60 10       	subsd  0x10(%rax),%xmm4
  84:	f2 0f 10 78 50       	movsd  0x50(%rax),%xmm7
  89:	f2 44 0f 10 70 30    	movsd  0x30(%rax),%xmm14
  8f:	f2 44 0f 10 68 48    	movsd  0x48(%rax),%xmm13
  95:	48 8b 47 18          	mov    0x18(%rdi),%rax
  99:	f2 0f 58 da          	addsd  %xmm2,%xmm3
  9d:	66 0f 57 d2          	xorpd  %xmm2,%xmm2
  a1:	f2 0f 11 7c 24 b0    	movsd  %xmm7,-0x50(%rsp)
  a7:	48 8b 00             	mov    (%rax),%rax
  aa:	f2 0f 59 c4          	mulsd  %xmm4,%xmm0
  ae:	66 0f 2f d1          	comisd %xmm1,%xmm2
  b2:	f2 0f 58 d8          	addsd  %xmm0,%xmm3
  b6:	0f 93 c2             	setae  %dl
  b9:	0f 82 a1 02 00 00    	jb     360 <_ZNK7vecgeom3cxx25ShapeImplementationHelperINS0_23TrapezoidImplementationILin1ELin1EEEE19PlacedDistanceToOutERKNS0_8Vector3DIdEES8_d+0x360>
  bf:	f2 44 0f 10 05 00 00 	movsd  0x0(%rip),%xmm8        # c8 <_ZNK7vecgeom3cxx25ShapeImplementationHelperINS0_23TrapezoidImplementationILin1ELin1EEEE19PlacedDistanceToOutERKNS0_8Vector3DIdEES8_d+0xc8>
  c6:	00 00 
  c8:	f2 0f 10 3d 00 00 00 	movsd  0x0(%rip),%xmm7        # d0 <_ZNK7vecgeom3cxx25ShapeImplementationHelperINS0_23TrapezoidImplementationILin1ELin1EEEE19PlacedDistanceToOutERKNS0_8Vector3DIdEES8_d+0xd0>
  cf:	00 
  d0:	f2 0f 59 78 20       	mulsd  0x20(%rax),%xmm7
  d5:	31 c9                	xor    %ecx,%ecx
  d7:	66 0f 2f ca          	comisd %xmm2,%xmm1
  db:	f2 0f 5c fb          	subsd  %xmm3,%xmm7
  df:	76 0b                	jbe    ec <_ZNK7vecgeom3cxx25ShapeImplementationHelperINS0_23TrapezoidImplementationILin1ELin1EEEE19PlacedDistanceToOutERKNS0_8Vector3DIdEES8_d+0xec>
  e1:	66 0f 2f 3d 00 00 00 	comisd 0x0(%rip),%xmm7        # e9 <_ZNK7vecgeom3cxx25ShapeImplementationHelperINS0_23TrapezoidImplementationILin1ELin1EEEE19PlacedDistanceToOutERKNS0_8Vector3DIdEES8_d+0xe9>
  e8:	00 
  e9:	0f 96 c1             	setbe  %cl
  ec:	84 d2                	test   %dl,%dl
  ee:	74 16                	je     106 <_ZNK7vecgeom3cxx25ShapeImplementationHelperINS0_23TrapezoidImplementationILin1ELin1EEEE19PlacedDistanceToOutERKNS0_8Vector3DIdEES8_d+0x106>
  f0:	66 0f 2f 3d 00 00 00 	comisd 0x0(%rip),%xmm7        # f8 <_ZNK7vecgeom3cxx25ShapeImplementationHelperINS0_23TrapezoidImplementationILin1ELin1EEEE19PlacedDistanceToOutERKNS0_8Vector3DIdEES8_d+0xf8>
  f7:	00 
  f8:	f2 0f 10 05 00 00 00 	movsd  0x0(%rip),%xmm0        # 100 <_ZNK7vecgeom3cxx25ShapeImplementationHelperINS0_23TrapezoidImplementationILin1ELin1EEEE19PlacedDistanceToOutERKNS0_8Vector3DIdEES8_d+0x100>
  ff:	00 
 100:	0f 83 52 02 00 00    	jae    358 <_ZNK7vecgeom3cxx25ShapeImplementationHelperINS0_23TrapezoidImplementationILin1ELin1EEEE19PlacedDistanceToOutERKNS0_8Vector3DIdEES8_d+0x358>
 106:	84 c9                	test   %cl,%cl
 108:	0f 85 42 02 00 00    	jne    350 <_ZNK7vecgeom3cxx25ShapeImplementationHelperINS0_23TrapezoidImplementationILin1ELin1EEEE19PlacedDistanceToOutERKNS0_8Vector3DIdEES8_d+0x350>
 10e:	f2 44 0f 58 c1       	addsd  %xmm1,%xmm8
 113:	66 41 0f 28 c6       	movapd %xmm14,%xmm0
 118:	f2 45 0f 59 f2       	mulsd  %xmm10,%xmm14
 11d:	f2 0f 59 c5          	mulsd  %xmm5,%xmm0
 121:	66 0f 14 db          	unpcklpd %xmm3,%xmm3
 125:	f2 41 0f 5e f8       	divsd  %xmm8,%xmm7
 12a:	66 45 0f 28 c7       	movapd %xmm15,%xmm8
 12f:	f2 44 0f 59 c6       	mulsd  %xmm6,%xmm8
 134:	f2 41 0f 59 f4       	mulsd  %xmm12,%xmm6
 139:	f2 45 0f 59 fb       	mulsd  %xmm11,%xmm15
 13e:	f2 45 0f 59 dc       	mulsd  %xmm12,%xmm11
 143:	f2 44 0f 58 c0       	addsd  %xmm0,%xmm8
 148:	66 41 0f 28 c5       	movapd %xmm13,%xmm0
 14d:	f2 45 0f 59 e9       	mulsd  %xmm9,%xmm13
 152:	f2 0f 59 c4          	mulsd  %xmm4,%xmm0
 156:	f2 45 0f 58 fe       	addsd  %xmm14,%xmm15
 15b:	66 0f 14 c9          	unpcklpd %xmm1,%xmm1
 15f:	f2 44 0f 58 c0       	addsd  %xmm0,%xmm8
 164:	f2 0f 10 44 24 a8    	movsd  -0x58(%rsp),%xmm0
 16a:	f2 45 0f 58 fd       	addsd  %xmm13,%xmm15
 16f:	f2 0f 59 e8          	mulsd  %xmm0,%xmm5
 173:	f2 44 0f 59 d0       	mulsd  %xmm0,%xmm10
 178:	66 45 0f 14 c0       	unpcklpd %xmm8,%xmm8
 17d:	66 45 0f 14 ff       	unpcklpd %xmm15,%xmm15
 182:	f2 0f 58 f5          	addsd  %xmm5,%xmm6
 186:	f2 0f 10 6c 24 b0    	movsd  -0x50(%rsp),%xmm5
 18c:	f2 45 0f 58 da       	addsd  %xmm10,%xmm11
 191:	66 41 0f 28 c0       	movapd %xmm8,%xmm0
 196:	f2 0f 59 e5          	mulsd  %xmm5,%xmm4
 19a:	f2 44 0f 59 cd       	mulsd  %xmm5,%xmm9
 19f:	f2 0f 10 a8 c8 00 00 	movsd  0xc8(%rax),%xmm5
 1a6:	00 
 1a7:	f2 0f 58 f4          	addsd  %xmm4,%xmm6
 1ab:	f2 0f 10 a0 88 00 00 	movsd  0x88(%rax),%xmm4
 1b2:	00 
 1b3:	f2 45 0f 58 d9       	addsd  %xmm9,%xmm11
 1b8:	f2 44 0f 10 88 a8 00 	movsd  0xa8(%rax),%xmm9
 1bf:	00 00 
 1c1:	66 0f 16 a0 90 00 00 	movhpd 0x90(%rax),%xmm4
 1c8:	00 
 1c9:	66 0f 16 a8 d0 00 00 	movhpd 0xd0(%rax),%xmm5
 1d0:	00 
 1d1:	66 44 0f 16 88 b0 00 	movhpd 0xb0(%rax),%xmm9
 1d8:	00 00 
 1da:	66 0f 14 f6          	unpcklpd %xmm6,%xmm6
 1de:	66 0f 59 c4          	mulpd  %xmm4,%xmm0
 1e2:	66 44 0f 28 d6       	movapd %xmm6,%xmm10
 1e7:	66 45 0f 14 db       	unpcklpd %xmm11,%xmm11
 1ec:	66 45 0f 59 d1       	mulpd  %xmm9,%xmm10
 1f1:	66 41 0f 59 e7       	mulpd  %xmm15,%xmm4
 1f6:	66 45 0f 59 cb       	mulpd  %xmm11,%xmm9
 1fb:	66 41 0f 58 c2       	addpd  %xmm10,%xmm0
 200:	66 44 0f 28 d3       	movapd %xmm3,%xmm10
 205:	66 44 0f 59 d5       	mulpd  %xmm5,%xmm10
 20a:	66 41 0f 58 e1       	addpd  %xmm9,%xmm4
 20f:	66 0f 59 e9          	mulpd  %xmm1,%xmm5
 213:	f2 44 0f 10 88 98 00 	movsd  0x98(%rax),%xmm9
 21a:	00 00 
 21c:	66 41 0f 58 c2       	addpd  %xmm10,%xmm0
 221:	f2 44 0f 10 90 e8 00 	movsd  0xe8(%rax),%xmm10
 228:	00 00 
 22a:	66 44 0f 16 88 a0 00 	movhpd 0xa0(%rax),%xmm9
 231:	00 00 
 233:	66 44 0f 16 90 f0 00 	movhpd 0xf0(%rax),%xmm10
 23a:	00 00 
 23c:	66 0f 58 e5          	addpd  %xmm5,%xmm4
 240:	66 0f 28 2d 00 00 00 	movapd 0x0(%rip),%xmm5        # 248 <_ZNK7vecgeom3cxx25ShapeImplementationHelperINS0_23TrapezoidImplementationILin1ELin1EEEE19PlacedDistanceToOutERKNS0_8Vector3DIdEES8_d+0x248>
 247:	00 
 248:	66 45 0f 59 c1       	mulpd  %xmm9,%xmm8
 24d:	66 41 0f 58 c2       	addpd  %xmm10,%xmm0
 252:	66 45 0f 59 f9       	mulpd  %xmm9,%xmm15
 257:	66 0f 29 64 24 b8    	movapd %xmm4,-0x48(%rsp)
 25d:	66 0f 57 c5          	xorpd  %xmm5,%xmm0
 261:	66 0f 5e c4          	divpd  %xmm4,%xmm0
 265:	f2 0f 10 a0 b8 00 00 	movsd  0xb8(%rax),%xmm4
 26c:	00 
 26d:	66 0f 16 a0 c0 00 00 	movhpd 0xc0(%rax),%xmm4
 274:	00 
 275:	66 0f 59 f4          	mulpd  %xmm4,%xmm6
 279:	66 44 0f 59 dc       	mulpd  %xmm4,%xmm11
 27e:	66 0f 29 44 24 d8    	movapd %xmm0,-0x28(%rsp)
 284:	66 44 0f 58 c6       	addpd  %xmm6,%xmm8
 289:	66 45 0f 58 fb       	addpd  %xmm11,%xmm15
 28e:	f2 0f 10 80 d8 00 00 	movsd  0xd8(%rax),%xmm0
 295:	00 
 296:	66 0f 16 80 e0 00 00 	movhpd 0xe0(%rax),%xmm0
 29d:	00 
 29e:	66 0f 59 d8          	mulpd  %xmm0,%xmm3
 2a2:	66 0f 59 c8          	mulpd  %xmm0,%xmm1
 2a6:	f2 0f 10 44 24 d8    	movsd  -0x28(%rsp),%xmm0
 2ac:	66 44 0f 58 c3       	addpd  %xmm3,%xmm8
 2b1:	f2 0f 10 98 f8 00 00 	movsd  0xf8(%rax),%xmm3
 2b8:	00 
 2b9:	66 0f 16 98 00 01 00 	movhpd 0x100(%rax),%xmm3
 2c0:	00 
 2c1:	66 44 0f 58 f9       	addpd  %xmm1,%xmm15
 2c6:	66 44 0f 58 c3       	addpd  %xmm3,%xmm8
 2cb:	66 0f 2f c2          	comisd %xmm2,%xmm0
 2cf:	66 44 0f 29 7c 24 c8 	movapd %xmm15,-0x38(%rsp)
 2d6:	66 44 0f 57 c5       	xorpd  %xmm5,%xmm8
 2db:	66 45 0f 5e c7       	divpd  %xmm15,%xmm8
 2e0:	66 44 0f 29 44 24 e8 	movapd %xmm8,-0x18(%rsp)
 2e7:	0f 82 93 00 00 00    	jb     380 <_ZNK7vecgeom3cxx25ShapeImplementationHelperINS0_23TrapezoidImplementationILin1ELin1EEEE19PlacedDistanceToOutERKNS0_8Vector3DIdEES8_d+0x380>
 2ed:	66 0f 2f 54 24 b8    	comisd -0x48(%rsp),%xmm2
 2f3:	0f 83 87 00 00 00    	jae    380 <_ZNK7vecgeom3cxx25ShapeImplementationHelperINS0_23TrapezoidImplementationILin1ELin1EEEE19PlacedDistanceToOutERKNS0_8Vector3DIdEES8_d+0x380>
 2f9:	f2 0f 5d 05 00 00 00 	minsd  0x0(%rip),%xmm0        # 301 <_ZNK7vecgeom3cxx25ShapeImplementationHelperINS0_23TrapezoidImplementationILin1ELin1EEEE19PlacedDistanceToOutERKNS0_8Vector3DIdEES8_d+0x301>
 300:	00 
 301:	f2 0f 10 4c 24 e0    	movsd  -0x20(%rsp),%xmm1
 307:	66 0f 2f ca          	comisd %xmm2,%xmm1
 30b:	72 0c                	jb     319 <_ZNK7vecgeom3cxx25ShapeImplementationHelperINS0_23TrapezoidImplementationILin1ELin1EEEE19PlacedDistanceToOutERKNS0_8Vector3DIdEES8_d+0x319>
 30d:	66 0f 2f 54 24 c0    	comisd -0x40(%rsp),%xmm2
 313:	73 04                	jae    319 <_ZNK7vecgeom3cxx25ShapeImplementationHelperINS0_23TrapezoidImplementationILin1ELin1EEEE19PlacedDistanceToOutERKNS0_8Vector3DIdEES8_d+0x319>
 315:	f2 0f 5d c1          	minsd  %xmm1,%xmm0
 319:	f2 0f 10 4c 24 e8    	movsd  -0x18(%rsp),%xmm1
 31f:	66 0f 2f ca          	comisd %xmm2,%xmm1
 323:	72 0c                	jb     331 <_ZNK7vecgeom3cxx25ShapeImplementationHelperINS0_23TrapezoidImplementationILin1ELin1EEEE19PlacedDistanceToOutERKNS0_8Vector3DIdEES8_d+0x331>
 325:	66 0f 2f 54 24 c8    	comisd -0x38(%rsp),%xmm2
 32b:	73 04                	jae    331 <_ZNK7vecgeom3cxx25ShapeImplementationHelperINS0_23TrapezoidImplementationILin1ELin1EEEE19PlacedDistanceToOutERKNS0_8Vector3DIdEES8_d+0x331>
 32d:	f2 0f 5d c1          	minsd  %xmm1,%xmm0
 331:	f2 0f 10 4c 24 f0    	movsd  -0x10(%rsp),%xmm1
 337:	66 0f 2f ca          	comisd %xmm2,%xmm1
 33b:	72 0c                	jb     349 <_ZNK7vecgeom3cxx25ShapeImplementationHelperINS0_23TrapezoidImplementationILin1ELin1EEEE19PlacedDistanceToOutERKNS0_8Vector3DIdEES8_d+0x349>
 33d:	66 0f 2f 54 24 d0    	comisd -0x30(%rsp),%xmm2
 343:	73 04                	jae    349 <_ZNK7vecgeom3cxx25ShapeImplementationHelperINS0_23TrapezoidImplementationILin1ELin1EEEE19PlacedDistanceToOutERKNS0_8Vector3DIdEES8_d+0x349>
 345:	f2 0f 5d c1          	minsd  %xmm1,%xmm0
 349:	f2 0f 5d c7          	minsd  %xmm7,%xmm0
 34d:	c3                   	retq   
 34e:	66 90                	xchg   %ax,%ax
 350:	f2 0f 10 05 00 00 00 	movsd  0x0(%rip),%xmm0        # 358 <_ZNK7vecgeom3cxx25ShapeImplementationHelperINS0_23TrapezoidImplementationILin1ELin1EEEE19PlacedDistanceToOutERKNS0_8Vector3DIdEES8_d+0x358>
 357:	00 
 358:	f3 c3                	repz retq 
 35a:	66 0f 1f 44 00 00    	nopw   0x0(%rax,%rax,1)
 360:	f2 44 0f 10 05 00 00 	movsd  0x0(%rip),%xmm8        # 369 <_ZNK7vecgeom3cxx25ShapeImplementationHelperINS0_23TrapezoidImplementationILin1ELin1EEEE19PlacedDistanceToOutERKNS0_8Vector3DIdEES8_d+0x369>
 367:	00 00 
 369:	f2 0f 10 3d 00 00 00 	movsd  0x0(%rip),%xmm7        # 371 <_ZNK7vecgeom3cxx25ShapeImplementationHelperINS0_23TrapezoidImplementationILin1ELin1EEEE19PlacedDistanceToOutERKNS0_8Vector3DIdEES8_d+0x371>
 370:	00 
 371:	e9 5a fd ff ff       	jmpq   d0 <_ZNK7vecgeom3cxx25ShapeImplementationHelperINS0_23TrapezoidImplementationILin1ELin1EEEE19PlacedDistanceToOutERKNS0_8Vector3DIdEES8_d+0xd0>
 376:	66 2e 0f 1f 84 00 00 	nopw   %cs:0x0(%rax,%rax,1)
 37d:	00 00 00 
 380:	f2 0f 10 05 00 00 00 	movsd  0x0(%rip),%xmm0        # 388 <_ZNK7vecgeom3cxx25ShapeImplementationHelperINS0_23TrapezoidImplementationILin1ELin1EEEE19PlacedDistanceToOutERKNS0_8Vector3DIdEES8_d+0x388>
 387:	00 
 388:	e9 74 ff ff ff       	jmpq   301 <_ZNK7vecgeom3cxx25ShapeImplementationHelperINS0_23TrapezoidImplementationILin1ELin1EEEE19PlacedDistanceToOutERKNS0_8Vector3DIdEES8_d+0x301>

Disassembly of section .text._ZNK7vecgeom3cxx25ShapeImplementationHelperINS0_23TrapezoidImplementationILin1ELin1EEEE11SafetyToOutERKNS0_5SOA3DIdEEPd:

0000000000000000 <_ZNK7vecgeom3cxx25ShapeImplementationHelperINS0_23TrapezoidImplementationILin1ELin1EEEE11SafetyToOutERKNS0_5SOA3DIdEEPd>:
   0:	4c 8b 46 08          	mov    0x8(%rsi),%r8
   4:	45 85 c0             	test   %r8d,%r8d
   7:	0f 8e 1e 02 00 00    	jle    22b <_ZNK7vecgeom3cxx25ShapeImplementationHelperINS0_23TrapezoidImplementationILin1ELin1EEEE11SafetyToOutERKNS0_5SOA3DIdEEPd+0x22b>
   d:	48 8b 05 00 00 00 00 	mov    0x0(%rip),%rax        # 14 <_ZNK7vecgeom3cxx25ShapeImplementationHelperINS0_23TrapezoidImplementationILin1ELin1EEEE11SafetyToOutERKNS0_5SOA3DIdEEPd+0x14>
  14:	41 83 e8 01          	sub    $0x1,%r8d
  18:	31 c9                	xor    %ecx,%ecx
  1a:	41 d1 e8             	shr    %r8d
  1d:	66 0f 57 ff          	xorpd  %xmm7,%xmm7
  21:	49 83 c0 01          	add    $0x1,%r8
  25:	66 44 0f 28 00       	movapd (%rax),%xmm8
  2a:	49 c1 e0 04          	shl    $0x4,%r8
  2e:	48 8b 05 00 00 00 00 	mov    0x0(%rip),%rax        # 35 <_ZNK7vecgeom3cxx25ShapeImplementationHelperINS0_23TrapezoidImplementationILin1ELin1EEEE11SafetyToOutERKNS0_5SOA3DIdEEPd+0x35>
  35:	66 0f 28 30          	movapd (%rax),%xmm6
  39:	0f 1f 80 00 00 00 00 	nopl   0x0(%rax)
  40:	48 8b 46 28          	mov    0x28(%rsi),%rax
  44:	66 0f 28 24 08       	movapd (%rax,%rcx,1),%xmm4
  49:	48 8b 46 20          	mov    0x20(%rsi),%rax
  4d:	66 0f 28 cc          	movapd %xmm4,%xmm1
  51:	66 44 0f 28 14 08    	movapd (%rax,%rcx,1),%xmm10
  57:	48 8b 46 18          	mov    0x18(%rsi),%rax
  5b:	66 41 0f 54 c8       	andpd  %xmm8,%xmm1
  60:	66 44 0f 28 0c 08    	movapd (%rax,%rcx,1),%xmm9
  66:	48 8b 47 18          	mov    0x18(%rdi),%rax
  6a:	48 8b 00             	mov    (%rax),%rax
  6d:	f2 0f 10 40 20       	movsd  0x20(%rax),%xmm0
  72:	f2 0f 10 98 c8 00 00 	movsd  0xc8(%rax),%xmm3
  79:	00 
  7a:	66 0f 14 c0          	unpcklpd %xmm0,%xmm0
  7e:	66 0f 14 db          	unpcklpd %xmm3,%xmm3
  82:	f2 0f 10 90 d0 00 00 	movsd  0xd0(%rax),%xmm2
  89:	00 
  8a:	66 0f 5c c1          	subpd  %xmm1,%xmm0
  8e:	f2 0f 10 88 88 00 00 	movsd  0x88(%rax),%xmm1
  95:	00 
  96:	66 0f 59 dc          	mulpd  %xmm4,%xmm3
  9a:	66 0f 14 c9          	unpcklpd %xmm1,%xmm1
  9e:	66 0f 14 d2          	unpcklpd %xmm2,%xmm2
  a2:	66 0f 28 e8          	movapd %xmm0,%xmm5
  a6:	f2 44 0f 10 98 98 00 	movsd  0x98(%rax),%xmm11
  ad:	00 00 
  af:	66 41 0f 59 c9       	mulpd  %xmm9,%xmm1
  b4:	66 0f c2 ef 01       	cmpltpd %xmm7,%xmm5
  b9:	66 0f 59 d4          	mulpd  %xmm4,%xmm2
  bd:	66 0f 55 e8          	andnpd %xmm0,%xmm5
  c1:	f2 0f 10 80 a8 00 00 	movsd  0xa8(%rax),%xmm0
  c8:	00 
  c9:	66 45 0f 14 db       	unpcklpd %xmm11,%xmm11
  ce:	66 0f 14 c0          	unpcklpd %xmm0,%xmm0
  d2:	66 45 0f 59 d9       	mulpd  %xmm9,%xmm11
  d7:	66 41 0f 59 c2       	mulpd  %xmm10,%xmm0
  dc:	66 0f 58 c1          	addpd  %xmm1,%xmm0
  e0:	f2 0f 10 88 90 00 00 	movsd  0x90(%rax),%xmm1
  e7:	00 
  e8:	66 0f 14 c9          	unpcklpd %xmm1,%xmm1
  ec:	66 0f 58 d8          	addpd  %xmm0,%xmm3
  f0:	f2 0f 10 80 e8 00 00 	movsd  0xe8(%rax),%xmm0
  f7:	00 
  f8:	66 41 0f 59 c9       	mulpd  %xmm9,%xmm1
  fd:	66 0f 14 c0          	unpcklpd %xmm0,%xmm0
 101:	66 0f 58 d8          	addpd  %xmm0,%xmm3
 105:	f2 0f 10 80 b0 00 00 	movsd  0xb0(%rax),%xmm0
 10c:	00 
 10d:	66 0f 14 c0          	unpcklpd %xmm0,%xmm0
 111:	66 0f 57 de          	xorpd  %xmm6,%xmm3
 115:	66 41 0f 59 c2       	mulpd  %xmm10,%xmm0
 11a:	66 0f 58 c1          	addpd  %xmm1,%xmm0
 11e:	f2 0f 10 88 d8 00 00 	movsd  0xd8(%rax),%xmm1
 125:	00 
 126:	66 0f 14 c9          	unpcklpd %xmm1,%xmm1
 12a:	66 0f 58 d0          	addpd  %xmm0,%xmm2
 12e:	f2 0f 10 80 f0 00 00 	movsd  0xf0(%rax),%xmm0
 135:	00 
 136:	66 0f 59 cc          	mulpd  %xmm4,%xmm1
 13a:	66 0f 14 c0          	unpcklpd %xmm0,%xmm0
 13e:	66 0f 58 d0          	addpd  %xmm0,%xmm2
 142:	f2 0f 10 80 b8 00 00 	movsd  0xb8(%rax),%xmm0
 149:	00 
 14a:	66 0f 14 c0          	unpcklpd %xmm0,%xmm0
 14e:	66 0f 57 d6          	xorpd  %xmm6,%xmm2
 152:	66 41 0f 59 c2       	mulpd  %xmm10,%xmm0
 157:	66 41 0f 58 c3       	addpd  %xmm11,%xmm0
 15c:	66 0f 58 c8          	addpd  %xmm0,%xmm1
 160:	f2 0f 10 80 f8 00 00 	movsd  0xf8(%rax),%xmm0
 167:	00 
 168:	66 0f 14 c0          	unpcklpd %xmm0,%xmm0
 16c:	66 0f 58 c8          	addpd  %xmm0,%xmm1
 170:	f2 0f 10 80 e0 00 00 	movsd  0xe0(%rax),%xmm0
 177:	00 
 178:	66 0f 14 c0          	unpcklpd %xmm0,%xmm0
 17c:	66 0f 57 ce          	xorpd  %xmm6,%xmm1
 180:	66 0f 59 c4          	mulpd  %xmm4,%xmm0
 184:	f2 0f 10 a0 c0 00 00 	movsd  0xc0(%rax),%xmm4
 18b:	00 
 18c:	66 0f 14 e4          	unpcklpd %xmm4,%xmm4
 190:	66 41 0f 59 e2       	mulpd  %xmm10,%xmm4
 195:	f2 44 0f 10 90 a0 00 	movsd  0xa0(%rax),%xmm10
 19c:	00 00 
 19e:	66 45 0f 14 d2       	unpcklpd %xmm10,%xmm10
 1a3:	66 45 0f 59 d1       	mulpd  %xmm9,%xmm10
 1a8:	66 41 0f 58 e2       	addpd  %xmm10,%xmm4
 1ad:	66 0f 58 c4          	addpd  %xmm4,%xmm0
 1b1:	f2 0f 10 a0 00 01 00 	movsd  0x100(%rax),%xmm4
 1b8:	00 
 1b9:	66 0f 14 e4          	unpcklpd %xmm4,%xmm4
 1bd:	66 0f 58 c4          	addpd  %xmm4,%xmm0
 1c1:	66 0f 28 e3          	movapd %xmm3,%xmm4
 1c5:	66 0f c2 e5 01       	cmpltpd %xmm5,%xmm4
 1ca:	66 0f 57 c6          	xorpd  %xmm6,%xmm0
 1ce:	66 0f 54 dc          	andpd  %xmm4,%xmm3
 1d2:	66 0f 55 e5          	andnpd %xmm5,%xmm4
 1d6:	66 0f 56 e3          	orpd   %xmm3,%xmm4
 1da:	66 0f 28 da          	movapd %xmm2,%xmm3
 1de:	66 0f c2 dc 01       	cmpltpd %xmm4,%xmm3
 1e3:	66 0f 54 d3          	andpd  %xmm3,%xmm2
 1e7:	66 0f 55 dc          	andnpd %xmm4,%xmm3
 1eb:	66 0f 56 da          	orpd   %xmm2,%xmm3
 1ef:	66 0f 28 d1          	movapd %xmm1,%xmm2
 1f3:	66 0f c2 d3 01       	cmpltpd %xmm3,%xmm2
 1f8:	66 0f 54 ca          	andpd  %xmm2,%xmm1
 1fc:	66 0f 55 d3          	andnpd %xmm3,%xmm2
 200:	66 0f 56 d1          	orpd   %xmm1,%xmm2
 204:	66 0f 28 c8          	movapd %xmm0,%xmm1
 208:	66 0f c2 ca 01       	cmpltpd %xmm2,%xmm1
 20d:	66 0f 54 c1          	andpd  %xmm1,%xmm0
 211:	66 0f 55 ca          	andnpd %xmm2,%xmm1
 215:	66 0f 56 c8          	orpd   %xmm0,%xmm1
 219:	66 0f 29 0c 0a       	movapd %xmm1,(%rdx,%rcx,1)
 21e:	48 83 c1 10          	add    $0x10,%rcx
 222:	4c 39 c1             	cmp    %r8,%rcx
 225:	0f 85 15 fe ff ff    	jne    40 <_ZNK7vecgeom3cxx25ShapeImplementationHelperINS0_23TrapezoidImplementationILin1ELin1EEEE11SafetyToOutERKNS0_5SOA3DIdEEPd+0x40>
 22b:	f3 c3                	repz retq 

Disassembly of section .text._ZNK7vecgeom3cxx25ShapeImplementationHelperINS0_23TrapezoidImplementationILin1ELin1EEEE19SafetyToOutMinimizeERKNS0_5SOA3DIdEEPd:

0000000000000000 <_ZNK7vecgeom3cxx25ShapeImplementationHelperINS0_23TrapezoidImplementationILin1ELin1EEEE19SafetyToOutMinimizeERKNS0_5SOA3DIdEEPd>:
   0:	4c 8b 46 08          	mov    0x8(%rsi),%r8
   4:	45 85 c0             	test   %r8d,%r8d
   7:	0f 8e 3d 02 00 00    	jle    24a <_ZNK7vecgeom3cxx25ShapeImplementationHelperINS0_23TrapezoidImplementationILin1ELin1EEEE19SafetyToOutMinimizeERKNS0_5SOA3DIdEEPd+0x24a>
   d:	48 8b 05 00 00 00 00 	mov    0x0(%rip),%rax        # 14 <_ZNK7vecgeom3cxx25ShapeImplementationHelperINS0_23TrapezoidImplementationILin1ELin1EEEE19SafetyToOutMinimizeERKNS0_5SOA3DIdEEPd+0x14>
  14:	41 83 e8 01          	sub    $0x1,%r8d
  18:	31 c9                	xor    %ecx,%ecx
  1a:	41 d1 e8             	shr    %r8d
  1d:	66 0f 57 ff          	xorpd  %xmm7,%xmm7
  21:	49 83 c0 01          	add    $0x1,%r8
  25:	66 44 0f 28 00       	movapd (%rax),%xmm8
  2a:	49 c1 e0 04          	shl    $0x4,%r8
  2e:	48 8b 05 00 00 00 00 	mov    0x0(%rip),%rax        # 35 <_ZNK7vecgeom3cxx25ShapeImplementationHelperINS0_23TrapezoidImplementationILin1ELin1EEEE19SafetyToOutMinimizeERKNS0_5SOA3DIdEEPd+0x35>
  35:	66 0f 28 28          	movapd (%rax),%xmm5
  39:	0f 1f 80 00 00 00 00 	nopl   0x0(%rax)
  40:	48 8b 46 28          	mov    0x28(%rsi),%rax
  44:	66 0f 28 34 0a       	movapd (%rdx,%rcx,1),%xmm6
  49:	66 0f 28 24 08       	movapd (%rax,%rcx,1),%xmm4
  4e:	48 8b 46 20          	mov    0x20(%rsi),%rax
  52:	66 0f 28 cc          	movapd %xmm4,%xmm1
  56:	66 44 0f 28 1c 08    	movapd (%rax,%rcx,1),%xmm11
  5c:	48 8b 46 18          	mov    0x18(%rsi),%rax
  60:	66 41 0f 54 c8       	andpd  %xmm8,%xmm1
  65:	66 44 0f 28 14 08    	movapd (%rax,%rcx,1),%xmm10
  6b:	48 8b 47 18          	mov    0x18(%rdi),%rax
  6f:	48 8b 00             	mov    (%rax),%rax
  72:	f2 0f 10 40 20       	movsd  0x20(%rax),%xmm0
  77:	f2 0f 10 98 c8 00 00 	movsd  0xc8(%rax),%xmm3
  7e:	00 
  7f:	66 0f 14 c0          	unpcklpd %xmm0,%xmm0
  83:	66 0f 14 db          	unpcklpd %xmm3,%xmm3
  87:	f2 0f 10 90 d0 00 00 	movsd  0xd0(%rax),%xmm2
  8e:	00 
  8f:	66 0f 5c c1          	subpd  %xmm1,%xmm0
  93:	f2 0f 10 88 88 00 00 	movsd  0x88(%rax),%xmm1
  9a:	00 
  9b:	66 0f 59 dc          	mulpd  %xmm4,%xmm3
  9f:	66 0f 14 c9          	unpcklpd %xmm1,%xmm1
  a3:	66 0f 14 d2          	unpcklpd %xmm2,%xmm2
  a7:	66 44 0f 28 c8       	movapd %xmm0,%xmm9
  ac:	f2 44 0f 10 a0 98 00 	movsd  0x98(%rax),%xmm12
  b3:	00 00 
  b5:	66 41 0f 59 ca       	mulpd  %xmm10,%xmm1
  ba:	66 44 0f c2 cf 01    	cmpltpd %xmm7,%xmm9
  c0:	66 0f 59 d4          	mulpd  %xmm4,%xmm2
  c4:	66 44 0f 55 c8       	andnpd %xmm0,%xmm9
  c9:	f2 0f 10 80 a8 00 00 	movsd  0xa8(%rax),%xmm0
  d0:	00 
  d1:	66 45 0f 14 e4       	unpcklpd %xmm12,%xmm12
  d6:	66 0f 14 c0          	unpcklpd %xmm0,%xmm0
  da:	66 45 0f 59 e2       	mulpd  %xmm10,%xmm12
  df:	66 41 0f 59 c3       	mulpd  %xmm11,%xmm0
  e4:	66 0f 58 c1          	addpd  %xmm1,%xmm0
  e8:	f2 0f 10 88 90 00 00 	movsd  0x90(%rax),%xmm1
  ef:	00 
  f0:	66 0f 14 c9          	unpcklpd %xmm1,%xmm1
  f4:	66 0f 58 d8          	addpd  %xmm0,%xmm3
  f8:	f2 0f 10 80 e8 00 00 	movsd  0xe8(%rax),%xmm0
  ff:	00 
 100:	66 41 0f 59 ca       	mulpd  %xmm10,%xmm1
 105:	66 0f 14 c0          	unpcklpd %xmm0,%xmm0
 109:	66 0f 58 d8          	addpd  %xmm0,%xmm3
 10d:	f2 0f 10 80 b0 00 00 	movsd  0xb0(%rax),%xmm0
 114:	00 
 115:	66 0f 14 c0          	unpcklpd %xmm0,%xmm0
 119:	66 0f 57 dd          	xorpd  %xmm5,%xmm3
 11d:	66 41 0f 59 c3       	mulpd  %xmm11,%xmm0
 122:	66 0f 58 c1          	addpd  %xmm1,%xmm0
 126:	f2 0f 10 88 d8 00 00 	movsd  0xd8(%rax),%xmm1
 12d:	00 
 12e:	66 0f 14 c9          	unpcklpd %xmm1,%xmm1
 132:	66 0f 58 d0          	addpd  %xmm0,%xmm2
 136:	f2 0f 10 80 f0 00 00 	movsd  0xf0(%rax),%xmm0
 13d:	00 
 13e:	66 0f 59 cc          	mulpd  %xmm4,%xmm1
 142:	66 0f 14 c0          	unpcklpd %xmm0,%xmm0
 146:	66 0f 58 d0          	addpd  %xmm0,%xmm2
 14a:	f2 0f 10 80 b8 00 00 	movsd  0xb8(%rax),%xmm0
 151:	00 
 152:	66 0f 14 c0          	unpcklpd %xmm0,%xmm0
 156:	66 0f 57 d5          	xorpd  %xmm5,%xmm2
 15a:	66 41 0f 59 c3       	mulpd  %xmm11,%xmm0
 15f:	66 41 0f 58 c4       	addpd  %xmm12,%xmm0
 164:	66 0f 58 c8          	addpd  %xmm0,%xmm1
 168:	f2 0f 10 80 f8 00 00 	movsd  0xf8(%rax),%xmm0
 16f:	00 
 170:	66 0f 14 c0          	unpcklpd %xmm0,%xmm0
 174:	66 0f 58 c8          	addpd  %xmm0,%xmm1
 178:	f2 0f 10 80 e0 00 00 	movsd  0xe0(%rax),%xmm0
 17f:	00 
 180:	66 0f 14 c0          	unpcklpd %xmm0,%xmm0
 184:	66 0f 57 cd          	xorpd  %xmm5,%xmm1
 188:	66 0f 59 c4          	mulpd  %xmm4,%xmm0
 18c:	f2 0f 10 a0 c0 00 00 	movsd  0xc0(%rax),%xmm4
 193:	00 
 194:	66 0f 14 e4          	unpcklpd %xmm4,%xmm4
 198:	66 41 0f 59 e3       	mulpd  %xmm11,%xmm4
 19d:	f2 44 0f 10 98 a0 00 	movsd  0xa0(%rax),%xmm11
 1a4:	00 00 
 1a6:	66 45 0f 14 db       	unpcklpd %xmm11,%xmm11
 1ab:	66 45 0f 59 da       	mulpd  %xmm10,%xmm11
 1b0:	66 41 0f 58 e3       	addpd  %xmm11,%xmm4
 1b5:	66 0f 58 c4          	addpd  %xmm4,%xmm0
 1b9:	f2 0f 10 a0 00 01 00 	movsd  0x100(%rax),%xmm4
 1c0:	00 
 1c1:	66 0f 14 e4          	unpcklpd %xmm4,%xmm4
 1c5:	66 0f 58 c4          	addpd  %xmm4,%xmm0
 1c9:	66 0f 28 e3          	movapd %xmm3,%xmm4
 1cd:	66 41 0f c2 e1 01    	cmpltpd %xmm9,%xmm4
 1d3:	66 0f 57 c5          	xorpd  %xmm5,%xmm0
 1d7:	66 0f 54 dc          	andpd  %xmm4,%xmm3
 1db:	66 41 0f 55 e1       	andnpd %xmm9,%xmm4
 1e0:	66 0f 56 e3          	orpd   %xmm3,%xmm4
 1e4:	66 0f 28 da          	movapd %xmm2,%xmm3
 1e8:	66 0f c2 dc 01       	cmpltpd %xmm4,%xmm3
 1ed:	66 0f 54 d3          	andpd  %xmm3,%xmm2
 1f1:	66 0f 55 dc          	andnpd %xmm4,%xmm3
 1f5:	66 0f 56 da          	orpd   %xmm2,%xmm3
 1f9:	66 0f 28 d1          	movapd %xmm1,%xmm2
 1fd:	66 0f c2 d3 01       	cmpltpd %xmm3,%xmm2
 202:	66 0f 54 ca          	andpd  %xmm2,%xmm1
 206:	66 0f 55 d3          	andnpd %xmm3,%xmm2
 20a:	66 0f 56 d1          	orpd   %xmm1,%xmm2
 20e:	66 0f 28 c8          	movapd %xmm0,%xmm1
 212:	66 0f c2 ca 01       	cmpltpd %xmm2,%xmm1
 217:	66 0f 54 c1          	andpd  %xmm1,%xmm0
 21b:	66 0f 55 ca          	andnpd %xmm2,%xmm1
 21f:	66 0f 56 c8          	orpd   %xmm0,%xmm1
 223:	66 0f 28 c6          	movapd %xmm6,%xmm0
 227:	66 0f c2 c1 01       	cmpltpd %xmm1,%xmm0
 22c:	66 0f 54 f0          	andpd  %xmm0,%xmm6
 230:	66 0f 55 c1          	andnpd %xmm1,%xmm0
 234:	66 0f 56 c6          	orpd   %xmm6,%xmm0
 238:	66 0f 29 04 0a       	movapd %xmm0,(%rdx,%rcx,1)
 23d:	48 83 c1 10          	add    $0x10,%rcx
 241:	4c 39 c1             	cmp    %r8,%rcx
 244:	0f 85 f6 fd ff ff    	jne    40 <_ZNK7vecgeom3cxx25ShapeImplementationHelperINS0_23TrapezoidImplementationILin1ELin1EEEE19SafetyToOutMinimizeERKNS0_5SOA3DIdEEPd+0x40>
 24a:	f3 c3                	repz retq 

Disassembly of section .text._ZNK7vecgeom3cxx25ShapeImplementationHelperINS0_23TrapezoidImplementationILin1ELin1EEEE13DistanceToOutERKNS0_5SOA3DIdEES8_PKdPd:

0000000000000000 <_ZNK7vecgeom3cxx25ShapeImplementationHelperINS0_23TrapezoidImplementationILin1ELin1EEEE13DistanceToOutERKNS0_5SOA3DIdEES8_PKdPd>:
   0:	48 8b 46 08          	mov    0x8(%rsi),%rax
   4:	85 c0                	test   %eax,%eax
   6:	0f 8e 74 04 00 00    	jle    480 <_ZNK7vecgeom3cxx25ShapeImplementationHelperINS0_23TrapezoidImplementationILin1ELin1EEEE13DistanceToOutERKNS0_5SOA3DIdEES8_PKdPd+0x480>
   c:	48 8b 0d 00 00 00 00 	mov    0x0(%rip),%rcx        # 13 <_ZNK7vecgeom3cxx25ShapeImplementationHelperINS0_23TrapezoidImplementationILin1ELin1EEEE13DistanceToOutERKNS0_5SOA3DIdEES8_PKdPd+0x13>
  13:	83 e8 01             	sub    $0x1,%eax
  16:	4c 8b 1d 00 00 00 00 	mov    0x0(%rip),%r11        # 1d <_ZNK7vecgeom3cxx25ShapeImplementationHelperINS0_23TrapezoidImplementationILin1ELin1EEEE13DistanceToOutERKNS0_5SOA3DIdEES8_PKdPd+0x1d>
  1d:	d1 e8                	shr    %eax
  1f:	66 45 0f 57 ff       	xorpd  %xmm15,%xmm15
  24:	4c 8d 50 01          	lea    0x1(%rax),%r10
  28:	48 8b 05 00 00 00 00 	mov    0x0(%rip),%rax        # 2f <_ZNK7vecgeom3cxx25ShapeImplementationHelperINS0_23TrapezoidImplementationILin1ELin1EEEE13DistanceToOutERKNS0_5SOA3DIdEES8_PKdPd+0x2f>
  2f:	66 0f 28 39          	movapd (%rcx),%xmm7
  33:	31 c9                	xor    %ecx,%ecx
  35:	49 c1 e2 04          	shl    $0x4,%r10
  39:	66 0f 28 ef          	movapd %xmm7,%xmm5
  3d:	66 0f 29 7c 24 a8    	movapd %xmm7,-0x58(%rsp)
  43:	66 0f 28 38          	movapd (%rax),%xmm7
  47:	66 0f 29 7c 24 d8    	movapd %xmm7,-0x28(%rsp)
  4d:	66 0f 57 fd          	xorpd  %xmm5,%xmm7
  51:	66 0f 29 7c 24 e8    	movapd %xmm7,-0x18(%rsp)
  57:	e9 3d 03 00 00       	jmpq   399 <_ZNK7vecgeom3cxx25ShapeImplementationHelperINS0_23TrapezoidImplementationILin1ELin1EEEE13DistanceToOutERKNS0_5SOA3DIdEES8_PKdPd+0x399>
  5c:	0f 1f 40 00          	nopl   0x0(%rax)
  60:	66 44 0f 59 05 00 00 	mulpd  0x0(%rip),%xmm8        # 69 <_ZNK7vecgeom3cxx25ShapeImplementationHelperINS0_23TrapezoidImplementationILin1ELin1EEEE13DistanceToOutERKNS0_5SOA3DIdEES8_PKdPd+0x69>
  67:	00 00 
  69:	66 44 0f 28 d6       	movapd %xmm6,%xmm10
  6e:	66 44 0f 28 6c 24 a8 	movapd -0x58(%rsp),%xmm13
  75:	66 44 0f 28 f2       	movapd %xmm2,%xmm14
  7a:	f2 44 0f 10 88 a8 00 	movsd  0xa8(%rax),%xmm9
  81:	00 00 
  83:	66 44 0f 28 e6       	movapd %xmm6,%xmm12
  88:	f2 0f 10 88 c8 00 00 	movsd  0xc8(%rax),%xmm1
  8f:	00 
  90:	66 45 0f 14 c9       	unpcklpd %xmm9,%xmm9
  95:	66 0f 14 c9          	unpcklpd %xmm1,%xmm1
  99:	66 44 0f 58 c2       	addpd  %xmm2,%xmm8
  9e:	f2 44 0f 10 98 b0 00 	movsd  0xb0(%rax),%xmm11
  a5:	00 00 
  a7:	66 44 0f 59 f1       	mulpd  %xmm1,%xmm14
  ac:	66 0f 59 cb          	mulpd  %xmm3,%xmm1
  b0:	66 45 0f 14 db       	unpcklpd %xmm11,%xmm11
  b5:	66 41 0f 5e c0       	divpd  %xmm8,%xmm0
  ba:	f2 44 0f 10 80 88 00 	movsd  0x88(%rax),%xmm8
  c1:	00 00 
  c3:	66 45 0f 14 c0       	unpcklpd %xmm8,%xmm8
  c8:	66 45 0f 59 d0       	mulpd  %xmm8,%xmm10
  cd:	66 44 0f 59 c4       	mulpd  %xmm4,%xmm8
  d2:	66 0f 29 44 24 c8    	movapd %xmm0,-0x38(%rsp)
  d8:	66 0f 28 c7          	movapd %xmm7,%xmm0
  dc:	66 41 0f 59 c1       	mulpd  %xmm9,%xmm0
  e1:	66 44 0f 59 cd       	mulpd  %xmm5,%xmm9
  e6:	66 41 0f 58 c2       	addpd  %xmm10,%xmm0
  eb:	f2 44 0f 10 90 90 00 	movsd  0x90(%rax),%xmm10
  f2:	00 00 
  f4:	66 45 0f 58 c8       	addpd  %xmm8,%xmm9
  f9:	66 44 0f 28 c7       	movapd %xmm7,%xmm8
  fe:	66 45 0f 14 d2       	unpcklpd %xmm10,%xmm10
 103:	66 45 0f 59 c3       	mulpd  %xmm11,%xmm8
 108:	66 44 0f 58 f0       	addpd  %xmm0,%xmm14
 10d:	f2 0f 10 80 e8 00 00 	movsd  0xe8(%rax),%xmm0
 114:	00 
 115:	66 41 0f 58 c9       	addpd  %xmm9,%xmm1
 11a:	66 45 0f 59 e2       	mulpd  %xmm10,%xmm12
 11f:	66 0f 14 c0          	unpcklpd %xmm0,%xmm0
 123:	66 44 0f 59 d4       	mulpd  %xmm4,%xmm10
 128:	66 44 0f 28 ca       	movapd %xmm2,%xmm9
 12d:	66 0f 58 c8          	addpd  %xmm0,%xmm1
 131:	66 44 0f 59 dd       	mulpd  %xmm5,%xmm11
 136:	66 45 0f 58 c4       	addpd  %xmm12,%xmm8
 13b:	f2 0f 10 80 d0 00 00 	movsd  0xd0(%rax),%xmm0
 142:	00 
 143:	f2 44 0f 10 a0 b8 00 	movsd  0xb8(%rax),%xmm12
 14a:	00 00 
 14c:	66 0f 14 c0          	unpcklpd %xmm0,%xmm0
 150:	66 45 0f 58 da       	addpd  %xmm10,%xmm11
 155:	66 41 0f 57 cd       	xorpd  %xmm13,%xmm1
 15a:	66 45 0f 14 e4       	unpcklpd %xmm12,%xmm12
 15f:	66 44 0f 59 c8       	mulpd  %xmm0,%xmm9
 164:	66 44 0f 28 d7       	movapd %xmm7,%xmm10
 169:	66 0f 59 c3          	mulpd  %xmm3,%xmm0
 16d:	66 45 0f 59 d4       	mulpd  %xmm12,%xmm10
 172:	66 45 0f 58 c8       	addpd  %xmm8,%xmm9
 177:	f2 44 0f 10 80 f0 00 	movsd  0xf0(%rax),%xmm8
 17e:	00 00 
 180:	66 41 0f 58 c3       	addpd  %xmm11,%xmm0
 185:	f2 44 0f 10 98 98 00 	movsd  0x98(%rax),%xmm11
 18c:	00 00 
 18e:	66 45 0f 14 c0       	unpcklpd %xmm8,%xmm8
 193:	66 45 0f 14 db       	unpcklpd %xmm11,%xmm11
 198:	66 44 0f 59 e5       	mulpd  %xmm5,%xmm12
 19d:	66 41 0f 58 c0       	addpd  %xmm8,%xmm0
 1a2:	66 44 0f 28 c2       	movapd %xmm2,%xmm8
 1a7:	66 41 0f 57 c5       	xorpd  %xmm13,%xmm0
 1ac:	f2 44 0f 10 a8 d8 00 	movsd  0xd8(%rax),%xmm13
 1b3:	00 00 
 1b5:	66 45 0f 14 ed       	unpcklpd %xmm13,%xmm13
 1ba:	66 45 0f 59 c5       	mulpd  %xmm13,%xmm8
 1bf:	66 44 0f 59 eb       	mulpd  %xmm3,%xmm13
 1c4:	66 44 0f 29 44 24 b8 	movapd %xmm8,-0x48(%rsp)
 1cb:	66 44 0f 28 c6       	movapd %xmm6,%xmm8
 1d0:	66 41 0f 5e ce       	divpd  %xmm14,%xmm1
 1d5:	66 45 0f 59 c3       	mulpd  %xmm11,%xmm8
 1da:	66 44 0f 59 dc       	mulpd  %xmm4,%xmm11
 1df:	66 45 0f 58 d0       	addpd  %xmm8,%xmm10
 1e4:	66 44 0f 28 44 24 a8 	movapd -0x58(%rsp),%xmm8
 1eb:	66 45 0f 58 e3       	addpd  %xmm11,%xmm12
 1f0:	66 41 0f 5e c1       	divpd  %xmm9,%xmm0
 1f5:	66 45 0f c2 cf 06    	cmpnlepd %xmm15,%xmm9
 1fb:	66 44 0f 58 54 24 b8 	addpd  -0x48(%rsp),%xmm10
 202:	66 45 0f 58 ec       	addpd  %xmm12,%xmm13
 207:	66 44 0f 29 54 24 b8 	movapd %xmm10,-0x48(%rsp)
 20e:	f2 44 0f 10 90 f8 00 	movsd  0xf8(%rax),%xmm10
 215:	00 00 
 217:	f2 44 0f 10 98 c0 00 	movsd  0xc0(%rax),%xmm11
 21e:	00 00 
 220:	66 45 0f 14 d2       	unpcklpd %xmm10,%xmm10
 225:	66 45 0f 14 db       	unpcklpd %xmm11,%xmm11
 22a:	f2 44 0f 10 a0 e0 00 	movsd  0xe0(%rax),%xmm12
 231:	00 00 
 233:	66 45 0f 58 ea       	addpd  %xmm10,%xmm13
 238:	f2 44 0f 10 90 a0 00 	movsd  0xa0(%rax),%xmm10
 23f:	00 00 
 241:	66 41 0f 59 eb       	mulpd  %xmm11,%xmm5
 246:	66 45 0f 14 d2       	unpcklpd %xmm10,%xmm10
 24b:	66 45 0f 14 e4       	unpcklpd %xmm12,%xmm12
 250:	66 41 0f 59 fb       	mulpd  %xmm11,%xmm7
 255:	66 41 0f 59 e2       	mulpd  %xmm10,%xmm4
 25a:	66 41 0f 59 dc       	mulpd  %xmm12,%xmm3
 25f:	66 41 0f 59 f2       	mulpd  %xmm10,%xmm6
 264:	66 0f 58 ec          	addpd  %xmm4,%xmm5
 268:	f2 0f 10 a0 00 01 00 	movsd  0x100(%rax),%xmm4
 26f:	00 
 270:	66 45 0f 57 e8       	xorpd  %xmm8,%xmm13
 275:	66 0f 14 e4          	unpcklpd %xmm4,%xmm4
 279:	66 0f 58 fe          	addpd  %xmm6,%xmm7
 27d:	66 41 0f 59 d4       	mulpd  %xmm12,%xmm2
 282:	66 0f 58 dd          	addpd  %xmm5,%xmm3
 286:	66 44 0f 5e 6c 24 b8 	divpd  -0x48(%rsp),%xmm13
 28d:	66 0f 28 f1          	movapd %xmm1,%xmm6
 291:	66 0f 58 d7          	addpd  %xmm7,%xmm2
 295:	66 0f 28 7c 24 c8    	movapd -0x38(%rsp),%xmm7
 29b:	66 0f 58 dc          	addpd  %xmm4,%xmm3
 29f:	66 41 0f 28 e6       	movapd %xmm14,%xmm4
 2a4:	66 41 0f c2 f7 05    	cmpnltpd %xmm15,%xmm6
 2aa:	66 41 0f c2 e7 06    	cmpnlepd %xmm15,%xmm4
 2b0:	66 0f 28 e9          	movapd %xmm1,%xmm5
 2b4:	66 0f c2 2d 00 00 00 	cmpltpd 0x0(%rip),%xmm5        # 2bd <_ZNK7vecgeom3cxx25ShapeImplementationHelperINS0_23TrapezoidImplementationILin1ELin1EEEE13DistanceToOutERKNS0_5SOA3DIdEES8_PKdPd+0x2bd>
 2bb:	00 01 
 2bd:	66 41 0f 57 d8       	xorpd  %xmm8,%xmm3
 2c2:	0f 54 e6             	andps  %xmm6,%xmm4
 2c5:	66 44 0f 28 44 24 b8 	movapd -0x48(%rsp),%xmm8
 2cc:	66 41 0f 28 f5       	movapd %xmm13,%xmm6
 2d1:	66 45 0f c2 c7 06    	cmpnlepd %xmm15,%xmm8
 2d7:	0f 54 e5             	andps  %xmm5,%xmm4
 2da:	66 0f 28 e8          	movapd %xmm0,%xmm5
 2de:	66 0f 54 cc          	andpd  %xmm4,%xmm1
 2e2:	66 0f 55 25 00 00 00 	andnpd 0x0(%rip),%xmm4        # 2ea <_ZNK7vecgeom3cxx25ShapeImplementationHelperINS0_23TrapezoidImplementationILin1ELin1EEEE13DistanceToOutERKNS0_5SOA3DIdEES8_PKdPd+0x2ea>
 2e9:	00 
 2ea:	66 41 0f c2 ef 05    	cmpnltpd %xmm15,%xmm5
 2f0:	44 0f 54 cd          	andps  %xmm5,%xmm9
 2f4:	66 0f 56 e1          	orpd   %xmm1,%xmm4
 2f8:	66 0f 28 c8          	movapd %xmm0,%xmm1
 2fc:	66 0f c2 cc 01       	cmpltpd %xmm4,%xmm1
 301:	66 0f 5e da          	divpd  %xmm2,%xmm3
 305:	66 41 0f c2 d7 06    	cmpnlepd %xmm15,%xmm2
 30b:	44 0f 54 c9          	andps  %xmm1,%xmm9
 30f:	66 41 0f 28 cd       	movapd %xmm13,%xmm1
 314:	66 41 0f 54 c1       	andpd  %xmm9,%xmm0
 319:	66 44 0f 55 cc       	andnpd %xmm4,%xmm9
 31e:	66 41 0f c2 cf 05    	cmpnltpd %xmm15,%xmm1
 324:	66 44 0f 56 c8       	orpd   %xmm0,%xmm9
 329:	44 0f 54 c1          	andps  %xmm1,%xmm8
 32d:	66 0f 28 cb          	movapd %xmm3,%xmm1
 331:	66 41 0f c2 f1 01    	cmpltpd %xmm9,%xmm6
 337:	66 41 0f c2 cf 05    	cmpnltpd %xmm15,%xmm1
 33d:	44 0f 54 c6          	andps  %xmm6,%xmm8
 341:	66 0f 28 f3          	movapd %xmm3,%xmm6
 345:	0f 54 d1             	andps  %xmm1,%xmm2
 348:	66 45 0f 54 e8       	andpd  %xmm8,%xmm13
 34d:	66 45 0f 55 c1       	andnpd %xmm9,%xmm8
 352:	66 45 0f 56 c5       	orpd   %xmm13,%xmm8
 357:	66 41 0f c2 f0 01    	cmpltpd %xmm8,%xmm6
 35d:	0f 54 d6             	andps  %xmm6,%xmm2
 360:	66 0f 54 da          	andpd  %xmm2,%xmm3
 364:	66 41 0f 55 d0       	andnpd %xmm8,%xmm2
 369:	66 0f 56 d3          	orpd   %xmm3,%xmm2
 36d:	66 0f 28 da          	movapd %xmm2,%xmm3
 371:	66 0f c2 df 01       	cmpltpd %xmm7,%xmm3
 376:	66 0f 28 c3          	movapd %xmm3,%xmm0
 37a:	66 0f 54 d3          	andpd  %xmm3,%xmm2
 37e:	66 0f 55 c7          	andnpd %xmm7,%xmm0
 382:	66 0f 56 c2          	orpd   %xmm2,%xmm0
 386:	66 41 0f 29 04 08    	movapd %xmm0,(%r8,%rcx,1)
 38c:	48 83 c1 10          	add    $0x10,%rcx
 390:	4c 39 d1             	cmp    %r10,%rcx
 393:	0f 84 e7 00 00 00    	je     480 <_ZNK7vecgeom3cxx25ShapeImplementationHelperINS0_23TrapezoidImplementationILin1ELin1EEEE13DistanceToOutERKNS0_5SOA3DIdEES8_PKdPd+0x480>
 399:	48 8b 46 28          	mov    0x28(%rsi),%rax
 39d:	66 0f 28 44 24 e8    	movapd -0x18(%rsp),%xmm0
 3a3:	66 0f 28 1c 08       	movapd (%rax,%rcx,1),%xmm3
 3a8:	48 8b 46 20          	mov    0x20(%rsi),%rax
 3ac:	66 0f 28 2c 08       	movapd (%rax,%rcx,1),%xmm5
 3b1:	48 8b 46 18          	mov    0x18(%rsi),%rax
 3b5:	66 0f 28 24 08       	movapd (%rax,%rcx,1),%xmm4
 3ba:	48 8b 42 28          	mov    0x28(%rdx),%rax
 3be:	66 0f 28 14 08       	movapd (%rax,%rcx,1),%xmm2
 3c3:	48 8b 42 20          	mov    0x20(%rdx),%rax
 3c7:	66 44 0f 28 ca       	movapd %xmm2,%xmm9
 3cc:	66 44 0f 28 d2       	movapd %xmm2,%xmm10
 3d1:	66 44 0f c2 0d 00 00 	cmplepd 0x0(%rip),%xmm9        # 3db <_ZNK7vecgeom3cxx25ShapeImplementationHelperINS0_23TrapezoidImplementationILin1ELin1EEEE13DistanceToOutERKNS0_5SOA3DIdEES8_PKdPd+0x3db>
 3d8:	00 00 02 
 3db:	66 0f 28 3c 08       	movapd (%rax,%rcx,1),%xmm7
 3e0:	48 8b 42 18          	mov    0x18(%rdx),%rax
 3e4:	66 45 0f c2 d7 06    	cmpnlepd %xmm15,%xmm10
 3ea:	66 45 0f 28 c1       	movapd %xmm9,%xmm8
 3ef:	66 41 0f 54 c1       	andpd  %xmm9,%xmm0
 3f4:	66 0f 28 34 08       	movapd (%rax,%rcx,1),%xmm6
 3f9:	48 8b 47 18          	mov    0x18(%rdi),%rax
 3fd:	66 44 0f 55 44 24 d8 	andnpd -0x28(%rsp),%xmm8
 404:	48 8b 00             	mov    (%rax),%rax
 407:	66 44 0f 56 c0       	orpd   %xmm0,%xmm8
 40c:	f2 0f 10 40 20       	movsd  0x20(%rax),%xmm0
 411:	66 0f 14 c0          	unpcklpd %xmm0,%xmm0
 415:	66 41 0f 59 c0       	mulpd  %xmm8,%xmm0
 41a:	66 0f 5c c3          	subpd  %xmm3,%xmm0
 41e:	66 0f 28 c8          	movapd %xmm0,%xmm1
 422:	66 0f c2 0d 00 00 00 	cmplepd 0x0(%rip),%xmm1        # 42b <_ZNK7vecgeom3cxx25ShapeImplementationHelperINS0_23TrapezoidImplementationILin1ELin1EEEE13DistanceToOutERKNS0_5SOA3DIdEES8_PKdPd+0x42b>
 429:	00 02 
 42b:	41 0f 54 ca          	andps  %xmm10,%xmm1
 42f:	66 44 0f 28 d0       	movapd %xmm0,%xmm10
 434:	66 44 0f c2 15 00 00 	cmpnltpd 0x0(%rip),%xmm10        # 43e <_ZNK7vecgeom3cxx25ShapeImplementationHelperINS0_23TrapezoidImplementationILin1ELin1EEEE13DistanceToOutERKNS0_5SOA3DIdEES8_PKdPd+0x43e>
 43b:	00 00 05 
 43e:	41 0f 56 0b          	orps   (%r11),%xmm1
 442:	45 0f 54 ca          	andps  %xmm10,%xmm9
 446:	41 0f 56 c9          	orps   %xmm9,%xmm1
 44a:	66 44 0f d7 c9       	pmovmskb %xmm1,%r9d
 44f:	41 81 f9 ff ff 00 00 	cmp    $0xffff,%r9d
 456:	0f 85 04 fc ff ff    	jne    60 <_ZNK7vecgeom3cxx25ShapeImplementationHelperINS0_23TrapezoidImplementationILin1ELin1EEEE13DistanceToOutERKNS0_5SOA3DIdEES8_PKdPd+0x60>
 45c:	66 0f 28 05 00 00 00 	movapd 0x0(%rip),%xmm0        # 464 <_ZNK7vecgeom3cxx25ShapeImplementationHelperINS0_23TrapezoidImplementationILin1ELin1EEEE13DistanceToOutERKNS0_5SOA3DIdEES8_PKdPd+0x464>
 463:	00 
 464:	66 41 0f 29 04 08    	movapd %xmm0,(%r8,%rcx,1)
 46a:	48 83 c1 10          	add    $0x10,%rcx
 46e:	4c 39 d1             	cmp    %r10,%rcx
 471:	0f 85 22 ff ff ff    	jne    399 <_ZNK7vecgeom3cxx25ShapeImplementationHelperINS0_23TrapezoidImplementationILin1ELin1EEEE13DistanceToOutERKNS0_5SOA3DIdEES8_PKdPd+0x399>
 477:	66 0f 1f 84 00 00 00 	nopw   0x0(%rax,%rax,1)
 47e:	00 00 
 480:	f3 c3                	repz retq 

Disassembly of section .text._ZNK7vecgeom3cxx25ShapeImplementationHelperINS0_23TrapezoidImplementationILin1ELin1EEEE13DistanceToOutERKNS0_5SOA3DIdEES8_PKdPdPi:

0000000000000000 <_ZNK7vecgeom3cxx25ShapeImplementationHelperINS0_23TrapezoidImplementationILin1ELin1EEEE13DistanceToOutERKNS0_5SOA3DIdEES8_PKdPdPi>:
   0:	48 8b 46 08          	mov    0x8(%rsi),%rax
   4:	85 c0                	test   %eax,%eax
   6:	0f 8e bb 04 00 00    	jle    4c7 <_ZNK7vecgeom3cxx25ShapeImplementationHelperINS0_23TrapezoidImplementationILin1ELin1EEEE13DistanceToOutERKNS0_5SOA3DIdEES8_PKdPdPi+0x4c7>
   c:	55                   	push   %rbp
   d:	83 e8 01             	sub    $0x1,%eax
  10:	4c 8b 15 00 00 00 00 	mov    0x0(%rip),%r10        # 17 <_ZNK7vecgeom3cxx25ShapeImplementationHelperINS0_23TrapezoidImplementationILin1ELin1EEEE13DistanceToOutERKNS0_5SOA3DIdEES8_PKdPdPi+0x17>
  17:	d1 e8                	shr    %eax
  19:	48 8b 2d 00 00 00 00 	mov    0x0(%rip),%rbp        # 20 <_ZNK7vecgeom3cxx25ShapeImplementationHelperINS0_23TrapezoidImplementationILin1ELin1EEEE13DistanceToOutERKNS0_5SOA3DIdEES8_PKdPdPi+0x20>
  20:	53                   	push   %rbx
  21:	48 8d 58 01          	lea    0x1(%rax),%rbx
  25:	48 8b 05 00 00 00 00 	mov    0x0(%rip),%rax        # 2c <_ZNK7vecgeom3cxx25ShapeImplementationHelperINS0_23TrapezoidImplementationILin1ELin1EEEE13DistanceToOutERKNS0_5SOA3DIdEES8_PKdPdPi+0x2c>
  2c:	66 41 0f 28 3a       	movapd (%r10),%xmm7
  31:	4d 8d 51 04          	lea    0x4(%r9),%r10
  35:	66 45 0f 57 ff       	xorpd  %xmm15,%xmm15
  3a:	48 c1 e3 04          	shl    $0x4,%rbx
  3e:	66 0f 28 30          	movapd (%rax),%xmm6
  42:	45 31 c9             	xor    %r9d,%r9d
  45:	66 0f 29 74 24 d8    	movapd %xmm6,-0x28(%rsp)
  4b:	66 0f 57 f7          	xorpd  %xmm7,%xmm6
  4f:	66 0f 29 7c 24 98    	movapd %xmm7,-0x68(%rsp)
  55:	66 0f 29 74 24 e8    	movapd %xmm6,-0x18(%rsp)
  5b:	0f 1f 44 00 00       	nopl   0x0(%rax,%rax,1)
  60:	48 8b 46 28          	mov    0x28(%rsi),%rax
  64:	66 0f 28 44 24 e8    	movapd -0x18(%rsp),%xmm0
  6a:	66 42 0f 28 1c 08    	movapd (%rax,%r9,1),%xmm3
  70:	48 8b 46 20          	mov    0x20(%rsi),%rax
  74:	66 42 0f 28 0c 09    	movapd (%rcx,%r9,1),%xmm1
  7a:	66 42 0f 28 2c 08    	movapd (%rax,%r9,1),%xmm5
  80:	48 8b 46 18          	mov    0x18(%rsi),%rax
  84:	66 0f 29 4c 24 b8    	movapd %xmm1,-0x48(%rsp)
  8a:	66 42 0f 28 24 08    	movapd (%rax,%r9,1),%xmm4
  90:	48 8b 42 28          	mov    0x28(%rdx),%rax
  94:	66 44 0f 28 05 00 00 	movapd 0x0(%rip),%xmm8        # 9d <_ZNK7vecgeom3cxx25ShapeImplementationHelperINS0_23TrapezoidImplementationILin1ELin1EEEE13DistanceToOutERKNS0_5SOA3DIdEES8_PKdPdPi+0x9d>
  9b:	00 00 
  9d:	66 42 0f 28 14 08    	movapd (%rax,%r9,1),%xmm2
  a3:	48 8b 42 20          	mov    0x20(%rdx),%rax
  a7:	66 44 0f 28 d2       	movapd %xmm2,%xmm10
  ac:	66 44 0f 28 da       	movapd %xmm2,%xmm11
  b1:	66 44 0f c2 15 00 00 	cmplepd 0x0(%rip),%xmm10        # bb <_ZNK7vecgeom3cxx25ShapeImplementationHelperINS0_23TrapezoidImplementationILin1ELin1EEEE13DistanceToOutERKNS0_5SOA3DIdEES8_PKdPdPi+0xbb>
  b8:	00 00 02 
  bb:	66 42 0f 28 3c 08    	movapd (%rax,%r9,1),%xmm7
  c1:	48 8b 42 18          	mov    0x18(%rdx),%rax
  c5:	66 45 0f c2 df 06    	cmpnlepd %xmm15,%xmm11
  cb:	66 45 0f 28 ca       	movapd %xmm10,%xmm9
  d0:	66 41 0f 54 c2       	andpd  %xmm10,%xmm0
  d5:	66 42 0f 28 34 08    	movapd (%rax,%r9,1),%xmm6
  db:	48 8b 47 18          	mov    0x18(%rdi),%rax
  df:	66 44 0f 55 4c 24 d8 	andnpd -0x28(%rsp),%xmm9
  e6:	48 8b 00             	mov    (%rax),%rax
  e9:	66 44 0f 56 c8       	orpd   %xmm0,%xmm9
  ee:	f2 0f 10 40 20       	movsd  0x20(%rax),%xmm0
  f3:	66 0f 14 c0          	unpcklpd %xmm0,%xmm0
  f7:	66 41 0f 59 c1       	mulpd  %xmm9,%xmm0
  fc:	66 0f 5c c3          	subpd  %xmm3,%xmm0
 100:	66 0f 28 c8          	movapd %xmm0,%xmm1
 104:	66 0f c2 0d 00 00 00 	cmplepd 0x0(%rip),%xmm1        # 10d <_ZNK7vecgeom3cxx25ShapeImplementationHelperINS0_23TrapezoidImplementationILin1ELin1EEEE13DistanceToOutERKNS0_5SOA3DIdEES8_PKdPdPi+0x10d>
 10b:	00 02 
 10d:	41 0f 54 cb          	andps  %xmm11,%xmm1
 111:	66 44 0f 28 d8       	movapd %xmm0,%xmm11
 116:	66 44 0f c2 1d 00 00 	cmpnltpd 0x0(%rip),%xmm11        # 120 <_ZNK7vecgeom3cxx25ShapeImplementationHelperINS0_23TrapezoidImplementationILin1ELin1EEEE13DistanceToOutERKNS0_5SOA3DIdEES8_PKdPdPi+0x120>
 11d:	00 00 05 
 120:	0f 56 4d 00          	orps   0x0(%rbp),%xmm1
 124:	45 0f 54 d3          	andps  %xmm11,%xmm10
 128:	41 0f 56 ca          	orps   %xmm10,%xmm1
 12c:	66 44 0f d7 d9       	pmovmskb %xmm1,%r11d
 131:	66 41 0f 28 c8       	movapd %xmm8,%xmm1
 136:	41 81 fb ff ff 00 00 	cmp    $0xffff,%r11d
 13d:	0f 84 32 03 00 00    	je     475 <_ZNK7vecgeom3cxx25ShapeImplementationHelperINS0_23TrapezoidImplementationILin1ELin1EEEE13DistanceToOutERKNS0_5SOA3DIdEES8_PKdPdPi+0x475>
 143:	66 44 0f 59 0d 00 00 	mulpd  0x0(%rip),%xmm9        # 14c <_ZNK7vecgeom3cxx25ShapeImplementationHelperINS0_23TrapezoidImplementationILin1ELin1EEEE13DistanceToOutERKNS0_5SOA3DIdEES8_PKdPdPi+0x14c>
 14a:	00 00 
 14c:	66 44 0f 28 e7       	movapd %xmm7,%xmm12
 151:	66 44 0f 28 6c 24 98 	movapd -0x68(%rsp),%xmm13
 158:	66 44 0f 28 d6       	movapd %xmm6,%xmm10
 15d:	f2 44 0f 10 80 88 00 	movsd  0x88(%rax),%xmm8
 164:	00 00 
 166:	66 44 0f 28 f2       	movapd %xmm2,%xmm14
 16b:	f2 0f 10 88 c8 00 00 	movsd  0xc8(%rax),%xmm1
 172:	00 
 173:	66 45 0f 14 c0       	unpcklpd %xmm8,%xmm8
 178:	66 0f 14 c9          	unpcklpd %xmm1,%xmm1
 17c:	66 44 0f 58 ca       	addpd  %xmm2,%xmm9
 181:	f2 44 0f 10 98 b0 00 	movsd  0xb0(%rax),%xmm11
 188:	00 00 
 18a:	66 45 0f 59 d0       	mulpd  %xmm8,%xmm10
 18f:	66 44 0f 59 c4       	mulpd  %xmm4,%xmm8
 194:	66 44 0f 59 f1       	mulpd  %xmm1,%xmm14
 199:	66 0f 59 cb          	mulpd  %xmm3,%xmm1
 19d:	66 45 0f 14 db       	unpcklpd %xmm11,%xmm11
 1a2:	66 41 0f 5e c1       	divpd  %xmm9,%xmm0
 1a7:	f2 44 0f 10 88 a8 00 	movsd  0xa8(%rax),%xmm9
 1ae:	00 00 
 1b0:	66 45 0f 14 c9       	unpcklpd %xmm9,%xmm9
 1b5:	66 45 0f 59 e1       	mulpd  %xmm9,%xmm12
 1ba:	66 44 0f 59 cd       	mulpd  %xmm5,%xmm9
 1bf:	66 0f 29 44 24 c8    	movapd %xmm0,-0x38(%rsp)
 1c5:	66 41 0f 28 c4       	movapd %xmm12,%xmm0
 1ca:	66 44 0f 28 e6       	movapd %xmm6,%xmm12
 1cf:	66 41 0f 58 c2       	addpd  %xmm10,%xmm0
 1d4:	f2 44 0f 10 90 90 00 	movsd  0x90(%rax),%xmm10
 1db:	00 00 
 1dd:	66 45 0f 58 c8       	addpd  %xmm8,%xmm9
 1e2:	66 45 0f 14 d2       	unpcklpd %xmm10,%xmm10
 1e7:	66 44 0f 28 c7       	movapd %xmm7,%xmm8
 1ec:	66 44 0f 58 f0       	addpd  %xmm0,%xmm14
 1f1:	f2 0f 10 80 e8 00 00 	movsd  0xe8(%rax),%xmm0
 1f8:	00 
 1f9:	66 45 0f 59 e2       	mulpd  %xmm10,%xmm12
 1fe:	66 41 0f 58 c9       	addpd  %xmm9,%xmm1
 203:	66 0f 14 c0          	unpcklpd %xmm0,%xmm0
 207:	66 44 0f 59 d4       	mulpd  %xmm4,%xmm10
 20c:	66 44 0f 28 ca       	movapd %xmm2,%xmm9
 211:	66 45 0f 59 c3       	mulpd  %xmm11,%xmm8
 216:	66 0f 58 c8          	addpd  %xmm0,%xmm1
 21a:	66 44 0f 59 dd       	mulpd  %xmm5,%xmm11
 21f:	f2 0f 10 80 d0 00 00 	movsd  0xd0(%rax),%xmm0
 226:	00 
 227:	66 45 0f 58 c4       	addpd  %xmm12,%xmm8
 22c:	f2 44 0f 10 a0 b8 00 	movsd  0xb8(%rax),%xmm12
 233:	00 00 
 235:	66 0f 14 c0          	unpcklpd %xmm0,%xmm0
 239:	66 45 0f 58 da       	addpd  %xmm10,%xmm11
 23e:	66 41 0f 57 cd       	xorpd  %xmm13,%xmm1
 243:	66 45 0f 14 e4       	unpcklpd %xmm12,%xmm12
 248:	66 44 0f 59 c8       	mulpd  %xmm0,%xmm9
 24d:	66 44 0f 28 d7       	movapd %xmm7,%xmm10
 252:	66 0f 59 c3          	mulpd  %xmm3,%xmm0
 256:	66 45 0f 59 d4       	mulpd  %xmm12,%xmm10
 25b:	66 45 0f 58 c8       	addpd  %xmm8,%xmm9
 260:	f2 44 0f 10 80 f0 00 	movsd  0xf0(%rax),%xmm8
 267:	00 00 
 269:	66 41 0f 58 c3       	addpd  %xmm11,%xmm0
 26e:	f2 44 0f 10 98 98 00 	movsd  0x98(%rax),%xmm11
 275:	00 00 
 277:	66 45 0f 14 c0       	unpcklpd %xmm8,%xmm8
 27c:	66 45 0f 14 db       	unpcklpd %xmm11,%xmm11
 281:	66 44 0f 59 e5       	mulpd  %xmm5,%xmm12
 286:	66 41 0f 58 c0       	addpd  %xmm8,%xmm0
 28b:	66 44 0f 28 c2       	movapd %xmm2,%xmm8
 290:	66 41 0f 57 c5       	xorpd  %xmm13,%xmm0
 295:	f2 44 0f 10 a8 d8 00 	movsd  0xd8(%rax),%xmm13
 29c:	00 00 
 29e:	66 45 0f 14 ed       	unpcklpd %xmm13,%xmm13
 2a3:	66 45 0f 59 c5       	mulpd  %xmm13,%xmm8
 2a8:	66 44 0f 59 eb       	mulpd  %xmm3,%xmm13
 2ad:	66 44 0f 29 44 24 a8 	movapd %xmm8,-0x58(%rsp)
 2b4:	66 44 0f 28 c6       	movapd %xmm6,%xmm8
 2b9:	66 41 0f 5e ce       	divpd  %xmm14,%xmm1
 2be:	66 45 0f 59 c3       	mulpd  %xmm11,%xmm8
 2c3:	66 44 0f 59 dc       	mulpd  %xmm4,%xmm11
 2c8:	66 45 0f 58 d0       	addpd  %xmm8,%xmm10
 2cd:	66 44 0f 28 44 24 98 	movapd -0x68(%rsp),%xmm8
 2d4:	66 45 0f 58 e3       	addpd  %xmm11,%xmm12
 2d9:	66 41 0f 5e c1       	divpd  %xmm9,%xmm0
 2de:	66 45 0f c2 cf 06    	cmpnlepd %xmm15,%xmm9
 2e4:	66 44 0f 58 54 24 a8 	addpd  -0x58(%rsp),%xmm10
 2eb:	66 45 0f 58 ec       	addpd  %xmm12,%xmm13
 2f0:	66 44 0f 29 54 24 a8 	movapd %xmm10,-0x58(%rsp)
 2f7:	f2 44 0f 10 90 f8 00 	movsd  0xf8(%rax),%xmm10
 2fe:	00 00 
 300:	f2 44 0f 10 98 c0 00 	movsd  0xc0(%rax),%xmm11
 307:	00 00 
 309:	66 45 0f 14 d2       	unpcklpd %xmm10,%xmm10
 30e:	66 45 0f 14 db       	unpcklpd %xmm11,%xmm11
 313:	f2 44 0f 10 a0 e0 00 	movsd  0xe0(%rax),%xmm12
 31a:	00 00 
 31c:	66 45 0f 58 ea       	addpd  %xmm10,%xmm13
 321:	f2 44 0f 10 90 a0 00 	movsd  0xa0(%rax),%xmm10
 328:	00 00 
 32a:	66 41 0f 59 eb       	mulpd  %xmm11,%xmm5
 32f:	66 45 0f 14 d2       	unpcklpd %xmm10,%xmm10
 334:	66 45 0f 14 e4       	unpcklpd %xmm12,%xmm12
 339:	66 41 0f 59 fb       	mulpd  %xmm11,%xmm7
 33e:	66 41 0f 59 e2       	mulpd  %xmm10,%xmm4
 343:	66 41 0f 59 dc       	mulpd  %xmm12,%xmm3
 348:	66 41 0f 59 f2       	mulpd  %xmm10,%xmm6
 34d:	66 0f 58 ec          	addpd  %xmm4,%xmm5
 351:	f2 0f 10 a0 00 01 00 	movsd  0x100(%rax),%xmm4
 358:	00 
 359:	66 45 0f 57 e8       	xorpd  %xmm8,%xmm13
 35e:	66 0f 14 e4          	unpcklpd %xmm4,%xmm4
 362:	66 0f 58 fe          	addpd  %xmm6,%xmm7
 366:	66 41 0f 59 d4       	mulpd  %xmm12,%xmm2
 36b:	66 0f 58 dd          	addpd  %xmm5,%xmm3
 36f:	66 44 0f 5e 6c 24 a8 	divpd  -0x58(%rsp),%xmm13
 376:	66 0f 28 f1          	movapd %xmm1,%xmm6
 37a:	66 0f 58 d7          	addpd  %xmm7,%xmm2
 37e:	66 0f 58 dc          	addpd  %xmm4,%xmm3
 382:	66 41 0f 28 e6       	movapd %xmm14,%xmm4
 387:	66 41 0f c2 f7 05    	cmpnltpd %xmm15,%xmm6
 38d:	66 41 0f c2 e7 06    	cmpnlepd %xmm15,%xmm4
 393:	66 0f 28 e9          	movapd %xmm1,%xmm5
 397:	66 0f c2 2d 00 00 00 	cmpltpd 0x0(%rip),%xmm5        # 3a0 <_ZNK7vecgeom3cxx25ShapeImplementationHelperINS0_23TrapezoidImplementationILin1ELin1EEEE13DistanceToOutERKNS0_5SOA3DIdEES8_PKdPdPi+0x3a0>
 39e:	00 01 
 3a0:	66 41 0f 57 d8       	xorpd  %xmm8,%xmm3
 3a5:	0f 54 e6             	andps  %xmm6,%xmm4
 3a8:	66 44 0f 28 44 24 a8 	movapd -0x58(%rsp),%xmm8
 3af:	66 41 0f 28 f5       	movapd %xmm13,%xmm6
 3b4:	66 45 0f c2 c7 06    	cmpnlepd %xmm15,%xmm8
 3ba:	0f 54 e5             	andps  %xmm5,%xmm4
 3bd:	66 0f 28 e8          	movapd %xmm0,%xmm5
 3c1:	66 0f 54 cc          	andpd  %xmm4,%xmm1
 3c5:	66 0f 55 25 00 00 00 	andnpd 0x0(%rip),%xmm4        # 3cd <_ZNK7vecgeom3cxx25ShapeImplementationHelperINS0_23TrapezoidImplementationILin1ELin1EEEE13DistanceToOutERKNS0_5SOA3DIdEES8_PKdPdPi+0x3cd>
 3cc:	00 
 3cd:	66 41 0f c2 ef 05    	cmpnltpd %xmm15,%xmm5
 3d3:	44 0f 54 cd          	andps  %xmm5,%xmm9
 3d7:	66 0f 56 e1          	orpd   %xmm1,%xmm4
 3db:	66 0f 28 c8          	movapd %xmm0,%xmm1
 3df:	66 0f c2 cc 01       	cmpltpd %xmm4,%xmm1
 3e4:	66 0f 5e da          	divpd  %xmm2,%xmm3
 3e8:	66 41 0f c2 d7 06    	cmpnlepd %xmm15,%xmm2
 3ee:	44 0f 54 c9          	andps  %xmm1,%xmm9
 3f2:	66 41 0f 28 cd       	movapd %xmm13,%xmm1
 3f7:	66 41 0f 54 c1       	andpd  %xmm9,%xmm0
 3fc:	66 44 0f 55 cc       	andnpd %xmm4,%xmm9
 401:	66 41 0f c2 cf 05    	cmpnltpd %xmm15,%xmm1
 407:	66 44 0f 56 c8       	orpd   %xmm0,%xmm9
 40c:	44 0f 54 c1          	andps  %xmm1,%xmm8
 410:	66 0f 28 cb          	movapd %xmm3,%xmm1
 414:	66 0f 28 fb          	movapd %xmm3,%xmm7
 418:	66 41 0f c2 f1 01    	cmpltpd %xmm9,%xmm6
 41e:	66 0f 28 44 24 c8    	movapd -0x38(%rsp),%xmm0
 424:	66 41 0f c2 cf 05    	cmpnltpd %xmm15,%xmm1
 42a:	44 0f 54 c6          	andps  %xmm6,%xmm8
 42e:	0f 54 d1             	andps  %xmm1,%xmm2
 431:	66 45 0f 54 e8       	andpd  %xmm8,%xmm13
 436:	66 45 0f 55 c1       	andnpd %xmm9,%xmm8
 43b:	66 45 0f 56 c5       	orpd   %xmm13,%xmm8
 440:	66 41 0f c2 f8 01    	cmpltpd %xmm8,%xmm7
 446:	0f 54 d7             	andps  %xmm7,%xmm2
 449:	66 0f 54 da          	andpd  %xmm2,%xmm3
 44d:	66 41 0f 55 d0       	andnpd %xmm8,%xmm2
 452:	66 0f 56 d3          	orpd   %xmm3,%xmm2
 456:	66 44 0f 28 c2       	movapd %xmm2,%xmm8
 45b:	66 44 0f c2 c0 01    	cmpltpd %xmm0,%xmm8
 461:	66 41 0f 54 d0       	andpd  %xmm8,%xmm2
 466:	66 44 0f 55 c0       	andnpd %xmm0,%xmm8
 46b:	66 44 0f 56 c2       	orpd   %xmm2,%xmm8
 470:	66 41 0f 28 c8       	movapd %xmm8,%xmm1
 475:	66 0f 28 7c 24 b8    	movapd -0x48(%rsp),%xmm7
 47b:	31 c0                	xor    %eax,%eax
 47d:	66 43 0f 29 0c 08    	movapd %xmm1,(%r8,%r9,1)
 483:	66 0f 28 cf          	movapd %xmm7,%xmm1
 487:	66 0f 28 f7          	movapd %xmm7,%xmm6
 48b:	66 41 0f 2f c8       	comisd %xmm8,%xmm1
 490:	66 0f 15 f6          	unpckhpd %xmm6,%xmm6
 494:	66 45 0f 15 c0       	unpckhpd %xmm8,%xmm8
 499:	0f 97 c0             	seta   %al
 49c:	83 e8 02             	sub    $0x2,%eax
 49f:	41 89 42 fc          	mov    %eax,-0x4(%r10)
 4a3:	31 c0                	xor    %eax,%eax
 4a5:	66 41 0f 2f f0       	comisd %xmm8,%xmm6
 4aa:	0f 97 c0             	seta   %al
 4ad:	49 83 c1 10          	add    $0x10,%r9
 4b1:	49 83 c2 08          	add    $0x8,%r10
 4b5:	83 e8 02             	sub    $0x2,%eax
 4b8:	41 89 42 f8          	mov    %eax,-0x8(%r10)
 4bc:	49 39 d9             	cmp    %rbx,%r9
 4bf:	0f 85 9b fb ff ff    	jne    60 <_ZNK7vecgeom3cxx25ShapeImplementationHelperINS0_23TrapezoidImplementationILin1ELin1EEEE13DistanceToOutERKNS0_5SOA3DIdEES8_PKdPdPi+0x60>
 4c5:	5b                   	pop    %rbx
 4c6:	5d                   	pop    %rbp
 4c7:	f3 c3                	repz retq 

Disassembly of section .text._ZNK7vecgeom3cxx25ShapeImplementationHelperINS0_23TrapezoidImplementationILin1ELin1EEEE8ContainsERKNS0_8Vector3DIdEE:

0000000000000000 <_ZNK7vecgeom3cxx25ShapeImplementationHelperINS0_23TrapezoidImplementationILin1ELin1EEEE8ContainsERKNS0_8Vector3DIdEE>:
   0:	48 8b 47 20          	mov    0x20(%rdi),%rax
   4:	f2 0f 10 5e 10       	movsd  0x10(%rsi),%xmm3
   9:	f2 0f 10 56 18       	movsd  0x18(%rsi),%xmm2
   e:	48 8b 57 18          	mov    0x18(%rdi),%rdx
  12:	f2 0f 10 4e 20       	movsd  0x20(%rsi),%xmm1
  17:	f2 0f 5c 18          	subsd  (%rax),%xmm3
  1b:	f2 0f 10 40 28       	movsd  0x28(%rax),%xmm0
  20:	f2 0f 5c 50 08       	subsd  0x8(%rax),%xmm2
  25:	f2 0f 10 68 40       	movsd  0x40(%rax),%xmm5
  2a:	f2 0f 5c 48 10       	subsd  0x10(%rax),%xmm1
  2f:	48 8b 12             	mov    (%rdx),%rdx
  32:	f2 0f 10 60 18       	movsd  0x18(%rax),%xmm4
  37:	f2 44 0f 10 40 20    	movsd  0x20(%rax),%xmm8
  3d:	f2 44 0f 10 50 30    	movsd  0x30(%rax),%xmm10
  43:	f2 0f 59 c3          	mulsd  %xmm3,%xmm0
  47:	f2 0f 59 ea          	mulsd  %xmm2,%xmm5
  4b:	f2 0f 10 78 38       	movsd  0x38(%rax),%xmm7
  50:	f2 44 0f 10 48 48    	movsd  0x48(%rax),%xmm9
  56:	f2 0f 10 70 50       	movsd  0x50(%rax),%xmm6
  5b:	f2 0f 58 c5          	addsd  %xmm5,%xmm0
  5f:	f2 0f 10 68 58       	movsd  0x58(%rax),%xmm5
  64:	31 c0                	xor    %eax,%eax
  66:	f2 0f 59 e9          	mulsd  %xmm1,%xmm5
  6a:	f2 0f 58 c5          	addsd  %xmm5,%xmm0
  6e:	f2 0f 10 2d 00 00 00 	movsd  0x0(%rip),%xmm5        # 76 <_ZNK7vecgeom3cxx25ShapeImplementationHelperINS0_23TrapezoidImplementationILin1ELin1EEEE8ContainsERKNS0_8Vector3DIdEE+0x76>
  75:	00 
  76:	66 0f 54 e8          	andpd  %xmm0,%xmm5
  7a:	66 0f 2f 6a 20       	comisd 0x20(%rdx),%xmm5
  7f:	76 07                	jbe    88 <_ZNK7vecgeom3cxx25ShapeImplementationHelperINS0_23TrapezoidImplementationILin1ELin1EEEE8ContainsERKNS0_8Vector3DIdEE+0x88>
  81:	f3 c3                	repz retq 
  83:	0f 1f 44 00 00       	nopl   0x0(%rax,%rax,1)
  88:	f2 0f 59 e3          	mulsd  %xmm3,%xmm4
  8c:	f2 44 0f 59 d2       	mulsd  %xmm2,%xmm10
  91:	f2 41 0f 59 d8       	mulsd  %xmm8,%xmm3
  96:	f2 0f 59 d7          	mulsd  %xmm7,%xmm2
  9a:	f2 44 0f 59 c9       	mulsd  %xmm1,%xmm9
  9f:	f2 41 0f 58 e2       	addsd  %xmm10,%xmm4
  a4:	f2 0f 59 ce          	mulsd  %xmm6,%xmm1
  a8:	66 0f 14 c0          	unpcklpd %xmm0,%xmm0
  ac:	f2 0f 58 da          	addsd  %xmm2,%xmm3
  b0:	f2 0f 10 92 a8 00 00 	movsd  0xa8(%rdx),%xmm2
  b7:	00 
  b8:	f2 41 0f 58 e1       	addsd  %xmm9,%xmm4
  bd:	66 0f 16 92 b0 00 00 	movhpd 0xb0(%rdx),%xmm2
  c4:	00 
  c5:	f2 0f 58 d9          	addsd  %xmm1,%xmm3
  c9:	f2 0f 10 8a 88 00 00 	movsd  0x88(%rdx),%xmm1
  d0:	00 
  d1:	66 0f 14 e4          	unpcklpd %xmm4,%xmm4
  d5:	66 0f 16 8a 90 00 00 	movhpd 0x90(%rdx),%xmm1
  dc:	00 
  dd:	66 0f 14 db          	unpcklpd %xmm3,%xmm3
  e1:	66 0f 59 cc          	mulpd  %xmm4,%xmm1
  e5:	66 0f 59 d3          	mulpd  %xmm3,%xmm2
  e9:	66 0f 58 ca          	addpd  %xmm2,%xmm1
  ed:	f2 0f 10 92 c8 00 00 	movsd  0xc8(%rdx),%xmm2
  f4:	00 
  f5:	66 0f 16 92 d0 00 00 	movhpd 0xd0(%rdx),%xmm2
  fc:	00 
  fd:	66 0f 59 d0          	mulpd  %xmm0,%xmm2
 101:	66 0f 58 ca          	addpd  %xmm2,%xmm1
 105:	f2 0f 10 92 e8 00 00 	movsd  0xe8(%rdx),%xmm2
 10c:	00 
 10d:	66 0f 16 92 f0 00 00 	movhpd 0xf0(%rdx),%xmm2
 114:	00 
 115:	66 0f 58 ca          	addpd  %xmm2,%xmm1
 119:	f2 0f 10 92 b8 00 00 	movsd  0xb8(%rdx),%xmm2
 120:	00 
 121:	66 0f 16 92 c0 00 00 	movhpd 0xc0(%rdx),%xmm2
 128:	00 
 129:	66 0f 29 4c 24 d8    	movapd %xmm1,-0x28(%rsp)
 12f:	66 0f 59 d3          	mulpd  %xmm3,%xmm2
 133:	f2 0f 10 8a 98 00 00 	movsd  0x98(%rdx),%xmm1
 13a:	00 
 13b:	66 0f 16 8a a0 00 00 	movhpd 0xa0(%rdx),%xmm1
 142:	00 
 143:	66 0f 59 cc          	mulpd  %xmm4,%xmm1
 147:	66 0f 58 ca          	addpd  %xmm2,%xmm1
 14b:	f2 0f 10 92 d8 00 00 	movsd  0xd8(%rdx),%xmm2
 152:	00 
 153:	66 0f 16 92 e0 00 00 	movhpd 0xe0(%rdx),%xmm2
 15a:	00 
 15b:	66 0f 59 d0          	mulpd  %xmm0,%xmm2
 15f:	f2 0f 10 82 f8 00 00 	movsd  0xf8(%rdx),%xmm0
 166:	00 
 167:	66 0f 16 82 00 01 00 	movhpd 0x100(%rdx),%xmm0
 16e:	00 
 16f:	66 0f 58 ca          	addpd  %xmm2,%xmm1
 173:	66 0f 58 c8          	addpd  %xmm0,%xmm1
 177:	66 0f 57 c0          	xorpd  %xmm0,%xmm0
 17b:	66 0f 2f 44 24 d8    	comisd -0x28(%rsp),%xmm0
 181:	66 0f 29 4c 24 e8    	movapd %xmm1,-0x18(%rsp)
 187:	72 27                	jb     1b0 <_ZNK7vecgeom3cxx25ShapeImplementationHelperINS0_23TrapezoidImplementationILin1ELin1EEEE8ContainsERKNS0_8Vector3DIdEE+0x1b0>
 189:	66 0f 2f 44 24 e0    	comisd -0x20(%rsp),%xmm0
 18f:	72 1f                	jb     1b0 <_ZNK7vecgeom3cxx25ShapeImplementationHelperINS0_23TrapezoidImplementationILin1ELin1EEEE8ContainsERKNS0_8Vector3DIdEE+0x1b0>
 191:	66 0f 2f 44 24 e8    	comisd -0x18(%rsp),%xmm0
 197:	72 17                	jb     1b0 <_ZNK7vecgeom3cxx25ShapeImplementationHelperINS0_23TrapezoidImplementationILin1ELin1EEEE8ContainsERKNS0_8Vector3DIdEE+0x1b0>
 199:	66 0f 2f 44 24 f0    	comisd -0x10(%rsp),%xmm0
 19f:	72 0f                	jb     1b0 <_ZNK7vecgeom3cxx25ShapeImplementationHelperINS0_23TrapezoidImplementationILin1ELin1EEEE8ContainsERKNS0_8Vector3DIdEE+0x1b0>
 1a1:	b8 01 00 00 00       	mov    $0x1,%eax
 1a6:	c3                   	retq   
 1a7:	66 0f 1f 84 00 00 00 	nopw   0x0(%rax,%rax,1)
 1ae:	00 00 
 1b0:	31 c0                	xor    %eax,%eax
 1b2:	c3                   	retq   

Disassembly of section .text._ZNK7vecgeom3cxx25ShapeImplementationHelperINS0_23TrapezoidImplementationILin1ELin1EEEE6InsideERKNS0_8Vector3DIdEE:

0000000000000000 <_ZNK7vecgeom3cxx25ShapeImplementationHelperINS0_23TrapezoidImplementationILin1ELin1EEEE6InsideERKNS0_8Vector3DIdEE>:
   0:	48 8b 47 20          	mov    0x20(%rdi),%rax
   4:	f2 0f 10 5e 10       	movsd  0x10(%rsi),%xmm3
   9:	f2 0f 10 56 18       	movsd  0x18(%rsi),%xmm2
   e:	48 8b 57 18          	mov    0x18(%rdi),%rdx
  12:	f2 0f 10 4e 20       	movsd  0x20(%rsi),%xmm1
  17:	f2 0f 5c 18          	subsd  (%rax),%xmm3
  1b:	f2 0f 10 40 28       	movsd  0x28(%rax),%xmm0
  20:	f2 0f 5c 50 08       	subsd  0x8(%rax),%xmm2
  25:	f2 0f 10 60 40       	movsd  0x40(%rax),%xmm4
  2a:	f2 0f 5c 48 10       	subsd  0x10(%rax),%xmm1
  2f:	48 8b 12             	mov    (%rdx),%rdx
  32:	f2 0f 10 2d 00 00 00 	movsd  0x0(%rip),%xmm5        # 3a <_ZNK7vecgeom3cxx25ShapeImplementationHelperINS0_23TrapezoidImplementationILin1ELin1EEEE6InsideERKNS0_8Vector3DIdEE+0x3a>
  39:	00 
  3a:	f2 44 0f 10 68 18    	movsd  0x18(%rax),%xmm13
  40:	f2 0f 10 72 20       	movsd  0x20(%rdx),%xmm6
  45:	f2 0f 59 c3          	mulsd  %xmm3,%xmm0
  49:	f2 0f 59 e2          	mulsd  %xmm2,%xmm4
  4d:	66 0f 28 fe          	movapd %xmm6,%xmm7
  51:	f2 44 0f 10 50 20    	movsd  0x20(%rax),%xmm10
  57:	f2 44 0f 10 60 30    	movsd  0x30(%rax),%xmm12
  5d:	f2 44 0f 10 48 38    	movsd  0x38(%rax),%xmm9
  63:	f2 0f 58 c4          	addsd  %xmm4,%xmm0
  67:	f2 0f 10 60 58       	movsd  0x58(%rax),%xmm4
  6c:	f2 44 0f 10 58 48    	movsd  0x48(%rax),%xmm11
  72:	f2 0f 59 e1          	mulsd  %xmm1,%xmm4
  76:	f2 44 0f 10 40 50    	movsd  0x50(%rax),%xmm8
  7c:	f2 0f 58 c4          	addsd  %xmm4,%xmm0
  80:	f2 0f 10 25 00 00 00 	movsd  0x0(%rip),%xmm4        # 88 <_ZNK7vecgeom3cxx25ShapeImplementationHelperINS0_23TrapezoidImplementationILin1ELin1EEEE6InsideERKNS0_8Vector3DIdEE+0x88>
  87:	00 
  88:	f2 0f 58 fc          	addsd  %xmm4,%xmm7
  8c:	66 0f 54 e8          	andpd  %xmm0,%xmm5
  90:	66 0f 2f ef          	comisd %xmm7,%xmm5
  94:	76 0a                	jbe    a0 <_ZNK7vecgeom3cxx25ShapeImplementationHelperINS0_23TrapezoidImplementationILin1ELin1EEEE6InsideERKNS0_8Vector3DIdEE+0xa0>
  96:	b8 02 00 00 00       	mov    $0x2,%eax
  9b:	c3                   	retq   
  9c:	0f 1f 40 00          	nopl   0x0(%rax)
  a0:	f2 44 0f 59 eb       	mulsd  %xmm3,%xmm13
  a5:	f2 0f 5c f4          	subsd  %xmm4,%xmm6
  a9:	f2 44 0f 59 e2       	mulsd  %xmm2,%xmm12
  ae:	f2 41 0f 59 da       	mulsd  %xmm10,%xmm3
  b3:	f2 41 0f 59 d1       	mulsd  %xmm9,%xmm2
  b8:	f2 44 0f 59 d9       	mulsd  %xmm1,%xmm11
  bd:	f2 45 0f 58 ec       	addsd  %xmm12,%xmm13
  c2:	f2 41 0f 59 c8       	mulsd  %xmm8,%xmm1
  c7:	66 0f 14 c0          	unpcklpd %xmm0,%xmm0
  cb:	f2 0f 58 da          	addsd  %xmm2,%xmm3
  cf:	f2 0f 10 92 a8 00 00 	movsd  0xa8(%rdx),%xmm2
  d6:	00 
  d7:	66 0f 2f f5          	comisd %xmm5,%xmm6
  db:	f2 45 0f 58 eb       	addsd  %xmm11,%xmm13
  e0:	66 0f 16 92 b0 00 00 	movhpd 0xb0(%rdx),%xmm2
  e7:	00 
  e8:	f2 0f 58 d9          	addsd  %xmm1,%xmm3
  ec:	f2 0f 10 8a 88 00 00 	movsd  0x88(%rdx),%xmm1
  f3:	00 
  f4:	0f 97 c1             	seta   %cl
  f7:	66 45 0f 14 ed       	unpcklpd %xmm13,%xmm13
  fc:	66 0f 16 8a 90 00 00 	movhpd 0x90(%rdx),%xmm1
 103:	00 
 104:	66 0f 14 db          	unpcklpd %xmm3,%xmm3
 108:	66 41 0f 59 cd       	mulpd  %xmm13,%xmm1
 10d:	66 0f 59 d3          	mulpd  %xmm3,%xmm2
 111:	66 0f 58 ca          	addpd  %xmm2,%xmm1
 115:	f2 0f 10 92 c8 00 00 	movsd  0xc8(%rdx),%xmm2
 11c:	00 
 11d:	66 0f 16 92 d0 00 00 	movhpd 0xd0(%rdx),%xmm2
 124:	00 
 125:	66 0f 59 d0          	mulpd  %xmm0,%xmm2
 129:	66 0f 58 ca          	addpd  %xmm2,%xmm1
 12d:	f2 0f 10 92 e8 00 00 	movsd  0xe8(%rdx),%xmm2
 134:	00 
 135:	66 0f 16 92 f0 00 00 	movhpd 0xf0(%rdx),%xmm2
 13c:	00 
 13d:	66 0f 58 ca          	addpd  %xmm2,%xmm1
 141:	f2 0f 10 92 b8 00 00 	movsd  0xb8(%rdx),%xmm2
 148:	00 
 149:	66 0f 16 92 c0 00 00 	movhpd 0xc0(%rdx),%xmm2
 150:	00 
 151:	66 0f 29 4c 24 d8    	movapd %xmm1,-0x28(%rsp)
 157:	66 0f 59 d3          	mulpd  %xmm3,%xmm2
 15b:	f2 0f 10 8a 98 00 00 	movsd  0x98(%rdx),%xmm1
 162:	00 
 163:	66 0f 16 8a a0 00 00 	movhpd 0xa0(%rdx),%xmm1
 16a:	00 
 16b:	66 41 0f 59 cd       	mulpd  %xmm13,%xmm1
 170:	66 0f 58 ca          	addpd  %xmm2,%xmm1
 174:	f2 0f 10 92 d8 00 00 	movsd  0xd8(%rdx),%xmm2
 17b:	00 
 17c:	66 0f 16 92 e0 00 00 	movhpd 0xe0(%rdx),%xmm2
 183:	00 
 184:	66 0f 59 d0          	mulpd  %xmm0,%xmm2
 188:	f2 0f 10 82 f8 00 00 	movsd  0xf8(%rdx),%xmm0
 18f:	00 
 190:	66 0f 16 82 00 01 00 	movhpd 0x100(%rdx),%xmm0
 197:	00 
 198:	66 0f 58 ca          	addpd  %xmm2,%xmm1
 19c:	66 0f 58 c8          	addpd  %xmm0,%xmm1
 1a0:	f2 0f 10 44 24 d8    	movsd  -0x28(%rsp),%xmm0
 1a6:	66 0f 2f c4          	comisd %xmm4,%xmm0
 1aa:	66 0f 29 4c 24 e8    	movapd %xmm1,-0x18(%rsp)
 1b0:	0f 87 e0 fe ff ff    	ja     96 <_ZNK7vecgeom3cxx25ShapeImplementationHelperINS0_23TrapezoidImplementationILin1ELin1EEEE6InsideERKNS0_8Vector3DIdEE+0x96>
 1b6:	66 0f 2f 05 00 00 00 	comisd 0x0(%rip),%xmm0        # 1be <_ZNK7vecgeom3cxx25ShapeImplementationHelperINS0_23TrapezoidImplementationILin1ELin1EEEE6InsideERKNS0_8Vector3DIdEE+0x1be>
 1bd:	00 
 1be:	f2 0f 10 44 24 e0    	movsd  -0x20(%rsp),%xmm0
 1c4:	0f 92 c0             	setb   %al
 1c7:	66 0f 2f c4          	comisd %xmm4,%xmm0
 1cb:	0f 87 c5 fe ff ff    	ja     96 <_ZNK7vecgeom3cxx25ShapeImplementationHelperINS0_23TrapezoidImplementationILin1ELin1EEEE6InsideERKNS0_8Vector3DIdEE+0x96>
 1d1:	66 0f 2f 05 00 00 00 	comisd 0x0(%rip),%xmm0        # 1d9 <_ZNK7vecgeom3cxx25ShapeImplementationHelperINS0_23TrapezoidImplementationILin1ELin1EEEE6InsideERKNS0_8Vector3DIdEE+0x1d9>
 1d8:	00 
 1d9:	f2 0f 10 44 24 e8    	movsd  -0x18(%rsp),%xmm0
 1df:	0f 92 c2             	setb   %dl
 1e2:	66 0f 2f c4          	comisd %xmm4,%xmm0
 1e6:	0f 87 aa fe ff ff    	ja     96 <_ZNK7vecgeom3cxx25ShapeImplementationHelperINS0_23TrapezoidImplementationILin1ELin1EEEE6InsideERKNS0_8Vector3DIdEE+0x96>
 1ec:	66 0f 2f 05 00 00 00 	comisd 0x0(%rip),%xmm0        # 1f4 <_ZNK7vecgeom3cxx25ShapeImplementationHelperINS0_23TrapezoidImplementationILin1ELin1EEEE6InsideERKNS0_8Vector3DIdEE+0x1f4>
 1f3:	00 
 1f4:	f2 0f 10 44 24 f0    	movsd  -0x10(%rsp),%xmm0
 1fa:	40 0f 92 c6          	setb   %sil
 1fe:	66 0f 2f c4          	comisd %xmm4,%xmm0
 202:	0f 87 8e fe ff ff    	ja     96 <_ZNK7vecgeom3cxx25ShapeImplementationHelperINS0_23TrapezoidImplementationILin1ELin1EEEE6InsideERKNS0_8Vector3DIdEE+0x96>
 208:	21 d0                	and    %edx,%eax
 20a:	21 f0                	and    %esi,%eax
 20c:	66 0f 2f 05 00 00 00 	comisd 0x0(%rip),%xmm0        # 214 <_ZNK7vecgeom3cxx25ShapeImplementationHelperINS0_23TrapezoidImplementationILin1ELin1EEEE6InsideERKNS0_8Vector3DIdEE+0x214>
 213:	00 
 214:	0f 92 c2             	setb   %dl
 217:	21 d0                	and    %edx,%eax
 219:	21 c8                	and    %ecx,%eax
 21b:	83 f0 01             	xor    $0x1,%eax
 21e:	0f b6 c0             	movzbl %al,%eax
 221:	c3                   	retq   

Disassembly of section .text._ZN7vecgeom3cxx8Vector3DIdED0Ev:

0000000000000000 <_ZN7vecgeom3cxx8Vector3DIdED0Ev>:
   0:	48 8b 05 00 00 00 00 	mov    0x0(%rip),%rax        # 7 <_ZN7vecgeom3cxx8Vector3DIdED0Ev+0x7>
   7:	48 83 c0 10          	add    $0x10,%rax
   b:	48 89 07             	mov    %rax,(%rdi)
   e:	e9 00 00 00 00       	jmpq   13 <.LC7+0x3>

Disassembly of section .text._ZN7vecgeom3cxx8Vector3DIN2Vc3SSE6VectorIdEEED0Ev:

0000000000000000 <_ZN7vecgeom3cxx8Vector3DIN2Vc3SSE6VectorIdEEED0Ev>:
   0:	48 8b 05 00 00 00 00 	mov    0x0(%rip),%rax        # 7 <_ZN7vecgeom3cxx8Vector3DIN2Vc3SSE6VectorIdEEED0Ev+0x7>
   7:	48 83 c0 10          	add    $0x10,%rax
   b:	48 89 07             	mov    %rax,(%rdi)
   e:	e9 00 00 00 00       	jmpq   13 <.LC7+0x3>

Disassembly of section .text._ZN7vecgeom3cxx11AlignedBaseD0Ev:

0000000000000000 <_ZN7vecgeom3cxx11AlignedBaseD0Ev>:
   0:	48 8b 05 00 00 00 00 	mov    0x0(%rip),%rax        # 7 <_ZN7vecgeom3cxx11AlignedBaseD0Ev+0x7>
   7:	48 83 c0 10          	add    $0x10,%rax
   b:	48 89 07             	mov    %rax,(%rdi)
   e:	e9 00 00 00 00       	jmpq   13 <.LC7+0x3>

Disassembly of section .text._ZNK7vecgeom3cxx25ShapeImplementationHelperINS0_23TrapezoidImplementationILin1ELin1EEEE12DistanceToInERKNS0_8Vector3DIdEES8_d:

0000000000000000 <_ZNK7vecgeom3cxx25ShapeImplementationHelperINS0_23TrapezoidImplementationILin1ELin1EEEE12DistanceToInERKNS0_8Vector3DIdEES8_d>:
   0:	48 83 ec 30          	sub    $0x30,%rsp
   4:	48 8b 47 20          	mov    0x20(%rdi),%rax
   8:	48 8b 4f 18          	mov    0x18(%rdi),%rcx
   c:	f2 0f 10 6e 10       	movsd  0x10(%rsi),%xmm5
  11:	f2 44 0f 10 4e 18    	movsd  0x18(%rsi),%xmm9
  17:	f2 0f 5c 28          	subsd  (%rax),%xmm5
  1b:	f2 0f 10 5e 20       	movsd  0x20(%rsi),%xmm3
  20:	f2 44 0f 5c 48 08    	subsd  0x8(%rax),%xmm9
  26:	f2 0f 10 48 28       	movsd  0x28(%rax),%xmm1
  2b:	f2 0f 10 60 40       	movsd  0x40(%rax),%xmm4
  30:	f2 0f 5c 58 10       	subsd  0x10(%rax),%xmm3
  35:	f2 0f 10 40 58       	movsd  0x58(%rax),%xmm0
  3a:	48 8b 09             	mov    (%rcx),%rcx
  3d:	f2 44 0f 10 5a 18    	movsd  0x18(%rdx),%xmm11
  43:	f2 44 0f 10 52 20    	movsd  0x20(%rdx),%xmm10
  49:	66 0f 28 d5          	movapd %xmm5,%xmm2
  4d:	f2 0f 10 78 20       	movsd  0x20(%rax),%xmm7
  52:	66 41 0f 28 f1       	movapd %xmm9,%xmm6
  57:	f2 0f 59 d1          	mulsd  %xmm1,%xmm2
  5b:	f2 0f 11 7c 24 98    	movsd  %xmm7,-0x68(%rsp)
  61:	f2 0f 59 f4          	mulsd  %xmm4,%xmm6
  65:	f2 41 0f 59 e3       	mulsd  %xmm11,%xmm4
  6a:	f2 0f 10 78 38       	movsd  0x38(%rax),%xmm7
  6f:	f2 44 0f 10 40 18    	movsd  0x18(%rax),%xmm8
  75:	f2 0f 58 d6          	addsd  %xmm6,%xmm2
  79:	66 0f 28 f3          	movapd %xmm3,%xmm6
  7d:	f2 44 0f 10 60 30    	movsd  0x30(%rax),%xmm12
  83:	f2 0f 59 f0          	mulsd  %xmm0,%xmm6
  87:	f2 0f 11 7c 24 a8    	movsd  %xmm7,-0x58(%rsp)
  8d:	f2 41 0f 59 c2       	mulsd  %xmm10,%xmm0
  92:	f2 0f 10 78 50       	movsd  0x50(%rax),%xmm7
  97:	f2 44 0f 10 78 48    	movsd  0x48(%rax),%xmm15
  9d:	f2 0f 58 d6          	addsd  %xmm6,%xmm2
  a1:	f2 0f 10 72 10       	movsd  0x10(%rdx),%xmm6
  a6:	f2 0f 11 7c 24 b0    	movsd  %xmm7,-0x50(%rsp)
  ac:	f2 0f 59 ce          	mulsd  %xmm6,%xmm1
  b0:	f2 0f 58 cc          	addsd  %xmm4,%xmm1
  b4:	f2 0f 58 c8          	addsd  %xmm0,%xmm1
  b8:	66 0f 57 c0          	xorpd  %xmm0,%xmm0
  bc:	66 0f 2f c8          	comisd %xmm0,%xmm1
  c0:	0f 97 c0             	seta   %al
  c3:	66 0f 2f c1          	comisd %xmm1,%xmm0
  c7:	0f 97 c2             	seta   %dl
  ca:	0f 86 60 06 00 00    	jbe    730 <_ZNK7vecgeom3cxx25ShapeImplementationHelperINS0_23TrapezoidImplementationILin1ELin1EEEE12DistanceToInERKNS0_8Vector3DIdEES8_d+0x730>
  d0:	f2 44 0f 10 2d 00 00 	movsd  0x0(%rip),%xmm13        # d9 <_ZNK7vecgeom3cxx25ShapeImplementationHelperINS0_23TrapezoidImplementationILin1ELin1EEEE12DistanceToInERKNS0_8Vector3DIdEES8_d+0xd9>
  d7:	00 00 
  d9:	f2 0f 10 3d 00 00 00 	movsd  0x0(%rip),%xmm7        # e1 <_ZNK7vecgeom3cxx25ShapeImplementationHelperINS0_23TrapezoidImplementationILin1ELin1EEEE12DistanceToInERKNS0_8Vector3DIdEES8_d+0xe1>
  e0:	00 
  e1:	f2 44 0f 11 6c 24 b8 	movsd  %xmm13,-0x48(%rsp)
  e8:	f2 0f 10 61 20       	movsd  0x20(%rcx),%xmm4
  ed:	31 f6                	xor    %esi,%esi
  ef:	84 c0                	test   %al,%al
  f1:	f2 0f 59 fc          	mulsd  %xmm4,%xmm7
  f5:	f2 0f 5c fa          	subsd  %xmm2,%xmm7
  f9:	74 0c                	je     107 <_ZNK7vecgeom3cxx25ShapeImplementationHelperINS0_23TrapezoidImplementationILin1ELin1EEEE12DistanceToInERKNS0_8Vector3DIdEES8_d+0x107>
  fb:	66 0f 2f 3d 00 00 00 	comisd 0x0(%rip),%xmm7        # 103 <_ZNK7vecgeom3cxx25ShapeImplementationHelperINS0_23TrapezoidImplementationILin1ELin1EEEE12DistanceToInERKNS0_8Vector3DIdEES8_d+0x103>
 102:	00 
 103:	40 0f 92 c6          	setb   %sil
 107:	84 d2                	test   %dl,%dl
 109:	74 1d                	je     128 <_ZNK7vecgeom3cxx25ShapeImplementationHelperINS0_23TrapezoidImplementationILin1ELin1EEEE12DistanceToInERKNS0_8Vector3DIdEES8_d+0x128>
 10b:	66 0f 2f 3d 00 00 00 	comisd 0x0(%rip),%xmm7        # 113 <_ZNK7vecgeom3cxx25ShapeImplementationHelperINS0_23TrapezoidImplementationILin1ELin1EEEE12DistanceToInERKNS0_8Vector3DIdEES8_d+0x113>
 112:	00 
 113:	76 13                	jbe    128 <_ZNK7vecgeom3cxx25ShapeImplementationHelperINS0_23TrapezoidImplementationILin1ELin1EEEE12DistanceToInERKNS0_8Vector3DIdEES8_d+0x128>
 115:	f2 0f 10 05 00 00 00 	movsd  0x0(%rip),%xmm0        # 11d <_ZNK7vecgeom3cxx25ShapeImplementationHelperINS0_23TrapezoidImplementationILin1ELin1EEEE12DistanceToInERKNS0_8Vector3DIdEES8_d+0x11d>
 11c:	00 
 11d:	48 83 c4 30          	add    $0x30,%rsp
 121:	c3                   	retq   
 122:	66 0f 1f 44 00 00    	nopw   0x0(%rax,%rax,1)
 128:	40 84 f6             	test   %sil,%sil
 12b:	75 e8                	jne    115 <_ZNK7vecgeom3cxx25ShapeImplementationHelperINS0_23TrapezoidImplementationILin1ELin1EEEE12DistanceToInERKNS0_8Vector3DIdEES8_d+0x115>
 12d:	f2 44 0f 10 35 00 00 	movsd  0x0(%rip),%xmm14        # 136 <_ZNK7vecgeom3cxx25ShapeImplementationHelperINS0_23TrapezoidImplementationILin1ELin1EEEE12DistanceToInERKNS0_8Vector3DIdEES8_d+0x136>
 134:	00 00 
 136:	83 f0 01             	xor    $0x1,%eax
 139:	83 f2 01             	xor    $0x1,%edx
 13c:	66 44 0f 54 f2       	andpd  %xmm2,%xmm14
 141:	21 c2                	and    %eax,%edx
 143:	f2 44 0f 11 74 24 88 	movsd  %xmm14,-0x78(%rsp)
 14a:	66 44 0f 28 f4       	movapd %xmm4,%xmm14
 14f:	f2 44 0f 5c 35 00 00 	subsd  0x0(%rip),%xmm14        # 158 <_ZNK7vecgeom3cxx25ShapeImplementationHelperINS0_23TrapezoidImplementationILin1ELin1EEEE12DistanceToInERKNS0_8Vector3DIdEES8_d+0x158>
 156:	00 00 
 158:	66 44 0f 2f 74 24 88 	comisd -0x78(%rsp),%xmm14
 15f:	0f 97 c0             	seta   %al
 162:	0f 86 f0 05 00 00    	jbe    758 <_ZNK7vecgeom3cxx25ShapeImplementationHelperINS0_23TrapezoidImplementationILin1ELin1EEEE12DistanceToInERKNS0_8Vector3DIdEES8_d+0x758>
 168:	84 c0                	test   %al,%al
 16a:	74 08                	je     174 <_ZNK7vecgeom3cxx25ShapeImplementationHelperINS0_23TrapezoidImplementationILin1ELin1EEEE12DistanceToInERKNS0_8Vector3DIdEES8_d+0x174>
 16c:	84 d2                	test   %dl,%dl
 16e:	0f 85 24 06 00 00    	jne    798 <_ZNK7vecgeom3cxx25ShapeImplementationHelperINS0_23TrapezoidImplementationILin1ELin1EEEE12DistanceToInERKNS0_8Vector3DIdEES8_d+0x798>
 174:	f2 44 0f 5e e9       	divsd  %xmm1,%xmm13
 179:	f2 0f 59 64 24 b8    	mulsd  -0x48(%rsp),%xmm4
 17f:	f2 41 0f 59 fd       	mulsd  %xmm13,%xmm7
 184:	f2 0f 5c e2          	subsd  %xmm2,%xmm4
 188:	f2 0f 11 7c 24 c0    	movsd  %xmm7,-0x40(%rsp)
 18e:	f2 41 0f 59 e5       	mulsd  %xmm13,%xmm4
 193:	66 0f 28 fd          	movapd %xmm5,%xmm7
 197:	66 45 0f 28 e9       	movapd %xmm9,%xmm13
 19c:	f2 44 0f 10 74 24 a8 	movsd  -0x58(%rsp),%xmm14
 1a3:	f2 41 0f 59 f8       	mulsd  %xmm8,%xmm7
 1a8:	f2 45 0f 59 ec       	mulsd  %xmm12,%xmm13
 1ad:	f2 45 0f 59 ce       	mulsd  %xmm14,%xmm9
 1b2:	f2 45 0f 59 e3       	mulsd  %xmm11,%xmm12
 1b7:	f2 44 0f 59 c6       	mulsd  %xmm6,%xmm8
 1bc:	f2 41 0f 58 fd       	addsd  %xmm13,%xmm7
 1c1:	66 44 0f 28 eb       	movapd %xmm3,%xmm13
 1c6:	f2 45 0f 59 de       	mulsd  %xmm14,%xmm11
 1cb:	66 44 0f 28 f2       	movapd %xmm2,%xmm14
 1d0:	f2 45 0f 59 ef       	mulsd  %xmm15,%xmm13
 1d5:	f2 45 0f 58 c4       	addsd  %xmm12,%xmm8
 1da:	66 45 0f 14 f6       	unpcklpd %xmm14,%xmm14
 1df:	f2 41 0f 58 fd       	addsd  %xmm13,%xmm7
 1e4:	f2 44 0f 10 6c 24 98 	movsd  -0x68(%rsp),%xmm13
 1eb:	f2 41 0f 59 ed       	mulsd  %xmm13,%xmm5
 1f0:	f2 41 0f 59 f5       	mulsd  %xmm13,%xmm6
 1f5:	f2 41 0f 58 e9       	addsd  %xmm9,%xmm5
 1fa:	f2 44 0f 10 4c 24 b0 	movsd  -0x50(%rsp),%xmm9
 201:	f2 41 0f 58 f3       	addsd  %xmm11,%xmm6
 206:	f2 41 0f 59 d9       	mulsd  %xmm9,%xmm3
 20b:	f2 0f 58 eb          	addsd  %xmm3,%xmm5
 20f:	66 41 0f 28 df       	movapd %xmm15,%xmm3
 214:	f2 41 0f 59 da       	mulsd  %xmm10,%xmm3
 219:	f2 45 0f 59 d1       	mulsd  %xmm9,%xmm10
 21e:	66 44 0f 28 fd       	movapd %xmm5,%xmm15
 223:	f2 44 0f 10 89 c8 00 	movsd  0xc8(%rcx),%xmm9
 22a:	00 00 
 22c:	f2 44 0f 58 c3       	addsd  %xmm3,%xmm8
 231:	66 0f 28 df          	movapd %xmm7,%xmm3
 235:	f2 41 0f 58 f2       	addsd  %xmm10,%xmm6
 23a:	66 45 0f 14 ff       	unpcklpd %xmm15,%xmm15
 23f:	66 0f 14 db          	unpcklpd %xmm3,%xmm3
 243:	66 44 0f 16 89 d0 00 	movhpd 0xd0(%rcx),%xmm9
 24a:	00 00 
 24c:	66 45 0f 28 d8       	movapd %xmm8,%xmm11
 251:	66 44 0f 28 e6       	movapd %xmm6,%xmm12
 256:	66 44 0f 28 d3       	movapd %xmm3,%xmm10
 25b:	66 45 0f 14 db       	unpcklpd %xmm11,%xmm11
 260:	66 45 0f 14 e4       	unpcklpd %xmm12,%xmm12
 265:	66 45 0f 28 ef       	movapd %xmm15,%xmm13
 26a:	66 44 0f 29 5c 24 88 	movapd %xmm11,-0x78(%rsp)
 271:	66 44 0f 29 64 24 98 	movapd %xmm12,-0x68(%rsp)
 278:	f2 44 0f 10 99 a8 00 	movsd  0xa8(%rcx),%xmm11
 27f:	00 00 
 281:	f2 44 0f 10 a1 88 00 	movsd  0x88(%rcx),%xmm12
 288:	00 00 
 28a:	66 44 0f 16 99 b0 00 	movhpd 0xb0(%rcx),%xmm11
 291:	00 00 
 293:	66 44 0f 16 a1 90 00 	movhpd 0x90(%rcx),%xmm12
 29a:	00 00 
 29c:	66 45 0f 59 eb       	mulpd  %xmm11,%xmm13
 2a1:	66 45 0f 59 d4       	mulpd  %xmm12,%xmm10
 2a6:	66 44 0f 59 5c 24 98 	mulpd  -0x68(%rsp),%xmm11
 2ad:	66 44 0f 59 64 24 88 	mulpd  -0x78(%rsp),%xmm12
 2b4:	66 45 0f 58 d5       	addpd  %xmm13,%xmm10
 2b9:	66 45 0f 28 ee       	movapd %xmm14,%xmm13
 2be:	66 45 0f 59 e9       	mulpd  %xmm9,%xmm13
 2c3:	66 45 0f 58 e3       	addpd  %xmm11,%xmm12
 2c8:	66 44 0f 28 d9       	movapd %xmm1,%xmm11
 2cd:	66 45 0f 58 d5       	addpd  %xmm13,%xmm10
 2d2:	f2 44 0f 10 a9 e8 00 	movsd  0xe8(%rcx),%xmm13
 2d9:	00 00 
 2db:	66 45 0f 14 db       	unpcklpd %xmm11,%xmm11
 2e0:	66 44 0f 16 a9 f0 00 	movhpd 0xf0(%rcx),%xmm13
 2e7:	00 00 
 2e9:	66 45 0f 59 cb       	mulpd  %xmm11,%xmm9
 2ee:	66 45 0f 58 d5       	addpd  %xmm13,%xmm10
 2f3:	f2 44 0f 10 a9 98 00 	movsd  0x98(%rcx),%xmm13
 2fa:	00 00 
 2fc:	66 44 0f 16 a9 a0 00 	movhpd 0xa0(%rcx),%xmm13
 303:	00 00 
 305:	66 45 0f 58 e1       	addpd  %xmm9,%xmm12
 30a:	66 44 0f 28 0d 00 00 	movapd 0x0(%rip),%xmm9        # 313 <_ZNK7vecgeom3cxx25ShapeImplementationHelperINS0_23TrapezoidImplementationILin1ELin1EEEE12DistanceToInERKNS0_8Vector3DIdEES8_d+0x313>
 311:	00 00 
 313:	66 41 0f 59 dd       	mulpd  %xmm13,%xmm3
 318:	66 44 0f 29 54 24 c8 	movapd %xmm10,-0x38(%rsp)
 31f:	66 45 0f 57 d1       	xorpd  %xmm9,%xmm10
 324:	66 44 0f 29 64 24 e8 	movapd %xmm12,-0x18(%rsp)
 32b:	66 44 0f 59 6c 24 88 	mulpd  -0x78(%rsp),%xmm13
 332:	66 45 0f 5e d4       	divpd  %xmm12,%xmm10
 337:	f2 44 0f 10 a1 b8 00 	movsd  0xb8(%rcx),%xmm12
 33e:	00 00 
 340:	66 44 0f 16 a1 c0 00 	movhpd 0xc0(%rcx),%xmm12
 347:	00 00 
 349:	66 45 0f 59 fc       	mulpd  %xmm12,%xmm15
 34e:	66 44 0f 59 64 24 98 	mulpd  -0x68(%rsp),%xmm12
 355:	66 44 0f 29 54 24 08 	movapd %xmm10,0x8(%rsp)
 35c:	66 41 0f 58 df       	addpd  %xmm15,%xmm3
 361:	f2 44 0f 10 91 d8 00 	movsd  0xd8(%rcx),%xmm10
 368:	00 00 
 36a:	66 45 0f 58 ec       	addpd  %xmm12,%xmm13
 36f:	66 44 0f 16 91 e0 00 	movhpd 0xe0(%rcx),%xmm10
 376:	00 00 
 378:	66 45 0f 59 f2       	mulpd  %xmm10,%xmm14
 37d:	66 45 0f 59 d3       	mulpd  %xmm11,%xmm10
 382:	66 41 0f 58 de       	addpd  %xmm14,%xmm3
 387:	f2 44 0f 10 b1 f8 00 	movsd  0xf8(%rcx),%xmm14
 38e:	00 00 
 390:	66 45 0f 58 ea       	addpd  %xmm10,%xmm13
 395:	66 44 0f 16 b1 00 01 	movhpd 0x100(%rcx),%xmm14
 39c:	00 00 
 39e:	66 41 0f 58 de       	addpd  %xmm14,%xmm3
 3a3:	66 44 0f 29 6c 24 f8 	movapd %xmm13,-0x8(%rsp)
 3aa:	66 0f 29 5c 24 d8    	movapd %xmm3,-0x28(%rsp)
 3b0:	66 41 0f 57 d9       	xorpd  %xmm9,%xmm3
 3b5:	66 41 0f 5e dd       	divpd  %xmm13,%xmm3
 3ba:	66 0f 29 5c 24 18    	movapd %xmm3,0x18(%rsp)
 3c0:	f2 0f 10 5c 24 c8    	movsd  -0x38(%rsp),%xmm3
 3c6:	66 0f 2f 1d 00 00 00 	comisd 0x0(%rip),%xmm3        # 3ce <_ZNK7vecgeom3cxx25ShapeImplementationHelperINS0_23TrapezoidImplementationILin1ELin1EEEE12DistanceToInERKNS0_8Vector3DIdEES8_d+0x3ce>
 3cd:	00 
 3ce:	0f 93 c2             	setae  %dl
 3d1:	66 0f 2f 44 24 e8    	comisd -0x18(%rsp),%xmm0
 3d7:	89 d6                	mov    %edx,%esi
 3d9:	41 89 d0             	mov    %edx,%r8d
 3dc:	0f 92 c0             	setb   %al
 3df:	83 f6 01             	xor    $0x1,%esi
 3e2:	41 21 c0             	and    %eax,%r8d
 3e5:	40 20 c6             	and    %al,%sil
 3e8:	74 0d                	je     3f7 <_ZNK7vecgeom3cxx25ShapeImplementationHelperINS0_23TrapezoidImplementationILin1ELin1EEEE12DistanceToInERKNS0_8Vector3DIdEES8_d+0x3f7>
 3ea:	66 0f 2f 64 24 08    	comisd 0x8(%rsp),%xmm4
 3f0:	bf 01 00 00 00       	mov    $0x1,%edi
 3f5:	77 03                	ja     3fa <_ZNK7vecgeom3cxx25ShapeImplementationHelperINS0_23TrapezoidImplementationILin1ELin1EEEE12DistanceToInERKNS0_8Vector3DIdEES8_d+0x3fa>
 3f7:	44 89 c7             	mov    %r8d,%edi
 3fa:	83 f0 01             	xor    $0x1,%eax
 3fd:	21 d0                	and    %edx,%eax
 3ff:	40 84 ff             	test   %dil,%dil
 402:	0f 85 0d fd ff ff    	jne    115 <_ZNK7vecgeom3cxx25ShapeImplementationHelperINS0_23TrapezoidImplementationILin1ELin1EEEE12DistanceToInERKNS0_8Vector3DIdEES8_d+0x115>
 408:	f2 44 0f 10 4c 24 08 	movsd  0x8(%rsp),%xmm9
 40f:	66 44 0f 2f cc       	comisd %xmm4,%xmm9
 414:	0f 86 66 03 00 00    	jbe    780 <_ZNK7vecgeom3cxx25ShapeImplementationHelperINS0_23TrapezoidImplementationILin1ELin1EEEE12DistanceToInERKNS0_8Vector3DIdEES8_d+0x780>
 41a:	f2 0f 10 1d 00 00 00 	movsd  0x0(%rip),%xmm3        # 422 <_ZNK7vecgeom3cxx25ShapeImplementationHelperINS0_23TrapezoidImplementationILin1ELin1EEEE12DistanceToInERKNS0_8Vector3DIdEES8_d+0x422>
 421:	00 
 422:	66 41 0f 2f d9       	comisd %xmm9,%xmm3
 427:	0f 82 53 03 00 00    	jb     780 <_ZNK7vecgeom3cxx25ShapeImplementationHelperINS0_23TrapezoidImplementationILin1ELin1EEEE12DistanceToInERKNS0_8Vector3DIdEES8_d+0x780>
 42d:	84 c0                	test   %al,%al
 42f:	0f 84 7a 03 00 00    	je     7af <_ZNK7vecgeom3cxx25ShapeImplementationHelperINS0_23TrapezoidImplementationILin1ELin1EEEE12DistanceToInERKNS0_8Vector3DIdEES8_d+0x7af>
 435:	66 41 0f 28 d9       	movapd %xmm9,%xmm3
 43a:	40 84 f6             	test   %sil,%sil
 43d:	0f 84 7f 03 00 00    	je     7c2 <_ZNK7vecgeom3cxx25ShapeImplementationHelperINS0_23TrapezoidImplementationILin1ELin1EEEE12DistanceToInERKNS0_8Vector3DIdEES8_d+0x7c2>
 443:	f2 44 0f 10 54 24 d0 	movsd  -0x30(%rsp),%xmm10
 44a:	66 44 0f 2f 15 00 00 	comisd 0x0(%rip),%xmm10        # 453 <_ZNK7vecgeom3cxx25ShapeImplementationHelperINS0_23TrapezoidImplementationILin1ELin1EEEE12DistanceToInERKNS0_8Vector3DIdEES8_d+0x453>
 451:	00 00 
 453:	0f 93 c0             	setae  %al
 456:	66 0f 2f 44 24 f0    	comisd -0x10(%rsp),%xmm0
 45c:	89 c6                	mov    %eax,%esi
 45e:	41 89 c0             	mov    %eax,%r8d
 461:	0f 92 c2             	setb   %dl
 464:	83 f6 01             	xor    $0x1,%esi
 467:	41 21 d0             	and    %edx,%r8d
 46a:	40 20 d6             	and    %dl,%sil
 46d:	74 0d                	je     47c <_ZNK7vecgeom3cxx25ShapeImplementationHelperINS0_23TrapezoidImplementationILin1ELin1EEEE12DistanceToInERKNS0_8Vector3DIdEES8_d+0x47c>
 46f:	66 0f 2f 5c 24 10    	comisd 0x10(%rsp),%xmm3
 475:	bf 01 00 00 00       	mov    $0x1,%edi
 47a:	77 03                	ja     47f <_ZNK7vecgeom3cxx25ShapeImplementationHelperINS0_23TrapezoidImplementationILin1ELin1EEEE12DistanceToInERKNS0_8Vector3DIdEES8_d+0x47f>
 47c:	44 89 c7             	mov    %r8d,%edi
 47f:	83 f2 01             	xor    $0x1,%edx
 482:	20 c2                	and    %al,%dl
 484:	74 0d                	je     493 <_ZNK7vecgeom3cxx25ShapeImplementationHelperINS0_23TrapezoidImplementationILin1ELin1EEEE12DistanceToInERKNS0_8Vector3DIdEES8_d+0x493>
 486:	66 44 0f 2f 4c 24 10 	comisd 0x10(%rsp),%xmm9
 48d:	0f 82 82 fc ff ff    	jb     115 <_ZNK7vecgeom3cxx25ShapeImplementationHelperINS0_23TrapezoidImplementationILin1ELin1EEEE12DistanceToInERKNS0_8Vector3DIdEES8_d+0x115>
 493:	40 84 ff             	test   %dil,%dil
 496:	0f 85 79 fc ff ff    	jne    115 <_ZNK7vecgeom3cxx25ShapeImplementationHelperINS0_23TrapezoidImplementationILin1ELin1EEEE12DistanceToInERKNS0_8Vector3DIdEES8_d+0x115>
 49c:	f2 44 0f 10 54 24 10 	movsd  0x10(%rsp),%xmm10
 4a3:	66 44 0f 2f d3       	comisd %xmm3,%xmm10
 4a8:	76 1a                	jbe    4c4 <_ZNK7vecgeom3cxx25ShapeImplementationHelperINS0_23TrapezoidImplementationILin1ELin1EEEE12DistanceToInERKNS0_8Vector3DIdEES8_d+0x4c4>
 4aa:	66 45 0f 2f ca       	comisd %xmm10,%xmm9
 4af:	76 13                	jbe    4c4 <_ZNK7vecgeom3cxx25ShapeImplementationHelperINS0_23TrapezoidImplementationILin1ELin1EEEE12DistanceToInERKNS0_8Vector3DIdEES8_d+0x4c4>
 4b1:	84 d2                	test   %dl,%dl
 4b3:	74 05                	je     4ba <_ZNK7vecgeom3cxx25ShapeImplementationHelperINS0_23TrapezoidImplementationILin1ELin1EEEE12DistanceToInERKNS0_8Vector3DIdEES8_d+0x4ba>
 4b5:	66 41 0f 28 da       	movapd %xmm10,%xmm3
 4ba:	40 84 f6             	test   %sil,%sil
 4bd:	74 05                	je     4c4 <_ZNK7vecgeom3cxx25ShapeImplementationHelperINS0_23TrapezoidImplementationILin1ELin1EEEE12DistanceToInERKNS0_8Vector3DIdEES8_d+0x4c4>
 4bf:	66 45 0f 28 ca       	movapd %xmm10,%xmm9
 4c4:	f2 44 0f 10 54 24 d8 	movsd  -0x28(%rsp),%xmm10
 4cb:	66 44 0f 2f 15 00 00 	comisd 0x0(%rip),%xmm10        # 4d4 <_ZNK7vecgeom3cxx25ShapeImplementationHelperINS0_23TrapezoidImplementationILin1ELin1EEEE12DistanceToInERKNS0_8Vector3DIdEES8_d+0x4d4>
 4d2:	00 00 
 4d4:	0f 93 c0             	setae  %al
 4d7:	66 0f 2f 44 24 f8    	comisd -0x8(%rsp),%xmm0
 4dd:	89 c6                	mov    %eax,%esi
 4df:	41 89 c0             	mov    %eax,%r8d
 4e2:	0f 92 c2             	setb   %dl
 4e5:	83 f6 01             	xor    $0x1,%esi
 4e8:	41 21 d0             	and    %edx,%r8d
 4eb:	40 20 d6             	and    %dl,%sil
 4ee:	74 0d                	je     4fd <_ZNK7vecgeom3cxx25ShapeImplementationHelperINS0_23TrapezoidImplementationILin1ELin1EEEE12DistanceToInERKNS0_8Vector3DIdEES8_d+0x4fd>
 4f0:	66 0f 2f 5c 24 18    	comisd 0x18(%rsp),%xmm3
 4f6:	bf 01 00 00 00       	mov    $0x1,%edi
 4fb:	77 03                	ja     500 <_ZNK7vecgeom3cxx25ShapeImplementationHelperINS0_23TrapezoidImplementationILin1ELin1EEEE12DistanceToInERKNS0_8Vector3DIdEES8_d+0x500>
 4fd:	44 89 c7             	mov    %r8d,%edi
 500:	83 f2 01             	xor    $0x1,%edx
 503:	20 c2                	and    %al,%dl
 505:	74 0d                	je     514 <_ZNK7vecgeom3cxx25ShapeImplementationHelperINS0_23TrapezoidImplementationILin1ELin1EEEE12DistanceToInERKNS0_8Vector3DIdEES8_d+0x514>
 507:	66 44 0f 2f 4c 24 18 	comisd 0x18(%rsp),%xmm9
 50e:	0f 82 01 fc ff ff    	jb     115 <_ZNK7vecgeom3cxx25ShapeImplementationHelperINS0_23TrapezoidImplementationILin1ELin1EEEE12DistanceToInERKNS0_8Vector3DIdEES8_d+0x115>
 514:	40 84 ff             	test   %dil,%dil
 517:	0f 85 f8 fb ff ff    	jne    115 <_ZNK7vecgeom3cxx25ShapeImplementationHelperINS0_23TrapezoidImplementationILin1ELin1EEEE12DistanceToInERKNS0_8Vector3DIdEES8_d+0x115>
 51d:	f2 44 0f 10 54 24 18 	movsd  0x18(%rsp),%xmm10
 524:	66 44 0f 2f d3       	comisd %xmm3,%xmm10
 529:	76 1a                	jbe    545 <_ZNK7vecgeom3cxx25ShapeImplementationHelperINS0_23TrapezoidImplementationILin1ELin1EEEE12DistanceToInERKNS0_8Vector3DIdEES8_d+0x545>
 52b:	66 45 0f 2f ca       	comisd %xmm10,%xmm9
 530:	76 13                	jbe    545 <_ZNK7vecgeom3cxx25ShapeImplementationHelperINS0_23TrapezoidImplementationILin1ELin1EEEE12DistanceToInERKNS0_8Vector3DIdEES8_d+0x545>
 532:	84 d2                	test   %dl,%dl
 534:	74 05                	je     53b <_ZNK7vecgeom3cxx25ShapeImplementationHelperINS0_23TrapezoidImplementationILin1ELin1EEEE12DistanceToInERKNS0_8Vector3DIdEES8_d+0x53b>
 536:	66 41 0f 28 da       	movapd %xmm10,%xmm3
 53b:	40 84 f6             	test   %sil,%sil
 53e:	74 05                	je     545 <_ZNK7vecgeom3cxx25ShapeImplementationHelperINS0_23TrapezoidImplementationILin1ELin1EEEE12DistanceToInERKNS0_8Vector3DIdEES8_d+0x545>
 540:	66 45 0f 28 ca       	movapd %xmm10,%xmm9
 545:	f2 44 0f 10 54 24 e0 	movsd  -0x20(%rsp),%xmm10
 54c:	66 44 0f 2f 15 00 00 	comisd 0x0(%rip),%xmm10        # 555 <_ZNK7vecgeom3cxx25ShapeImplementationHelperINS0_23TrapezoidImplementationILin1ELin1EEEE12DistanceToInERKNS0_8Vector3DIdEES8_d+0x555>
 553:	00 00 
 555:	0f 93 c0             	setae  %al
 558:	66 0f 2f 04 24       	comisd (%rsp),%xmm0
 55d:	89 c6                	mov    %eax,%esi
 55f:	0f 92 c2             	setb   %dl
 562:	83 f6 01             	xor    $0x1,%esi
 565:	89 d7                	mov    %edx,%edi
 567:	21 c7                	and    %eax,%edi
 569:	40 84 d6             	test   %dl,%sil
 56c:	0f 84 fe 01 00 00    	je     770 <_ZNK7vecgeom3cxx25ShapeImplementationHelperINS0_23TrapezoidImplementationILin1ELin1EEEE12DistanceToInERKNS0_8Vector3DIdEES8_d+0x770>
 572:	66 0f 2f 5c 24 20    	comisd 0x20(%rsp),%xmm3
 578:	be 01 00 00 00       	mov    $0x1,%esi
 57d:	0f 86 ed 01 00 00    	jbe    770 <_ZNK7vecgeom3cxx25ShapeImplementationHelperINS0_23TrapezoidImplementationILin1ELin1EEEE12DistanceToInERKNS0_8Vector3DIdEES8_d+0x770>
 583:	83 f2 01             	xor    $0x1,%edx
 586:	20 c2                	and    %al,%dl
 588:	74 0d                	je     597 <_ZNK7vecgeom3cxx25ShapeImplementationHelperINS0_23TrapezoidImplementationILin1ELin1EEEE12DistanceToInERKNS0_8Vector3DIdEES8_d+0x597>
 58a:	66 44 0f 2f 4c 24 20 	comisd 0x20(%rsp),%xmm9
 591:	0f 82 7e fb ff ff    	jb     115 <_ZNK7vecgeom3cxx25ShapeImplementationHelperINS0_23TrapezoidImplementationILin1ELin1EEEE12DistanceToInERKNS0_8Vector3DIdEES8_d+0x115>
 597:	40 84 f6             	test   %sil,%sil
 59a:	0f 85 75 fb ff ff    	jne    115 <_ZNK7vecgeom3cxx25ShapeImplementationHelperINS0_23TrapezoidImplementationILin1ELin1EEEE12DistanceToInERKNS0_8Vector3DIdEES8_d+0x115>
 5a0:	f2 44 0f 10 54 24 20 	movsd  0x20(%rsp),%xmm10
 5a7:	66 44 0f 2f d3       	comisd %xmm3,%xmm10
 5ac:	76 14                	jbe    5c2 <_ZNK7vecgeom3cxx25ShapeImplementationHelperINS0_23TrapezoidImplementationILin1ELin1EEEE12DistanceToInERKNS0_8Vector3DIdEES8_d+0x5c2>
 5ae:	66 45 0f 2f ca       	comisd %xmm10,%xmm9
 5b3:	76 0d                	jbe    5c2 <_ZNK7vecgeom3cxx25ShapeImplementationHelperINS0_23TrapezoidImplementationILin1ELin1EEEE12DistanceToInERKNS0_8Vector3DIdEES8_d+0x5c2>
 5b5:	84 d2                	test   %dl,%dl
 5b7:	0f 84 fb 01 00 00    	je     7b8 <_ZNK7vecgeom3cxx25ShapeImplementationHelperINS0_23TrapezoidImplementationILin1ELin1EEEE12DistanceToInERKNS0_8Vector3DIdEES8_d+0x7b8>
 5bd:	66 41 0f 28 da       	movapd %xmm10,%xmm3
 5c2:	f2 44 0f 59 c3       	mulsd  %xmm3,%xmm8
 5c7:	f2 0f 59 f3          	mulsd  %xmm3,%xmm6
 5cb:	f2 0f 59 cb          	mulsd  %xmm3,%xmm1
 5cf:	f2 44 0f 58 c7       	addsd  %xmm7,%xmm8
 5d4:	f2 0f 58 f5          	addsd  %xmm5,%xmm6
 5d8:	f2 0f 10 a9 b8 00 00 	movsd  0xb8(%rcx),%xmm5
 5df:	00 
 5e0:	f2 0f 58 ca          	addsd  %xmm2,%xmm1
 5e4:	f2 0f 10 91 98 00 00 	movsd  0x98(%rcx),%xmm2
 5eb:	00 
 5ec:	f2 41 0f 59 d0       	mulsd  %xmm8,%xmm2
 5f1:	f2 0f 59 ee          	mulsd  %xmm6,%xmm5
 5f5:	f2 0f 58 d5          	addsd  %xmm5,%xmm2
 5f9:	f2 0f 10 a9 d8 00 00 	movsd  0xd8(%rcx),%xmm5
 600:	00 
 601:	f2 0f 59 e9          	mulsd  %xmm1,%xmm5
 605:	f2 0f 58 d5          	addsd  %xmm5,%xmm2
 609:	f2 0f 10 a9 c0 00 00 	movsd  0xc0(%rcx),%xmm5
 610:	00 
 611:	f2 0f 59 ee          	mulsd  %xmm6,%xmm5
 615:	f2 0f 58 91 f8 00 00 	addsd  0xf8(%rcx),%xmm2
 61c:	00 
 61d:	66 0f 2f 15 00 00 00 	comisd 0x0(%rip),%xmm2        # 625 <_ZNK7vecgeom3cxx25ShapeImplementationHelperINS0_23TrapezoidImplementationILin1ELin1EEEE12DistanceToInERKNS0_8Vector3DIdEES8_d+0x625>
 624:	00 
 625:	f2 0f 10 91 a0 00 00 	movsd  0xa0(%rcx),%xmm2
 62c:	00 
 62d:	f2 41 0f 59 d0       	mulsd  %xmm8,%xmm2
 632:	0f 96 c0             	setbe  %al
 635:	f2 0f 58 d5          	addsd  %xmm5,%xmm2
 639:	f2 0f 10 a9 e0 00 00 	movsd  0xe0(%rcx),%xmm5
 640:	00 
 641:	f2 0f 59 e9          	mulsd  %xmm1,%xmm5
 645:	f2 0f 58 d5          	addsd  %xmm5,%xmm2
 649:	f2 0f 10 a9 b0 00 00 	movsd  0xb0(%rcx),%xmm5
 650:	00 
 651:	f2 0f 59 ee          	mulsd  %xmm6,%xmm5
 655:	f2 0f 59 b1 a8 00 00 	mulsd  0xa8(%rcx),%xmm6
 65c:	00 
 65d:	f2 0f 58 91 00 01 00 	addsd  0x100(%rcx),%xmm2
 664:	00 
 665:	66 0f 2f 15 00 00 00 	comisd 0x0(%rip),%xmm2        # 66d <_ZNK7vecgeom3cxx25ShapeImplementationHelperINS0_23TrapezoidImplementationILin1ELin1EEEE12DistanceToInERKNS0_8Vector3DIdEES8_d+0x66d>
 66c:	00 
 66d:	f2 0f 10 91 90 00 00 	movsd  0x90(%rcx),%xmm2
 674:	00 
 675:	f2 41 0f 59 d0       	mulsd  %xmm8,%xmm2
 67a:	f2 44 0f 59 81 88 00 	mulsd  0x88(%rcx),%xmm8
 681:	00 00 
 683:	0f 96 c2             	setbe  %dl
 686:	f2 0f 58 d5          	addsd  %xmm5,%xmm2
 68a:	f2 0f 10 a9 d0 00 00 	movsd  0xd0(%rcx),%xmm5
 691:	00 
 692:	21 d0                	and    %edx,%eax
 694:	f2 0f 59 e9          	mulsd  %xmm1,%xmm5
 698:	f2 0f 59 89 c8 00 00 	mulsd  0xc8(%rcx),%xmm1
 69f:	00 
 6a0:	f2 44 0f 58 c6       	addsd  %xmm6,%xmm8
 6a5:	f2 0f 58 d5          	addsd  %xmm5,%xmm2
 6a9:	f2 44 0f 58 c1       	addsd  %xmm1,%xmm8
 6ae:	f2 0f 58 91 f0 00 00 	addsd  0xf0(%rcx),%xmm2
 6b5:	00 
 6b6:	f2 44 0f 58 81 e8 00 	addsd  0xe8(%rcx),%xmm8
 6bd:	00 00 
 6bf:	66 0f 2f 15 00 00 00 	comisd 0x0(%rip),%xmm2        # 6c7 <_ZNK7vecgeom3cxx25ShapeImplementationHelperINS0_23TrapezoidImplementationILin1ELin1EEEE12DistanceToInERKNS0_8Vector3DIdEES8_d+0x6c7>
 6c6:	00 
 6c7:	0f 96 c2             	setbe  %dl
 6ca:	21 d0                	and    %edx,%eax
 6cc:	66 44 0f 2f 05 00 00 	comisd 0x0(%rip),%xmm8        # 6d5 <_ZNK7vecgeom3cxx25ShapeImplementationHelperINS0_23TrapezoidImplementationILin1ELin1EEEE12DistanceToInERKNS0_8Vector3DIdEES8_d+0x6d5>
 6d3:	00 00 
 6d5:	0f 96 c2             	setbe  %dl
 6d8:	84 c2                	test   %al,%dl
 6da:	0f 84 35 fa ff ff    	je     115 <_ZNK7vecgeom3cxx25ShapeImplementationHelperINS0_23TrapezoidImplementationILin1ELin1EEEE12DistanceToInERKNS0_8Vector3DIdEES8_d+0x115>
 6e0:	66 0f 2f 5c 24 c0    	comisd -0x40(%rsp),%xmm3
 6e6:	0f 97 c2             	seta   %dl
 6e9:	66 0f 2f 1d 00 00 00 	comisd 0x0(%rip),%xmm3        # 6f1 <_ZNK7vecgeom3cxx25ShapeImplementationHelperINS0_23TrapezoidImplementationILin1ELin1EEEE12DistanceToInERKNS0_8Vector3DIdEES8_d+0x6f1>
 6f0:	00 
 6f1:	0f 97 c0             	seta   %al
 6f4:	08 c2                	or     %al,%dl
 6f6:	0f 85 19 fa ff ff    	jne    115 <_ZNK7vecgeom3cxx25ShapeImplementationHelperINS0_23TrapezoidImplementationILin1ELin1EEEE12DistanceToInERKNS0_8Vector3DIdEES8_d+0x115>
 6fc:	66 0f 2f dc          	comisd %xmm4,%xmm3
 700:	76 1f                	jbe    721 <_ZNK7vecgeom3cxx25ShapeImplementationHelperINS0_23TrapezoidImplementationILin1ELin1EEEE12DistanceToInERKNS0_8Vector3DIdEES8_d+0x721>
 702:	66 0f 28 cb          	movapd %xmm3,%xmm1
 706:	f2 0f c2 4c 24 c0 05 	cmpnltsd -0x40(%rsp),%xmm1
 70d:	66 0f 54 e1          	andpd  %xmm1,%xmm4
 711:	66 0f 28 d4          	movapd %xmm4,%xmm2
 715:	66 0f 28 e1          	movapd %xmm1,%xmm4
 719:	66 0f 55 e3          	andnpd %xmm3,%xmm4
 71d:	66 0f 56 e2          	orpd   %xmm2,%xmm4
 721:	f2 0f 5f c4          	maxsd  %xmm4,%xmm0
 725:	48 83 c4 30          	add    $0x30,%rsp
 729:	c3                   	retq   
 72a:	66 0f 1f 44 00 00    	nopw   0x0(%rax,%rax,1)
 730:	f2 0f 10 25 00 00 00 	movsd  0x0(%rip),%xmm4        # 738 <_ZNK7vecgeom3cxx25ShapeImplementationHelperINS0_23TrapezoidImplementationILin1ELin1EEEE12DistanceToInERKNS0_8Vector3DIdEES8_d+0x738>
 737:	00 
 738:	f2 44 0f 10 2d 00 00 	movsd  0x0(%rip),%xmm13        # 741 <_ZNK7vecgeom3cxx25ShapeImplementationHelperINS0_23TrapezoidImplementationILin1ELin1EEEE12DistanceToInERKNS0_8Vector3DIdEES8_d+0x741>
 73f:	00 00 
 741:	f2 0f 11 64 24 b8    	movsd  %xmm4,-0x48(%rsp)
 747:	66 41 0f 28 fd       	movapd %xmm13,%xmm7
 74c:	e9 97 f9 ff ff       	jmpq   e8 <_ZNK7vecgeom3cxx25ShapeImplementationHelperINS0_23TrapezoidImplementationILin1ELin1EEEE12DistanceToInERKNS0_8Vector3DIdEES8_d+0xe8>
 751:	0f 1f 80 00 00 00 00 	nopl   0x0(%rax)
 758:	84 d2                	test   %dl,%dl
 75a:	0f 85 b5 f9 ff ff    	jne    115 <_ZNK7vecgeom3cxx25ShapeImplementationHelperINS0_23TrapezoidImplementationILin1ELin1EEEE12DistanceToInERKNS0_8Vector3DIdEES8_d+0x115>
 760:	84 c0                	test   %al,%al
 762:	0f 84 0c fa ff ff    	je     174 <_ZNK7vecgeom3cxx25ShapeImplementationHelperINS0_23TrapezoidImplementationILin1ELin1EEEE12DistanceToInERKNS0_8Vector3DIdEES8_d+0x174>
 768:	e9 ff f9 ff ff       	jmpq   16c <_ZNK7vecgeom3cxx25ShapeImplementationHelperINS0_23TrapezoidImplementationILin1ELin1EEEE12DistanceToInERKNS0_8Vector3DIdEES8_d+0x16c>
 76d:	0f 1f 00             	nopl   (%rax)
 770:	89 fe                	mov    %edi,%esi
 772:	e9 0c fe ff ff       	jmpq   583 <_ZNK7vecgeom3cxx25ShapeImplementationHelperINS0_23TrapezoidImplementationILin1ELin1EEEE12DistanceToInERKNS0_8Vector3DIdEES8_d+0x583>
 777:	66 0f 1f 84 00 00 00 	nopw   0x0(%rax,%rax,1)
 77e:	00 00 
 780:	66 0f 28 dc          	movapd %xmm4,%xmm3
 784:	f2 44 0f 10 0d 00 00 	movsd  0x0(%rip),%xmm9        # 78d <_ZNK7vecgeom3cxx25ShapeImplementationHelperINS0_23TrapezoidImplementationILin1ELin1EEEE12DistanceToInERKNS0_8Vector3DIdEES8_d+0x78d>
 78b:	00 00 
 78d:	e9 b1 fc ff ff       	jmpq   443 <_ZNK7vecgeom3cxx25ShapeImplementationHelperINS0_23TrapezoidImplementationILin1ELin1EEEE12DistanceToInERKNS0_8Vector3DIdEES8_d+0x443>
 792:	66 0f 1f 44 00 00    	nopw   0x0(%rax,%rax,1)
 798:	f2 0f 10 3d 00 00 00 	movsd  0x0(%rip),%xmm7        # 7a0 <_ZNK7vecgeom3cxx25ShapeImplementationHelperINS0_23TrapezoidImplementationILin1ELin1EEEE12DistanceToInERKNS0_8Vector3DIdEES8_d+0x7a0>
 79f:	00 
 7a0:	66 0f 28 e0          	movapd %xmm0,%xmm4
 7a4:	f2 0f 11 7c 24 c0    	movsd  %xmm7,-0x40(%rsp)
 7aa:	e9 e4 f9 ff ff       	jmpq   193 <_ZNK7vecgeom3cxx25ShapeImplementationHelperINS0_23TrapezoidImplementationILin1ELin1EEEE12DistanceToInERKNS0_8Vector3DIdEES8_d+0x193>
 7af:	66 0f 28 dc          	movapd %xmm4,%xmm3
 7b3:	e9 82 fc ff ff       	jmpq   43a <_ZNK7vecgeom3cxx25ShapeImplementationHelperINS0_23TrapezoidImplementationILin1ELin1EEEE12DistanceToInERKNS0_8Vector3DIdEES8_d+0x43a>
 7b8:	66 44 0f 28 d3       	movapd %xmm3,%xmm10
 7bd:	e9 fb fd ff ff       	jmpq   5bd <_ZNK7vecgeom3cxx25ShapeImplementationHelperINS0_23TrapezoidImplementationILin1ELin1EEEE12DistanceToInERKNS0_8Vector3DIdEES8_d+0x5bd>
 7c2:	f2 44 0f 10 0d 00 00 	movsd  0x0(%rip),%xmm9        # 7cb <_ZNK7vecgeom3cxx25ShapeImplementationHelperINS0_23TrapezoidImplementationILin1ELin1EEEE12DistanceToInERKNS0_8Vector3DIdEES8_d+0x7cb>
 7c9:	00 00 
 7cb:	e9 73 fc ff ff       	jmpq   443 <_ZNK7vecgeom3cxx25ShapeImplementationHelperINS0_23TrapezoidImplementationILin1ELin1EEEE12DistanceToInERKNS0_8Vector3DIdEES8_d+0x443>

Disassembly of section .text._ZNK7vecgeom3cxx25ShapeImplementationHelperINS0_23TrapezoidImplementationILin1ELin1EEEE16UnplacedContainsERKNS0_8Vector3DIdEE:

0000000000000000 <_ZNK7vecgeom3cxx25ShapeImplementationHelperINS0_23TrapezoidImplementationILin1ELin1EEEE16UnplacedContainsERKNS0_8Vector3DIdEE>:
   0:	48 8b 47 18          	mov    0x18(%rdi),%rax
   4:	f2 0f 10 46 20       	movsd  0x20(%rsi),%xmm0
   9:	f2 0f 10 0d 00 00 00 	movsd  0x0(%rip),%xmm1        # 11 <_ZNK7vecgeom3cxx25ShapeImplementationHelperINS0_23TrapezoidImplementationILin1ELin1EEEE16UnplacedContainsERKNS0_8Vector3DIdEE+0x11>
  10:	00 
  11:	48 8b 10             	mov    (%rax),%rdx
  14:	66 0f 54 c8          	andpd  %xmm0,%xmm1
  18:	31 c0                	xor    %eax,%eax
  1a:	66 0f 2f 4a 20       	comisd 0x20(%rdx),%xmm1
  1f:	76 07                	jbe    28 <_ZNK7vecgeom3cxx25ShapeImplementationHelperINS0_23TrapezoidImplementationILin1ELin1EEEE16UnplacedContainsERKNS0_8Vector3DIdEE+0x28>
  21:	f3 c3                	repz retq 
  23:	0f 1f 44 00 00       	nopl   0x0(%rax,%rax,1)
  28:	f2 0f 10 66 10       	movsd  0x10(%rsi),%xmm4
  2d:	f2 0f 10 5e 18       	movsd  0x18(%rsi),%xmm3
  32:	66 0f 28 d0          	movapd %xmm0,%xmm2
  36:	f2 0f 10 8a a8 00 00 	movsd  0xa8(%rdx),%xmm1
  3d:	00 
  3e:	f2 0f 10 82 88 00 00 	movsd  0x88(%rdx),%xmm0
  45:	00 
  46:	66 0f 14 e4          	unpcklpd %xmm4,%xmm4
  4a:	66 0f 16 8a b0 00 00 	movhpd 0xb0(%rdx),%xmm1
  51:	00 
  52:	66 0f 14 db          	unpcklpd %xmm3,%xmm3
  56:	66 0f 16 82 90 00 00 	movhpd 0x90(%rdx),%xmm0
  5d:	00 
  5e:	66 0f 14 d2          	unpcklpd %xmm2,%xmm2
  62:	66 0f 59 c4          	mulpd  %xmm4,%xmm0
  66:	66 0f 59 cb          	mulpd  %xmm3,%xmm1
  6a:	66 0f 58 c1          	addpd  %xmm1,%xmm0
  6e:	f2 0f 10 8a c8 00 00 	movsd  0xc8(%rdx),%xmm1
  75:	00 
  76:	66 0f 16 8a d0 00 00 	movhpd 0xd0(%rdx),%xmm1
  7d:	00 
  7e:	66 0f 59 ca          	mulpd  %xmm2,%xmm1
  82:	66 0f 58 c1          	addpd  %xmm1,%xmm0
  86:	f2 0f 10 8a e8 00 00 	movsd  0xe8(%rdx),%xmm1
  8d:	00 
  8e:	66 0f 16 8a f0 00 00 	movhpd 0xf0(%rdx),%xmm1
  95:	00 
  96:	66 0f 58 c1          	addpd  %xmm1,%xmm0
  9a:	f2 0f 10 8a b8 00 00 	movsd  0xb8(%rdx),%xmm1
  a1:	00 
  a2:	66 0f 16 8a c0 00 00 	movhpd 0xc0(%rdx),%xmm1
  a9:	00 
  aa:	66 0f 29 44 24 d8    	movapd %xmm0,-0x28(%rsp)
  b0:	66 0f 59 cb          	mulpd  %xmm3,%xmm1
  b4:	f2 0f 10 82 98 00 00 	movsd  0x98(%rdx),%xmm0
  bb:	00 
  bc:	66 0f 16 82 a0 00 00 	movhpd 0xa0(%rdx),%xmm0
  c3:	00 
  c4:	66 0f 59 c4          	mulpd  %xmm4,%xmm0
  c8:	66 0f 58 c1          	addpd  %xmm1,%xmm0
  cc:	f2 0f 10 8a d8 00 00 	movsd  0xd8(%rdx),%xmm1
  d3:	00 
  d4:	66 0f 16 8a e0 00 00 	movhpd 0xe0(%rdx),%xmm1
  db:	00 
  dc:	66 0f 59 ca          	mulpd  %xmm2,%xmm1
  e0:	66 0f 58 c1          	addpd  %xmm1,%xmm0
  e4:	f2 0f 10 8a f8 00 00 	movsd  0xf8(%rdx),%xmm1
  eb:	00 
  ec:	66 0f 16 8a 00 01 00 	movhpd 0x100(%rdx),%xmm1
  f3:	00 
  f4:	66 0f 58 c1          	addpd  %xmm1,%xmm0
  f8:	66 0f 29 44 24 e8    	movapd %xmm0,-0x18(%rsp)
  fe:	66 0f 57 c0          	xorpd  %xmm0,%xmm0
 102:	66 0f 2f 44 24 d8    	comisd -0x28(%rsp),%xmm0
 108:	72 26                	jb     130 <_ZNK7vecgeom3cxx25ShapeImplementationHelperINS0_23TrapezoidImplementationILin1ELin1EEEE16UnplacedContainsERKNS0_8Vector3DIdEE+0x130>
 10a:	66 0f 2f 44 24 e0    	comisd -0x20(%rsp),%xmm0
 110:	72 1e                	jb     130 <_ZNK7vecgeom3cxx25ShapeImplementationHelperINS0_23TrapezoidImplementationILin1ELin1EEEE16UnplacedContainsERKNS0_8Vector3DIdEE+0x130>
 112:	66 0f 2f 44 24 e8    	comisd -0x18(%rsp),%xmm0
 118:	72 16                	jb     130 <_ZNK7vecgeom3cxx25ShapeImplementationHelperINS0_23TrapezoidImplementationILin1ELin1EEEE16UnplacedContainsERKNS0_8Vector3DIdEE+0x130>
 11a:	66 0f 2f 44 24 f0    	comisd -0x10(%rsp),%xmm0
 120:	72 0e                	jb     130 <_ZNK7vecgeom3cxx25ShapeImplementationHelperINS0_23TrapezoidImplementationILin1ELin1EEEE16UnplacedContainsERKNS0_8Vector3DIdEE+0x130>
 122:	b8 01 00 00 00       	mov    $0x1,%eax
 127:	c3                   	retq   
 128:	0f 1f 84 00 00 00 00 	nopl   0x0(%rax,%rax,1)
 12f:	00 
 130:	31 c0                	xor    %eax,%eax
 132:	c3                   	retq   

Disassembly of section .text._ZNK7vecgeom3cxx25ShapeImplementationHelperINS0_23TrapezoidImplementationILin1ELin1EEEE12DistanceToInERKNS0_5SOA3DIdEES8_PKdPd:

0000000000000000 <_ZNK7vecgeom3cxx25ShapeImplementationHelperINS0_23TrapezoidImplementationILin1ELin1EEEE12DistanceToInERKNS0_5SOA3DIdEES8_PKdPd>:
   0:	48 8b 46 08          	mov    0x8(%rsi),%rax
   4:	85 c0                	test   %eax,%eax
   6:	0f 8e 19 09 00 00    	jle    925 <_ZNK7vecgeom3cxx25ShapeImplementationHelperINS0_23TrapezoidImplementationILin1ELin1EEEE12DistanceToInERKNS0_5SOA3DIdEES8_PKdPd+0x925>
   c:	41 56                	push   %r14
   e:	83 e8 01             	sub    $0x1,%eax
  11:	45 31 c9             	xor    %r9d,%r9d
  14:	d1 e8                	shr    %eax
  16:	41 54                	push   %r12
  18:	55                   	push   %rbp
  19:	48 8d 68 01          	lea    0x1(%rax),%rbp
  1d:	53                   	push   %rbx
  1e:	48 c1 e5 04          	shl    $0x4,%rbp
  22:	48 81 ec d0 01 00 00 	sub    $0x1d0,%rsp
  29:	48 8b 05 00 00 00 00 	mov    0x0(%rip),%rax        # 30 <_ZNK7vecgeom3cxx25ShapeImplementationHelperINS0_23TrapezoidImplementationILin1ELin1EEEE12DistanceToInERKNS0_5SOA3DIdEES8_PKdPd+0x30>
  30:	4c 8b 25 00 00 00 00 	mov    0x0(%rip),%r12        # 37 <_ZNK7vecgeom3cxx25ShapeImplementationHelperINS0_23TrapezoidImplementationILin1ELin1EEEE12DistanceToInERKNS0_5SOA3DIdEES8_PKdPd+0x37>
  37:	48 8d 9c 24 08 01 00 	lea    0x108(%rsp),%rbx
  3e:	00 
  3f:	4c 8d 9c 24 48 01 00 	lea    0x148(%rsp),%r11
  46:	00 
  47:	4c 8d 94 24 88 01 00 	lea    0x188(%rsp),%r10
  4e:	00 
  4f:	0f 28 10             	movaps (%rax),%xmm2
  52:	48 8b 05 00 00 00 00 	mov    0x0(%rip),%rax        # 59 <_ZNK7vecgeom3cxx25ShapeImplementationHelperINS0_23TrapezoidImplementationILin1ELin1EEEE12DistanceToInERKNS0_5SOA3DIdEES8_PKdPd+0x59>
  59:	0f 29 94 24 d8 00 00 	movaps %xmm2,0xd8(%rsp)
  60:	00 
  61:	66 0f 28 10          	movapd (%rax),%xmm2
  65:	48 8b 05 00 00 00 00 	mov    0x0(%rip),%rax        # 6c <_ZNK7vecgeom3cxx25ShapeImplementationHelperINS0_23TrapezoidImplementationILin1ELin1EEEE12DistanceToInERKNS0_5SOA3DIdEES8_PKdPd+0x6c>
  6c:	66 0f 29 54 24 c8    	movapd %xmm2,-0x38(%rsp)
  72:	66 0f 28 00          	movapd (%rax),%xmm0
  76:	48 8b 05 00 00 00 00 	mov    0x0(%rip),%rax        # 7d <_ZNK7vecgeom3cxx25ShapeImplementationHelperINS0_23TrapezoidImplementationILin1ELin1EEEE12DistanceToInERKNS0_5SOA3DIdEES8_PKdPd+0x7d>
  7d:	66 0f 57 d0          	xorpd  %xmm0,%xmm2
  81:	66 0f 29 44 24 88    	movapd %xmm0,-0x78(%rsp)
  87:	66 0f 29 94 24 e8 00 	movapd %xmm2,0xe8(%rsp)
  8e:	00 00 
  90:	66 0f 74 d2          	pcmpeqb %xmm2,%xmm2
  94:	66 0f 7f 54 24 a8    	movdqa %xmm2,-0x58(%rsp)
  9a:	66 44 0f 6f c2       	movdqa %xmm2,%xmm8
  9f:	0f 28 00             	movaps (%rax),%xmm0
  a2:	0f 29 84 24 f8 00 00 	movaps %xmm0,0xf8(%rsp)
  a9:	00 
  aa:	66 0f 1f 44 00 00    	nopw   0x0(%rax,%rax,1)
  b0:	48 8b 4f 20          	mov    0x20(%rdi),%rcx
  b4:	4c 8b 76 18          	mov    0x18(%rsi),%r14
  b8:	48 8b 42 28          	mov    0x28(%rdx),%rax
  bc:	f2 0f 10 01          	movsd  (%rcx),%xmm0
  c0:	66 47 0f 28 0c 0e    	movapd (%r14,%r9,1),%xmm9
  c6:	66 0f 14 c0          	unpcklpd %xmm0,%xmm0
  ca:	4c 8b 76 20          	mov    0x20(%rsi),%r14
  ce:	f2 0f 10 59 10       	movsd  0x10(%rcx),%xmm3
  d3:	f2 0f 10 79 28       	movsd  0x28(%rcx),%xmm7
  d8:	66 44 0f 5c c8       	subpd  %xmm0,%xmm9
  dd:	f2 0f 10 41 08       	movsd  0x8(%rcx),%xmm0
  e2:	66 43 0f 28 0c 0e    	movapd (%r14,%r9,1),%xmm1
  e8:	66 0f 14 c0          	unpcklpd %xmm0,%xmm0
  ec:	4c 8b 76 28          	mov    0x28(%rsi),%r14
  f0:	66 0f 14 db          	unpcklpd %xmm3,%xmm3
  f4:	66 42 0f 28 14 08    	movapd (%rax,%r9,1),%xmm2
  fa:	66 0f 14 ff          	unpcklpd %xmm7,%xmm7
  fe:	48 8b 42 20          	mov    0x20(%rdx),%rax
 102:	66 0f 5c c8          	subpd  %xmm0,%xmm1
 106:	66 43 0f 28 04 0e    	movapd (%r14,%r9,1),%xmm0
 10c:	66 45 0f 28 e9       	movapd %xmm9,%xmm13
 111:	66 0f 5c c3          	subpd  %xmm3,%xmm0
 115:	f2 44 0f 10 79 30    	movsd  0x30(%rcx),%xmm15
 11b:	f2 0f 10 59 18       	movsd  0x18(%rcx),%xmm3
 120:	66 45 0f 14 ff       	unpcklpd %xmm15,%xmm15
 125:	66 42 0f 28 34 08    	movapd (%rax,%r9,1),%xmm6
 12b:	66 0f 14 db          	unpcklpd %xmm3,%xmm3
 12f:	48 8b 42 18          	mov    0x18(%rdx),%rax
 133:	66 0f 29 7c 24 98    	movapd %xmm7,-0x68(%rsp)
 139:	66 0f 28 f9          	movapd %xmm1,%xmm7
 13d:	66 44 0f 59 eb       	mulpd  %xmm3,%xmm13
 142:	66 41 0f 59 ff       	mulpd  %xmm15,%xmm7
 147:	66 42 0f 28 2c 08    	movapd (%rax,%r9,1),%xmm5
 14d:	66 44 0f 59 fe       	mulpd  %xmm6,%xmm15
 152:	48 8b 47 18          	mov    0x18(%rdi),%rax
 156:	f2 44 0f 10 51 48    	movsd  0x48(%rcx),%xmm10
 15c:	66 44 0f 58 ef       	addpd  %xmm7,%xmm13
 161:	66 0f 28 f8          	movapd %xmm0,%xmm7
 165:	66 45 0f 14 d2       	unpcklpd %xmm10,%xmm10
 16a:	48 8b 00             	mov    (%rax),%rax
 16d:	f2 44 0f 10 61 40    	movsd  0x40(%rcx),%xmm12
 173:	f2 0f 10 61 20       	movsd  0x20(%rcx),%xmm4
 178:	66 41 0f 59 fa       	mulpd  %xmm10,%xmm7
 17d:	f2 44 0f 10 71 38    	movsd  0x38(%rcx),%xmm14
 183:	66 45 0f 14 e4       	unpcklpd %xmm12,%xmm12
 188:	66 0f 14 e4          	unpcklpd %xmm4,%xmm4
 18c:	66 44 0f 58 ef       	addpd  %xmm7,%xmm13
 191:	f2 0f 10 79 50       	movsd  0x50(%rcx),%xmm7
 196:	66 45 0f 14 f6       	unpcklpd %xmm14,%xmm14
 19b:	66 0f 14 ff          	unpcklpd %xmm7,%xmm7
 19f:	66 44 0f 29 64 24 b8 	movapd %xmm12,-0x48(%rsp)
 1a6:	66 45 0f 28 e1       	movapd %xmm9,%xmm12
 1ab:	66 44 0f 28 df       	movapd %xmm7,%xmm11
 1b0:	66 0f 28 f9          	movapd %xmm1,%xmm7
 1b4:	66 44 0f 59 e4       	mulpd  %xmm4,%xmm12
 1b9:	66 44 0f 29 5c 24 d8 	movapd %xmm11,-0x28(%rsp)
 1c0:	66 41 0f 59 fe       	mulpd  %xmm14,%xmm7
 1c5:	66 0f 59 dd          	mulpd  %xmm5,%xmm3
 1c9:	66 44 0f 59 4c 24 98 	mulpd  -0x68(%rsp),%xmm9
 1d0:	66 44 0f 58 e7       	addpd  %xmm7,%xmm12
 1d5:	66 41 0f 28 fb       	movapd %xmm11,%xmm7
 1da:	f2 44 0f 10 59 58    	movsd  0x58(%rcx),%xmm11
 1e0:	66 0f 59 f8          	mulpd  %xmm0,%xmm7
 1e4:	66 45 0f 14 db       	unpcklpd %xmm11,%xmm11
 1e9:	66 0f 59 4c 24 b8    	mulpd  -0x48(%rsp),%xmm1
 1ef:	66 44 0f 58 e7       	addpd  %xmm7,%xmm12
 1f4:	66 41 0f 28 fb       	movapd %xmm11,%xmm7
 1f9:	66 45 0f 28 d9       	movapd %xmm9,%xmm11
 1fe:	66 44 0f 28 cb       	movapd %xmm3,%xmm9
 203:	66 44 0f 59 d2       	mulpd  %xmm2,%xmm10
 208:	66 45 0f 58 cf       	addpd  %xmm15,%xmm9
 20d:	66 0f 59 c7          	mulpd  %xmm7,%xmm0
 211:	66 44 0f 58 d9       	addpd  %xmm1,%xmm11
 216:	66 0f 28 8c 24 e8 00 	movapd 0xe8(%rsp),%xmm1
 21d:	00 00 
 21f:	66 44 0f 59 f6       	mulpd  %xmm6,%xmm14
 224:	66 45 0f 58 ca       	addpd  %xmm10,%xmm9
 229:	66 0f 59 74 24 b8    	mulpd  -0x48(%rsp),%xmm6
 22f:	66 44 0f 28 54 24 98 	movapd -0x68(%rsp),%xmm10
 236:	66 44 0f 58 d8       	addpd  %xmm0,%xmm11
 23b:	66 0f 59 e5          	mulpd  %xmm5,%xmm4
 23f:	66 0f 28 44 24 d8    	movapd -0x28(%rsp),%xmm0
 245:	66 44 0f 59 d5       	mulpd  %xmm5,%xmm10
 24a:	66 0f 59 c2          	mulpd  %xmm2,%xmm0
 24e:	66 44 0f 28 fc       	movapd %xmm4,%xmm15
 253:	66 0f 59 d7          	mulpd  %xmm7,%xmm2
 257:	66 44 0f 58 d6       	addpd  %xmm6,%xmm10
 25c:	f2 0f 10 70 20       	movsd  0x20(%rax),%xmm6
 261:	66 45 0f 58 fe       	addpd  %xmm14,%xmm15
 266:	44 0f 28 b4 24 d8 00 	movaps 0xd8(%rsp),%xmm14
 26d:	00 00 
 26f:	66 0f 28 ee          	movapd %xmm6,%xmm5
 273:	66 44 0f 58 d2       	addpd  %xmm2,%xmm10
 278:	66 0f 14 ed          	unpcklpd %xmm5,%xmm5
 27c:	66 44 0f 58 f8       	addpd  %xmm0,%xmm15
 281:	66 0f 57 c0          	xorpd  %xmm0,%xmm0
 285:	41 0f 28 d6          	movaps %xmm14,%xmm2
 289:	66 41 0f 28 da       	movapd %xmm10,%xmm3
 28e:	66 41 0f 28 fa       	movapd %xmm10,%xmm7
 293:	66 0f c2 d8 01       	cmpltpd %xmm0,%xmm3
 298:	66 0f c2 f8 06       	cmpnlepd %xmm0,%xmm7
 29d:	66 0f 28 c3          	movapd %xmm3,%xmm0
 2a1:	66 0f 54 cb          	andpd  %xmm3,%xmm1
 2a5:	66 0f 55 44 24 c8    	andnpd -0x38(%rsp),%xmm0
 2ab:	66 0f 56 c1          	orpd   %xmm1,%xmm0
 2af:	66 0f 28 c8          	movapd %xmm0,%xmm1
 2b3:	66 0f 59 cd          	mulpd  %xmm5,%xmm1
 2b7:	66 41 0f 5c cb       	subpd  %xmm11,%xmm1
 2bc:	66 0f 28 e1          	movapd %xmm1,%xmm4
 2c0:	66 0f c2 25 00 00 00 	cmpltpd 0x0(%rip),%xmm4        # 2c9 <_ZNK7vecgeom3cxx25ShapeImplementationHelperINS0_23TrapezoidImplementationILin1ELin1EEEE12DistanceToInERKNS0_5SOA3DIdEES8_PKdPd+0x2c9>
 2c7:	00 01 
 2c9:	0f 54 e7             	andps  %xmm7,%xmm4
 2cc:	41 0f 56 e6          	orps   %xmm14,%xmm4
 2d0:	44 0f 28 f4          	movaps %xmm4,%xmm14
 2d4:	66 0f 28 e1          	movapd %xmm1,%xmm4
 2d8:	66 0f c2 25 00 00 00 	cmpnlepd 0x0(%rip),%xmm4        # 2e1 <_ZNK7vecgeom3cxx25ShapeImplementationHelperINS0_23TrapezoidImplementationILin1ELin1EEEE12DistanceToInERKNS0_5SOA3DIdEES8_PKdPd+0x2e1>
 2df:	00 06 
 2e1:	0f 54 e3             	andps  %xmm3,%xmm4
 2e4:	41 0f 56 e6          	orps   %xmm14,%xmm4
 2e8:	0f 29 64 24 98       	movaps %xmm4,-0x68(%rsp)
 2ed:	66 0f df 5c 24 a8    	pandn  -0x58(%rsp),%xmm3
 2f3:	66 0f 28 64 24 c8    	movapd -0x38(%rsp),%xmm4
 2f9:	66 0f df 7c 24 a8    	pandn  -0x58(%rsp),%xmm7
 2ff:	f2 0f 5c 35 00 00 00 	subsd  0x0(%rip),%xmm6        # 307 <_ZNK7vecgeom3cxx25ShapeImplementationHelperINS0_23TrapezoidImplementationILin1ELin1EEEE12DistanceToInERKNS0_5SOA3DIdEES8_PKdPd+0x307>
 306:	00 
 307:	66 44 0f 28 74 24 88 	movapd -0x78(%rsp),%xmm14
 30e:	66 41 0f 57 c6       	xorpd  %xmm14,%xmm0
 313:	0f 54 fb             	andps  %xmm3,%xmm7
 316:	66 41 0f 28 1c 24    	movapd (%r12),%xmm3
 31c:	66 0f 14 f6          	unpcklpd %xmm6,%xmm6
 320:	66 0f 59 c5          	mulpd  %xmm5,%xmm0
 324:	66 41 0f 54 db       	andpd  %xmm11,%xmm3
 329:	66 0f c2 de 01       	cmpltpd %xmm6,%xmm3
 32e:	66 41 0f 5e e2       	divpd  %xmm10,%xmm4
 333:	66 41 0f 5c c3       	subpd  %xmm11,%xmm0
 338:	66 0f 6f f3          	movdqa %xmm3,%xmm6
 33c:	66 0f df 74 24 a8    	pandn  -0x58(%rsp),%xmm6
 342:	0f 54 df             	andps  %xmm7,%xmm3
 345:	0f 54 f7             	andps  %xmm7,%xmm6
 348:	66 0f 28 fb          	movapd %xmm3,%xmm7
 34c:	66 0f 28 eb          	movapd %xmm3,%xmm5
 350:	66 0f 59 c4          	mulpd  %xmm4,%xmm0
 354:	0f 56 74 24 98       	orps   -0x68(%rsp),%xmm6
 359:	66 0f 59 cc          	mulpd  %xmm4,%xmm1
 35d:	66 0f 55 f8          	andnpd %xmm0,%xmm7
 361:	66 0f 28 05 00 00 00 	movapd 0x0(%rip),%xmm0        # 369 <_ZNK7vecgeom3cxx25ShapeImplementationHelperINS0_23TrapezoidImplementationILin1ELin1EEEE12DistanceToInERKNS0_5SOA3DIdEES8_PKdPd+0x369>
 368:	00 
 369:	66 0f 29 7c 24 b8    	movapd %xmm7,-0x48(%rsp)
 36f:	66 0f 54 c3          	andpd  %xmm3,%xmm0
 373:	0f 29 74 24 98       	movaps %xmm6,-0x68(%rsp)
 378:	66 0f 55 e9          	andnpd %xmm1,%xmm5
 37c:	f2 0f 10 98 c8 00 00 	movsd  0xc8(%rax),%xmm3
 383:	00 
 384:	f2 0f 10 b8 a8 00 00 	movsd  0xa8(%rax),%xmm7
 38b:	00 
 38c:	66 0f 14 db          	unpcklpd %xmm3,%xmm3
 390:	66 0f 14 ff          	unpcklpd %xmm7,%xmm7
 394:	f2 0f 10 b0 88 00 00 	movsd  0x88(%rax),%xmm6
 39b:	00 
 39c:	66 0f 56 c5          	orpd   %xmm5,%xmm0
 3a0:	66 0f 28 cf          	movapd %xmm7,%xmm1
 3a4:	66 0f 14 f6          	unpcklpd %xmm6,%xmm6
 3a8:	66 0f 29 7c 24 f8    	movapd %xmm7,-0x8(%rsp)
 3ae:	66 0f 28 fb          	movapd %xmm3,%xmm7
 3b2:	66 0f 28 e6          	movapd %xmm6,%xmm4
 3b6:	66 41 0f 59 fb       	mulpd  %xmm11,%xmm7
 3bb:	66 0f 29 5c 24 e8    	movapd %xmm3,-0x18(%rsp)
 3c1:	66 0f 29 74 24 08    	movapd %xmm6,0x8(%rsp)
 3c7:	66 0f 28 f3          	movapd %xmm3,%xmm6
 3cb:	66 0f 28 dc          	movapd %xmm4,%xmm3
 3cf:	66 41 0f 59 e1       	mulpd  %xmm9,%xmm4
 3d4:	66 0f 29 44 24 d8    	movapd %xmm0,-0x28(%rsp)
 3da:	66 41 0f 59 dd       	mulpd  %xmm13,%xmm3
 3df:	66 0f 28 c7          	movapd %xmm7,%xmm0
 3e3:	66 0f 28 f9          	movapd %xmm1,%xmm7
 3e7:	66 41 0f 59 cc       	mulpd  %xmm12,%xmm1
 3ec:	f2 0f 10 a8 e8 00 00 	movsd  0xe8(%rax),%xmm5
 3f3:	00 
 3f4:	66 0f 14 ed          	unpcklpd %xmm5,%xmm5
 3f8:	66 0f 58 cb          	addpd  %xmm3,%xmm1
 3fc:	66 0f 28 df          	movapd %xmm7,%xmm3
 400:	f2 0f 10 b8 b0 00 00 	movsd  0xb0(%rax),%xmm7
 407:	00 
 408:	66 41 0f 59 df       	mulpd  %xmm15,%xmm3
 40d:	66 0f 29 6c 24 18    	movapd %xmm5,0x18(%rsp)
 413:	66 0f 14 ff          	unpcklpd %xmm7,%xmm7
 417:	66 0f 58 c1          	addpd  %xmm1,%xmm0
 41b:	66 0f 28 ce          	movapd %xmm6,%xmm1
 41f:	66 0f 58 dc          	addpd  %xmm4,%xmm3
 423:	66 41 0f 59 ca       	mulpd  %xmm10,%xmm1
 428:	66 0f 29 7c 24 38    	movapd %xmm7,0x38(%rsp)
 42e:	66 0f 58 c5          	addpd  %xmm5,%xmm0
 432:	66 0f 58 cb          	addpd  %xmm3,%xmm1
 436:	f2 0f 10 b0 90 00 00 	movsd  0x90(%rax),%xmm6
 43d:	00 
 43e:	66 0f 29 84 24 08 01 	movapd %xmm0,0x108(%rsp)
 445:	00 00 
 447:	66 41 0f 57 c6       	xorpd  %xmm14,%xmm0
 44c:	66 0f 14 f6          	unpcklpd %xmm6,%xmm6
 450:	66 0f 29 8c 24 48 01 	movapd %xmm1,0x148(%rsp)
 457:	00 00 
 459:	66 0f 28 e6          	movapd %xmm6,%xmm4
 45d:	66 0f 5e c1          	divpd  %xmm1,%xmm0
 461:	66 0f 28 cf          	movapd %xmm7,%xmm1
 465:	66 0f 29 74 24 48    	movapd %xmm6,0x48(%rsp)
 46b:	f2 0f 10 98 d0 00 00 	movsd  0xd0(%rax),%xmm3
 472:	00 
 473:	f2 0f 10 b0 f0 00 00 	movsd  0xf0(%rax),%xmm6
 47a:	00 
 47b:	66 0f 14 db          	unpcklpd %xmm3,%xmm3
 47f:	66 0f 14 f6          	unpcklpd %xmm6,%xmm6
 483:	66 0f 28 fb          	movapd %xmm3,%xmm7
 487:	66 0f 28 ee          	movapd %xmm6,%xmm5
 48b:	66 41 0f 59 fb       	mulpd  %xmm11,%xmm7
 490:	66 0f 29 5c 24 28    	movapd %xmm3,0x28(%rsp)
 496:	66 0f 29 74 24 58    	movapd %xmm6,0x58(%rsp)
 49c:	66 0f 28 f3          	movapd %xmm3,%xmm6
 4a0:	66 0f 28 dc          	movapd %xmm4,%xmm3
 4a4:	66 41 0f 59 e1       	mulpd  %xmm9,%xmm4
 4a9:	66 0f 29 84 24 88 01 	movapd %xmm0,0x188(%rsp)
 4b0:	00 00 
 4b2:	66 41 0f 59 dd       	mulpd  %xmm13,%xmm3
 4b7:	66 0f 28 c7          	movapd %xmm7,%xmm0
 4bb:	66 0f 28 f9          	movapd %xmm1,%xmm7
 4bf:	66 41 0f 59 cc       	mulpd  %xmm12,%xmm1
 4c4:	66 0f 58 cb          	addpd  %xmm3,%xmm1
 4c8:	66 0f 28 df          	movapd %xmm7,%xmm3
 4cc:	66 41 0f 59 df       	mulpd  %xmm15,%xmm3
 4d1:	66 0f 58 c1          	addpd  %xmm1,%xmm0
 4d5:	66 0f 28 ce          	movapd %xmm6,%xmm1
 4d9:	66 0f 58 dc          	addpd  %xmm4,%xmm3
 4dd:	66 41 0f 59 ca       	mulpd  %xmm10,%xmm1
 4e2:	66 0f 58 c5          	addpd  %xmm5,%xmm0
 4e6:	66 0f 58 cb          	addpd  %xmm3,%xmm1
 4ea:	66 0f 29 84 24 18 01 	movapd %xmm0,0x118(%rsp)
 4f1:	00 00 
 4f3:	66 41 0f 57 c6       	xorpd  %xmm14,%xmm0
 4f8:	66 0f 29 8c 24 58 01 	movapd %xmm1,0x158(%rsp)
 4ff:	00 00 
 501:	66 0f 5e c1          	divpd  %xmm1,%xmm0
 505:	66 0f 29 84 24 98 01 	movapd %xmm0,0x198(%rsp)
 50c:	00 00 
 50e:	66 41 0f 28 c3       	movapd %xmm11,%xmm0
 513:	f2 0f 10 b0 d8 00 00 	movsd  0xd8(%rax),%xmm6
 51a:	00 
 51b:	f2 0f 10 98 98 00 00 	movsd  0x98(%rax),%xmm3
 522:	00 
 523:	66 0f 14 f6          	unpcklpd %xmm6,%xmm6
 527:	f2 0f 10 a0 f8 00 00 	movsd  0xf8(%rax),%xmm4
 52e:	00 
 52f:	66 0f 14 db          	unpcklpd %xmm3,%xmm3
 533:	66 44 0f 28 f6       	movapd %xmm6,%xmm14
 538:	f2 0f 10 b0 b8 00 00 	movsd  0xb8(%rax),%xmm6
 53f:	00 
 540:	66 0f 14 e4          	unpcklpd %xmm4,%xmm4
 544:	66 0f 14 f6          	unpcklpd %xmm6,%xmm6
 548:	66 0f 29 5c 24 78    	movapd %xmm3,0x78(%rsp)
 54e:	66 0f 28 ec          	movapd %xmm4,%xmm5
 552:	66 0f 28 ce          	movapd %xmm6,%xmm1
 556:	66 41 0f 59 c6       	mulpd  %xmm14,%xmm0
 55b:	66 0f 29 a4 24 88 00 	movapd %xmm4,0x88(%rsp)
 562:	00 00 
 564:	66 41 0f 59 cc       	mulpd  %xmm12,%xmm1
 569:	66 0f 28 e3          	movapd %xmm3,%xmm4
 56d:	66 41 0f 59 dd       	mulpd  %xmm13,%xmm3
 572:	66 0f 29 74 24 68    	movapd %xmm6,0x68(%rsp)
 578:	66 41 0f 59 e1       	mulpd  %xmm9,%xmm4
 57d:	66 0f 58 cb          	addpd  %xmm3,%xmm1
 581:	66 0f 28 de          	movapd %xmm6,%xmm3
 585:	f2 0f 10 b0 a0 00 00 	movsd  0xa0(%rax),%xmm6
 58c:	00 
 58d:	66 41 0f 59 df       	mulpd  %xmm15,%xmm3
 592:	66 0f 58 c1          	addpd  %xmm1,%xmm0
 596:	66 41 0f 28 ca       	movapd %xmm10,%xmm1
 59b:	66 0f 14 f6          	unpcklpd %xmm6,%xmm6
 59f:	66 0f 58 dc          	addpd  %xmm4,%xmm3
 5a3:	66 41 0f 59 ce       	mulpd  %xmm14,%xmm1
 5a8:	66 0f 58 c5          	addpd  %xmm5,%xmm0
 5ac:	f2 0f 10 a8 c0 00 00 	movsd  0xc0(%rax),%xmm5
 5b3:	00 
 5b4:	66 0f 28 e6          	movapd %xmm6,%xmm4
 5b8:	f2 0f 10 b8 e0 00 00 	movsd  0xe0(%rax),%xmm7
 5bf:	00 
 5c0:	66 0f 58 cb          	addpd  %xmm3,%xmm1
 5c4:	f2 0f 10 98 00 01 00 	movsd  0x100(%rax),%xmm3
 5cb:	00 
 5cc:	31 c0                	xor    %eax,%eax
 5ce:	66 0f 29 84 24 28 01 	movapd %xmm0,0x128(%rsp)
 5d5:	00 00 
 5d7:	66 0f 57 44 24 88    	xorpd  -0x78(%rsp),%xmm0
 5dd:	66 0f 29 b4 24 b8 00 	movapd %xmm6,0xb8(%rsp)
 5e4:	00 00 
 5e6:	66 0f 14 ed          	unpcklpd %xmm5,%xmm5
 5ea:	66 0f 14 db          	unpcklpd %xmm3,%xmm3
 5ee:	66 0f 29 8c 24 68 01 	movapd %xmm1,0x168(%rsp)
 5f5:	00 00 
 5f7:	66 0f 14 ff          	unpcklpd %xmm7,%xmm7
 5fb:	66 0f 28 f3          	movapd %xmm3,%xmm6
 5ff:	66 0f 29 9c 24 c8 00 	movapd %xmm3,0xc8(%rsp)
 606:	00 00 
 608:	66 0f 28 dc          	movapd %xmm4,%xmm3
 60c:	66 0f 5e c1          	divpd  %xmm1,%xmm0
 610:	66 0f 28 cd          	movapd %xmm5,%xmm1
 614:	66 0f 29 bc 24 98 00 	movapd %xmm7,0x98(%rsp)
 61b:	00 00 
 61d:	66 0f 29 ac 24 a8 00 	movapd %xmm5,0xa8(%rsp)
 624:	00 00 
 626:	66 41 0f 59 dd       	mulpd  %xmm13,%xmm3
 62b:	66 41 0f 59 cc       	mulpd  %xmm12,%xmm1
 630:	66 41 0f 59 e1       	mulpd  %xmm9,%xmm4
 635:	66 0f 58 cb          	addpd  %xmm3,%xmm1
 639:	66 0f 29 84 24 a8 01 	movapd %xmm0,0x1a8(%rsp)
 640:	00 00 
 642:	66 0f 28 c7          	movapd %xmm7,%xmm0
 646:	66 0f 28 dd          	movapd %xmm5,%xmm3
 64a:	66 41 0f 59 c3       	mulpd  %xmm11,%xmm0
 64f:	66 41 0f 59 df       	mulpd  %xmm15,%xmm3
 654:	66 0f 58 c1          	addpd  %xmm1,%xmm0
 658:	66 0f 28 cf          	movapd %xmm7,%xmm1
 65c:	66 0f 58 dc          	addpd  %xmm4,%xmm3
 660:	66 41 0f 59 ca       	mulpd  %xmm10,%xmm1
 665:	66 0f 58 c6          	addpd  %xmm6,%xmm0
 669:	66 0f 58 cb          	addpd  %xmm3,%xmm1
 66d:	66 0f 28 1d 00 00 00 	movapd 0x0(%rip),%xmm3        # 675 <_ZNK7vecgeom3cxx25ShapeImplementationHelperINS0_23TrapezoidImplementationILin1ELin1EEEE12DistanceToInERKNS0_5SOA3DIdEES8_PKdPd+0x675>
 674:	00 
 675:	66 0f 29 84 24 38 01 	movapd %xmm0,0x138(%rsp)
 67c:	00 00 
 67e:	66 0f 57 44 24 88    	xorpd  -0x78(%rsp),%xmm0
 684:	66 0f 29 8c 24 78 01 	movapd %xmm1,0x178(%rsp)
 68b:	00 00 
 68d:	66 0f 5e c1          	divpd  %xmm1,%xmm0
 691:	66 0f 29 84 24 b8 01 	movapd %xmm0,0x1b8(%rsp)
 698:	00 00 
 69a:	66 0f 28 44 24 b8    	movapd -0x48(%rsp),%xmm0
 6a0:	66 0f 57 f6          	xorpd  %xmm6,%xmm6
 6a4:	66 41 0f 28 2c 03    	movapd (%r11,%rax,1),%xmm5
 6aa:	66 0f 28 24 03       	movapd (%rbx,%rax,1),%xmm4
 6af:	66 0f c2 ee 06       	cmpnlepd %xmm6,%xmm5
 6b4:	66 0f c2 25 00 00 00 	cmpnltpd 0x0(%rip),%xmm4        # 6bd <_ZNK7vecgeom3cxx25ShapeImplementationHelperINS0_23TrapezoidImplementationILin1ELin1EEEE12DistanceToInERKNS0_5SOA3DIdEES8_PKdPd+0x6bd>
 6bb:	00 05 
 6bd:	0f 28 cd             	movaps %xmm5,%xmm1
 6c0:	66 0f 6f fc          	movdqa %xmm4,%xmm7
 6c4:	0f 54 cc             	andps  %xmm4,%xmm1
 6c7:	66 41 0f df f8       	pandn  %xmm8,%xmm7
 6cc:	0f 56 d1             	orps   %xmm1,%xmm2
 6cf:	66 41 0f 28 0c 02    	movapd (%r10,%rax,1),%xmm1
 6d5:	0f 54 fd             	andps  %xmm5,%xmm7
 6d8:	66 41 0f df e8       	pandn  %xmm8,%xmm5
 6dd:	48 83 c0 10          	add    $0x10,%rax
 6e1:	66 0f 28 f1          	movapd %xmm1,%xmm6
 6e5:	48 83 f8 40          	cmp    $0x40,%rax
 6e9:	66 0f c2 f0 01       	cmpltpd %xmm0,%xmm6
 6ee:	0f 54 e5             	andps  %xmm5,%xmm4
 6f1:	66 0f 28 e9          	movapd %xmm1,%xmm5
 6f5:	0f 54 f7             	andps  %xmm7,%xmm6
 6f8:	66 0f c2 eb 06       	cmpnlepd %xmm3,%xmm5
 6fd:	0f 56 d6             	orps   %xmm6,%xmm2
 700:	0f 54 ec             	andps  %xmm4,%xmm5
 703:	66 0f 28 f0          	movapd %xmm0,%xmm6
 707:	66 0f c2 f1 01       	cmpltpd %xmm1,%xmm6
 70c:	0f 56 d5             	orps   %xmm5,%xmm2
 70f:	66 0f 28 e9          	movapd %xmm1,%xmm5
 713:	66 0f c2 eb 01       	cmpltpd %xmm3,%xmm5
 718:	0f 54 f5             	andps  %xmm5,%xmm6
 71b:	66 0f 28 e9          	movapd %xmm1,%xmm5
 71f:	0f 54 e6             	andps  %xmm6,%xmm4
 722:	0f 54 fe             	andps  %xmm6,%xmm7
 725:	66 0f 54 ec          	andpd  %xmm4,%xmm5
 729:	66 0f 54 cf          	andpd  %xmm7,%xmm1
 72d:	66 0f 55 e0          	andnpd %xmm0,%xmm4
 731:	66 0f 55 fb          	andnpd %xmm3,%xmm7
 735:	66 0f 28 c4          	movapd %xmm4,%xmm0
 739:	66 0f 28 df          	movapd %xmm7,%xmm3
 73d:	66 0f 56 c5          	orpd   %xmm5,%xmm0
 741:	66 0f 56 d9          	orpd   %xmm1,%xmm3
 745:	0f 85 55 ff ff ff    	jne    6a0 <_ZNK7vecgeom3cxx25ShapeImplementationHelperINS0_23TrapezoidImplementationILin1ELin1EEEE12DistanceToInERKNS0_5SOA3DIdEES8_PKdPd+0x6a0>
 74b:	66 41 0f 28 e7       	movapd %xmm15,%xmm4
 750:	66 41 0f 28 d9       	movapd %xmm9,%xmm3
 755:	66 41 0f 28 ea       	movapd %xmm10,%xmm5
 75a:	66 0f 59 e0          	mulpd  %xmm0,%xmm4
 75e:	66 0f 28 74 24 f8    	movapd -0x8(%rsp),%xmm6
 764:	66 0f 59 d8          	mulpd  %xmm0,%xmm3
 768:	66 0f 28 7c 24 08    	movapd 0x8(%rsp),%xmm7
 76e:	66 0f 59 e8          	mulpd  %xmm0,%xmm5
 772:	66 41 0f 58 e4       	addpd  %xmm12,%xmm4
 777:	66 0f 28 4c 24 e8    	movapd -0x18(%rsp),%xmm1
 77d:	66 41 0f df d0       	pandn  %xmm8,%xmm2
 782:	66 41 0f 58 dd       	addpd  %xmm13,%xmm3
 787:	66 44 0f 28 64 24 78 	movapd 0x78(%rsp),%xmm12
 78e:	66 41 0f 58 eb       	addpd  %xmm11,%xmm5
 793:	66 0f 59 f4          	mulpd  %xmm4,%xmm6
 797:	66 44 0f 28 6c 24 68 	movapd 0x68(%rsp),%xmm13
 79e:	66 0f 59 fb          	mulpd  %xmm3,%xmm7
 7a2:	66 44 0f 28 7c 24 28 	movapd 0x28(%rsp),%xmm15
 7a9:	66 0f 59 cd          	mulpd  %xmm5,%xmm1
 7ad:	66 44 0f 28 94 24 a8 	movapd 0xa8(%rsp),%xmm10
 7b4:	00 00 00 
 7b7:	66 44 0f 59 e3       	mulpd  %xmm3,%xmm12
 7bc:	66 0f 58 f7          	addpd  %xmm7,%xmm6
 7c0:	66 0f 28 7c 24 48    	movapd 0x48(%rsp),%xmm7
 7c6:	66 44 0f 59 ec       	mulpd  %xmm4,%xmm13
 7cb:	66 44 0f 28 9c 24 98 	movapd 0x98(%rsp),%xmm11
 7d2:	00 00 00 
 7d5:	66 0f 59 fb          	mulpd  %xmm3,%xmm7
 7d9:	66 0f 58 ce          	addpd  %xmm6,%xmm1
 7dd:	66 0f 28 74 24 38    	movapd 0x38(%rsp),%xmm6
 7e3:	66 44 0f 59 fd       	mulpd  %xmm5,%xmm15
 7e8:	66 45 0f 58 ec       	addpd  %xmm12,%xmm13
 7ed:	66 0f 59 f4          	mulpd  %xmm4,%xmm6
 7f1:	66 0f 59 9c 24 b8 00 	mulpd  0xb8(%rsp),%xmm3
 7f8:	00 00 
 7fa:	66 0f 58 4c 24 18    	addpd  0x18(%rsp),%xmm1
 800:	66 44 0f 59 d4       	mulpd  %xmm4,%xmm10
 805:	66 0f 58 f7          	addpd  %xmm7,%xmm6
 809:	66 0f 28 7c 24 b8    	movapd -0x48(%rsp),%xmm7
 80f:	66 44 0f 59 f5       	mulpd  %xmm5,%xmm14
 814:	66 44 0f 59 dd       	mulpd  %xmm5,%xmm11
 819:	66 44 0f 58 d3       	addpd  %xmm3,%xmm10
 81e:	66 0f 28 6c 24 d8    	movapd -0x28(%rsp),%xmm5
 824:	66 44 0f 58 fe       	addpd  %xmm6,%xmm15
 829:	66 45 0f 58 f5       	addpd  %xmm13,%xmm14
 82e:	66 45 0f 58 da       	addpd  %xmm10,%xmm11
 833:	66 44 0f 58 7c 24 58 	addpd  0x58(%rsp),%xmm15
 83a:	66 0f c2 0d 00 00 00 	cmplepd 0x0(%rip),%xmm1        # 843 <_ZNK7vecgeom3cxx25ShapeImplementationHelperINS0_23TrapezoidImplementationILin1ELin1EEEE12DistanceToInERKNS0_5SOA3DIdEES8_PKdPd+0x843>
 841:	00 02 
 843:	66 44 0f 58 b4 24 88 	addpd  0x88(%rsp),%xmm14
 84a:	00 00 00 
 84d:	0f 54 8c 24 f8 00 00 	andps  0xf8(%rsp),%xmm1
 854:	00 
 855:	66 44 0f 58 9c 24 c8 	addpd  0xc8(%rsp),%xmm11
 85c:	00 00 00 
 85f:	66 44 0f c2 3d 00 00 	cmplepd 0x0(%rip),%xmm15        # 869 <_ZNK7vecgeom3cxx25ShapeImplementationHelperINS0_23TrapezoidImplementationILin1ELin1EEEE12DistanceToInERKNS0_5SOA3DIdEES8_PKdPd+0x869>
 866:	00 00 02 
 869:	66 44 0f c2 35 00 00 	cmplepd 0x0(%rip),%xmm14        # 873 <_ZNK7vecgeom3cxx25ShapeImplementationHelperINS0_23TrapezoidImplementationILin1ELin1EEEE12DistanceToInERKNS0_5SOA3DIdEES8_PKdPd+0x873>
 870:	00 00 02 
 873:	41 0f 54 cf          	andps  %xmm15,%xmm1
 877:	66 44 0f c2 1d 00 00 	cmplepd 0x0(%rip),%xmm11        # 881 <_ZNK7vecgeom3cxx25ShapeImplementationHelperINS0_23TrapezoidImplementationILin1ELin1EEEE12DistanceToInERKNS0_5SOA3DIdEES8_PKdPd+0x881>
 87e:	00 00 02 
 881:	41 0f 54 ce          	andps  %xmm14,%xmm1
 885:	41 0f 54 cb          	andps  %xmm11,%xmm1
 889:	0f 54 ca             	andps  %xmm2,%xmm1
 88c:	66 0f 54 c1          	andpd  %xmm1,%xmm0
 890:	66 0f 55 0d 00 00 00 	andnpd 0x0(%rip),%xmm1        # 898 <_ZNK7vecgeom3cxx25ShapeImplementationHelperINS0_23TrapezoidImplementationILin1ELin1EEEE12DistanceToInERKNS0_5SOA3DIdEES8_PKdPd+0x898>
 897:	00 
 898:	66 0f 56 c8          	orpd   %xmm0,%xmm1
 89c:	66 0f 28 d1          	movapd %xmm1,%xmm2
 8a0:	66 0f 28 c1          	movapd %xmm1,%xmm0
 8a4:	66 0f 28 d9          	movapd %xmm1,%xmm3
 8a8:	66 0f c2 15 00 00 00 	cmpeqpd 0x0(%rip),%xmm2        # 8b1 <_ZNK7vecgeom3cxx25ShapeImplementationHelperINS0_23TrapezoidImplementationILin1ELin1EEEE12DistanceToInERKNS0_5SOA3DIdEES8_PKdPd+0x8b1>
 8af:	00 00 
 8b1:	66 0f c2 c5 06       	cmpnlepd %xmm5,%xmm0
 8b6:	0f 56 54 24 98       	orps   -0x68(%rsp),%xmm2
 8bb:	66 0f c2 df 06       	cmpnlepd %xmm7,%xmm3
 8c0:	0f 56 d0             	orps   %xmm0,%xmm2
 8c3:	66 0f 28 c7          	movapd %xmm7,%xmm0
 8c7:	66 41 0f df d0       	pandn  %xmm8,%xmm2
 8cc:	66 0f 54 c2          	andpd  %xmm2,%xmm0
 8d0:	66 0f 55 15 00 00 00 	andnpd 0x0(%rip),%xmm2        # 8d8 <_ZNK7vecgeom3cxx25ShapeImplementationHelperINS0_23TrapezoidImplementationILin1ELin1EEEE12DistanceToInERKNS0_5SOA3DIdEES8_PKdPd+0x8d8>
 8d7:	00 
 8d8:	66 0f 56 d0          	orpd   %xmm0,%xmm2
 8dc:	66 0f 28 c1          	movapd %xmm1,%xmm0
 8e0:	66 0f c2 c5 01       	cmpltpd %xmm5,%xmm0
 8e5:	0f 54 c3             	andps  %xmm3,%xmm0
 8e8:	66 0f 54 c8          	andpd  %xmm0,%xmm1
 8ec:	66 0f 55 c2          	andnpd %xmm2,%xmm0
 8f0:	66 0f 57 d2          	xorpd  %xmm2,%xmm2
 8f4:	66 0f 56 c1          	orpd   %xmm1,%xmm0
 8f8:	66 0f 28 c8          	movapd %xmm0,%xmm1
 8fc:	66 0f c2 ca 01       	cmpltpd %xmm2,%xmm1
 901:	66 0f 55 c8          	andnpd %xmm0,%xmm1
 905:	66 43 0f 29 0c 08    	movapd %xmm1,(%r8,%r9,1)
 90b:	49 83 c1 10          	add    $0x10,%r9
 90f:	49 39 e9             	cmp    %rbp,%r9
 912:	0f 85 98 f7 ff ff    	jne    b0 <_ZNK7vecgeom3cxx25ShapeImplementationHelperINS0_23TrapezoidImplementationILin1ELin1EEEE12DistanceToInERKNS0_5SOA3DIdEES8_PKdPd+0xb0>
 918:	48 81 c4 d0 01 00 00 	add    $0x1d0,%rsp
 91f:	5b                   	pop    %rbx
 920:	5d                   	pop    %rbp
 921:	41 5c                	pop    %r12
 923:	41 5e                	pop    %r14
 925:	f3 c3                	repz retq 

Disassembly of section .text._ZNK7vecgeom3cxx25ShapeImplementationHelperINS0_23TrapezoidImplementationILin1ELin1EEEE20DistanceToInMinimizeERKNS0_5SOA3DIdEES8_iPdPi:

0000000000000000 <_ZNK7vecgeom3cxx25ShapeImplementationHelperINS0_23TrapezoidImplementationILin1ELin1EEEE20DistanceToInMinimizeERKNS0_5SOA3DIdEES8_iPdPi>:
   0:	48 8b 46 08          	mov    0x8(%rsi),%rax
   4:	85 c0                	test   %eax,%eax
   6:	0f 8e 9e 09 00 00    	jle    9aa <_ZNK7vecgeom3cxx25ShapeImplementationHelperINS0_23TrapezoidImplementationILin1ELin1EEEE20DistanceToInMinimizeERKNS0_5SOA3DIdEES8_iPdPi+0x9aa>
   c:	41 57                	push   %r15
   e:	83 e8 01             	sub    $0x1,%eax
  11:	4d 8d 59 04          	lea    0x4(%r9),%r11
  15:	d1 e8                	shr    %eax
  17:	45 31 d2             	xor    %r10d,%r10d
  1a:	41 56                	push   %r14
  1c:	41 55                	push   %r13
  1e:	4c 8d 68 01          	lea    0x1(%rax),%r13
  22:	41 54                	push   %r12
  24:	49 c1 e5 04          	shl    $0x4,%r13
  28:	55                   	push   %rbp
  29:	53                   	push   %rbx
  2a:	48 81 ec e0 01 00 00 	sub    $0x1e0,%rsp
  31:	48 8b 05 00 00 00 00 	mov    0x0(%rip),%rax        # 38 <_ZNK7vecgeom3cxx25ShapeImplementationHelperINS0_23TrapezoidImplementationILin1ELin1EEEE20DistanceToInMinimizeERKNS0_5SOA3DIdEES8_iPdPi+0x38>
  38:	4c 8b 35 00 00 00 00 	mov    0x0(%rip),%r14        # 3f <_ZNK7vecgeom3cxx25ShapeImplementationHelperINS0_23TrapezoidImplementationILin1ELin1EEEE20DistanceToInMinimizeERKNS0_5SOA3DIdEES8_iPdPi+0x3f>
  3f:	4c 8d a4 24 18 01 00 	lea    0x118(%rsp),%r12
  46:	00 
  47:	48 8d ac 24 58 01 00 	lea    0x158(%rsp),%rbp
  4e:	00 
  4f:	48 8d 9c 24 98 01 00 	lea    0x198(%rsp),%rbx
  56:	00 
  57:	0f 28 10             	movaps (%rax),%xmm2
  5a:	48 8b 05 00 00 00 00 	mov    0x0(%rip),%rax        # 61 <_ZNK7vecgeom3cxx25ShapeImplementationHelperINS0_23TrapezoidImplementationILin1ELin1EEEE20DistanceToInMinimizeERKNS0_5SOA3DIdEES8_iPdPi+0x61>
  61:	0f 29 94 24 e8 00 00 	movaps %xmm2,0xe8(%rsp)
  68:	00 
  69:	66 0f 28 10          	movapd (%rax),%xmm2
  6d:	48 8b 05 00 00 00 00 	mov    0x0(%rip),%rax        # 74 <_ZNK7vecgeom3cxx25ShapeImplementationHelperINS0_23TrapezoidImplementationILin1ELin1EEEE20DistanceToInMinimizeERKNS0_5SOA3DIdEES8_iPdPi+0x74>
  74:	66 0f 29 54 24 c8    	movapd %xmm2,-0x38(%rsp)
  7a:	66 0f 28 00          	movapd (%rax),%xmm0
  7e:	48 8b 05 00 00 00 00 	mov    0x0(%rip),%rax        # 85 <_ZNK7vecgeom3cxx25ShapeImplementationHelperINS0_23TrapezoidImplementationILin1ELin1EEEE20DistanceToInMinimizeERKNS0_5SOA3DIdEES8_iPdPi+0x85>
  85:	66 0f 57 d0          	xorpd  %xmm0,%xmm2
  89:	66 0f 29 44 24 88    	movapd %xmm0,-0x78(%rsp)
  8f:	66 0f 29 94 24 f8 00 	movapd %xmm2,0xf8(%rsp)
  96:	00 00 
  98:	66 0f 74 d2          	pcmpeqb %xmm2,%xmm2
  9c:	66 44 0f 6f fa       	movdqa %xmm2,%xmm15
  a1:	66 0f 7f 54 24 a8    	movdqa %xmm2,-0x58(%rsp)
  a7:	66 45 0f 6f df       	movdqa %xmm15,%xmm11
  ac:	0f 28 10             	movaps (%rax),%xmm2
  af:	0f 29 94 24 08 01 00 	movaps %xmm2,0x108(%rsp)
  b6:	00 
  b7:	66 0f 1f 84 00 00 00 	nopw   0x0(%rax,%rax,1)
  be:	00 00 
  c0:	4c 8b 4f 20          	mov    0x20(%rdi),%r9
  c4:	4c 8b 7e 18          	mov    0x18(%rsi),%r15
  c8:	66 43 0f 28 04 10    	movapd (%r8,%r10,1),%xmm0
  ce:	48 8b 42 28          	mov    0x28(%rdx),%rax
  d2:	66 0f 29 44 24 d8    	movapd %xmm0,-0x28(%rsp)
  d8:	f2 41 0f 10 01       	movsd  (%r9),%xmm0
  dd:	66 47 0f 28 04 17    	movapd (%r15,%r10,1),%xmm8
  e3:	66 0f 14 c0          	unpcklpd %xmm0,%xmm0
  e7:	4c 8b 7e 20          	mov    0x20(%rsi),%r15
  eb:	f2 41 0f 10 59 10    	movsd  0x10(%r9),%xmm3
  f1:	f2 41 0f 10 79 28    	movsd  0x28(%r9),%xmm7
  f7:	66 44 0f 5c c0       	subpd  %xmm0,%xmm8
  fc:	f2 41 0f 10 41 08    	movsd  0x8(%r9),%xmm0
 102:	66 43 0f 28 0c 17    	movapd (%r15,%r10,1),%xmm1
 108:	66 0f 14 c0          	unpcklpd %xmm0,%xmm0
 10c:	4c 8b 7e 28          	mov    0x28(%rsi),%r15
 110:	66 0f 14 db          	unpcklpd %xmm3,%xmm3
 114:	66 42 0f 28 14 10    	movapd (%rax,%r10,1),%xmm2
 11a:	66 0f 14 ff          	unpcklpd %xmm7,%xmm7
 11e:	48 8b 42 20          	mov    0x20(%rdx),%rax
 122:	66 0f 5c c8          	subpd  %xmm0,%xmm1
 126:	66 43 0f 28 04 17    	movapd (%r15,%r10,1),%xmm0
 12c:	66 45 0f 28 d0       	movapd %xmm8,%xmm10
 131:	66 0f 5c c3          	subpd  %xmm3,%xmm0
 135:	f2 41 0f 10 59 18    	movsd  0x18(%r9),%xmm3
 13b:	f2 45 0f 10 71 30    	movsd  0x30(%r9),%xmm14
 141:	66 0f 14 db          	unpcklpd %xmm3,%xmm3
 145:	66 42 0f 28 34 10    	movapd (%rax,%r10,1),%xmm6
 14b:	66 45 0f 14 f6       	unpcklpd %xmm14,%xmm14
 150:	48 8b 42 18          	mov    0x18(%rdx),%rax
 154:	66 0f 29 7c 24 98    	movapd %xmm7,-0x68(%rsp)
 15a:	66 44 0f 59 d3       	mulpd  %xmm3,%xmm10
 15f:	66 0f 28 f9          	movapd %xmm1,%xmm7
 163:	f2 45 0f 10 61 40    	movsd  0x40(%r9),%xmm12
 169:	66 41 0f 59 fe       	mulpd  %xmm14,%xmm7
 16e:	66 42 0f 28 2c 10    	movapd (%rax,%r10,1),%xmm5
 174:	48 8b 47 18          	mov    0x18(%rdi),%rax
 178:	66 45 0f 14 e4       	unpcklpd %xmm12,%xmm12
 17d:	f2 45 0f 10 49 48    	movsd  0x48(%r9),%xmm9
 183:	f2 41 0f 10 61 20    	movsd  0x20(%r9),%xmm4
 189:	48 8b 00             	mov    (%rax),%rax
 18c:	66 44 0f 29 64 24 b8 	movapd %xmm12,-0x48(%rsp)
 193:	66 45 0f 28 e2       	movapd %xmm10,%xmm12
 198:	66 45 0f 14 c9       	unpcklpd %xmm9,%xmm9
 19d:	66 45 0f 28 d0       	movapd %xmm8,%xmm10
 1a2:	66 44 0f 58 e7       	addpd  %xmm7,%xmm12
 1a7:	66 0f 28 f8          	movapd %xmm0,%xmm7
 1ab:	f2 45 0f 10 69 38    	movsd  0x38(%r9),%xmm13
 1b1:	66 41 0f 59 f9       	mulpd  %xmm9,%xmm7
 1b6:	66 0f 14 e4          	unpcklpd %xmm4,%xmm4
 1ba:	66 45 0f 14 ed       	unpcklpd %xmm13,%xmm13
 1bf:	66 44 0f 59 44 24 98 	mulpd  -0x68(%rsp),%xmm8
 1c6:	66 44 0f 58 e7       	addpd  %xmm7,%xmm12
 1cb:	f2 41 0f 10 79 50    	movsd  0x50(%r9),%xmm7
 1d1:	66 44 0f 59 d4       	mulpd  %xmm4,%xmm10
 1d6:	66 0f 14 ff          	unpcklpd %xmm7,%xmm7
 1da:	66 0f 59 dd          	mulpd  %xmm5,%xmm3
 1de:	66 44 0f 28 ff       	movapd %xmm7,%xmm15
 1e3:	66 0f 28 f9          	movapd %xmm1,%xmm7
 1e7:	66 44 0f 59 f6       	mulpd  %xmm6,%xmm14
 1ec:	66 44 0f 29 7c 24 e8 	movapd %xmm15,-0x18(%rsp)
 1f3:	66 41 0f 59 fd       	mulpd  %xmm13,%xmm7
 1f8:	66 44 0f 59 ca       	mulpd  %xmm2,%xmm9
 1fd:	66 0f 59 4c 24 b8    	mulpd  -0x48(%rsp),%xmm1
 203:	66 44 0f 58 d7       	addpd  %xmm7,%xmm10
 208:	66 41 0f 28 ff       	movapd %xmm15,%xmm7
 20d:	f2 45 0f 10 79 58    	movsd  0x58(%r9),%xmm15
 213:	66 0f 59 f8          	mulpd  %xmm0,%xmm7
 217:	66 45 0f 14 ff       	unpcklpd %xmm15,%xmm15
 21c:	66 44 0f 59 ee       	mulpd  %xmm6,%xmm13
 221:	66 44 0f 58 d7       	addpd  %xmm7,%xmm10
 226:	66 41 0f 28 ff       	movapd %xmm15,%xmm7
 22b:	66 45 0f 28 f8       	movapd %xmm8,%xmm15
 230:	66 44 0f 28 c3       	movapd %xmm3,%xmm8
 235:	66 0f 59 c7          	mulpd  %xmm7,%xmm0
 239:	66 45 0f 58 c6       	addpd  %xmm14,%xmm8
 23e:	66 0f 59 74 24 b8    	mulpd  -0x48(%rsp),%xmm6
 244:	66 44 0f 58 f9       	addpd  %xmm1,%xmm15
 249:	66 0f 28 8c 24 f8 00 	movapd 0xf8(%rsp),%xmm1
 250:	00 00 
 252:	66 0f 59 e5          	mulpd  %xmm5,%xmm4
 256:	66 45 0f 58 c1       	addpd  %xmm9,%xmm8
 25b:	66 44 0f 28 4c 24 98 	movapd -0x68(%rsp),%xmm9
 262:	66 44 0f 58 f8       	addpd  %xmm0,%xmm15
 267:	66 44 0f 59 cd       	mulpd  %xmm5,%xmm9
 26c:	66 0f 28 44 24 e8    	movapd -0x18(%rsp),%xmm0
 272:	66 44 0f 28 f4       	movapd %xmm4,%xmm14
 277:	66 0f 59 c2          	mulpd  %xmm2,%xmm0
 27b:	66 45 0f 58 f5       	addpd  %xmm13,%xmm14
 280:	44 0f 28 ac 24 e8 00 	movaps 0xe8(%rsp),%xmm13
 287:	00 00 
 289:	66 0f 59 d7          	mulpd  %xmm7,%xmm2
 28d:	66 44 0f 58 ce       	addpd  %xmm6,%xmm9
 292:	f2 0f 10 70 20       	movsd  0x20(%rax),%xmm6
 297:	66 44 0f 58 f0       	addpd  %xmm0,%xmm14
 29c:	66 0f 57 c0          	xorpd  %xmm0,%xmm0
 2a0:	66 44 0f 58 ca       	addpd  %xmm2,%xmm9
 2a5:	66 0f 28 ee          	movapd %xmm6,%xmm5
 2a9:	41 0f 28 d5          	movaps %xmm13,%xmm2
 2ad:	66 0f 14 ed          	unpcklpd %xmm5,%xmm5
 2b1:	66 41 0f 28 d9       	movapd %xmm9,%xmm3
 2b6:	66 41 0f 28 f9       	movapd %xmm9,%xmm7
 2bb:	66 0f c2 d8 01       	cmpltpd %xmm0,%xmm3
 2c0:	66 0f c2 f8 06       	cmpnlepd %xmm0,%xmm7
 2c5:	66 0f 28 c3          	movapd %xmm3,%xmm0
 2c9:	66 0f 54 cb          	andpd  %xmm3,%xmm1
 2cd:	66 0f 55 44 24 c8    	andnpd -0x38(%rsp),%xmm0
 2d3:	66 0f 56 c1          	orpd   %xmm1,%xmm0
 2d7:	66 0f 28 c8          	movapd %xmm0,%xmm1
 2db:	66 0f 59 cd          	mulpd  %xmm5,%xmm1
 2df:	66 41 0f 5c cf       	subpd  %xmm15,%xmm1
 2e4:	66 0f 28 e1          	movapd %xmm1,%xmm4
 2e8:	66 0f c2 25 00 00 00 	cmpltpd 0x0(%rip),%xmm4        # 2f1 <_ZNK7vecgeom3cxx25ShapeImplementationHelperINS0_23TrapezoidImplementationILin1ELin1EEEE20DistanceToInMinimizeERKNS0_5SOA3DIdEES8_iPdPi+0x2f1>
 2ef:	00 01 
 2f1:	0f 54 e7             	andps  %xmm7,%xmm4
 2f4:	41 0f 56 e5          	orps   %xmm13,%xmm4
 2f8:	44 0f 28 ec          	movaps %xmm4,%xmm13
 2fc:	66 0f 28 e1          	movapd %xmm1,%xmm4
 300:	66 0f c2 25 00 00 00 	cmpnlepd 0x0(%rip),%xmm4        # 309 <_ZNK7vecgeom3cxx25ShapeImplementationHelperINS0_23TrapezoidImplementationILin1ELin1EEEE20DistanceToInMinimizeERKNS0_5SOA3DIdEES8_iPdPi+0x309>
 307:	00 06 
 309:	0f 54 e3             	andps  %xmm3,%xmm4
 30c:	41 0f 56 e5          	orps   %xmm13,%xmm4
 310:	0f 29 64 24 98       	movaps %xmm4,-0x68(%rsp)
 315:	66 0f df 5c 24 a8    	pandn  -0x58(%rsp),%xmm3
 31b:	66 0f 28 64 24 c8    	movapd -0x38(%rsp),%xmm4
 321:	66 0f df 7c 24 a8    	pandn  -0x58(%rsp),%xmm7
 327:	f2 0f 5c 35 00 00 00 	subsd  0x0(%rip),%xmm6        # 32f <_ZNK7vecgeom3cxx25ShapeImplementationHelperINS0_23TrapezoidImplementationILin1ELin1EEEE20DistanceToInMinimizeERKNS0_5SOA3DIdEES8_iPdPi+0x32f>
 32e:	00 
 32f:	66 44 0f 28 6c 24 88 	movapd -0x78(%rsp),%xmm13
 336:	66 41 0f 57 c5       	xorpd  %xmm13,%xmm0
 33b:	0f 54 fb             	andps  %xmm3,%xmm7
 33e:	66 41 0f 28 1e       	movapd (%r14),%xmm3
 343:	66 0f 14 f6          	unpcklpd %xmm6,%xmm6
 347:	66 41 0f 54 df       	andpd  %xmm15,%xmm3
 34c:	66 0f 59 c5          	mulpd  %xmm5,%xmm0
 350:	66 0f c2 de 01       	cmpltpd %xmm6,%xmm3
 355:	66 41 0f 5e e1       	divpd  %xmm9,%xmm4
 35a:	66 0f 6f f3          	movdqa %xmm3,%xmm6
 35e:	66 41 0f 5c c7       	subpd  %xmm15,%xmm0
 363:	66 0f df 74 24 a8    	pandn  -0x58(%rsp),%xmm6
 369:	0f 54 df             	andps  %xmm7,%xmm3
 36c:	0f 54 f7             	andps  %xmm7,%xmm6
 36f:	66 0f 28 eb          	movapd %xmm3,%xmm5
 373:	f2 0f 10 b8 a8 00 00 	movsd  0xa8(%rax),%xmm7
 37a:	00 
 37b:	0f 56 74 24 98       	orps   -0x68(%rsp),%xmm6
 380:	66 0f 59 c4          	mulpd  %xmm4,%xmm0
 384:	66 0f 59 cc          	mulpd  %xmm4,%xmm1
 388:	0f 29 74 24 98       	movaps %xmm6,-0x68(%rsp)
 38d:	66 0f 28 f3          	movapd %xmm3,%xmm6
 391:	66 0f 14 ff          	unpcklpd %xmm7,%xmm7
 395:	66 0f 55 f0          	andnpd %xmm0,%xmm6
 399:	66 0f 28 05 00 00 00 	movapd 0x0(%rip),%xmm0        # 3a1 <_ZNK7vecgeom3cxx25ShapeImplementationHelperINS0_23TrapezoidImplementationILin1ELin1EEEE20DistanceToInMinimizeERKNS0_5SOA3DIdEES8_iPdPi+0x3a1>
 3a0:	00 
 3a1:	66 0f 55 e9          	andnpd %xmm1,%xmm5
 3a5:	66 0f 28 cf          	movapd %xmm7,%xmm1
 3a9:	66 0f 29 74 24 b8    	movapd %xmm6,-0x48(%rsp)
 3af:	66 0f 54 c3          	andpd  %xmm3,%xmm0
 3b3:	66 0f 29 7c 24 08    	movapd %xmm7,0x8(%rsp)
 3b9:	66 0f 56 c5          	orpd   %xmm5,%xmm0
 3bd:	f2 0f 10 98 c8 00 00 	movsd  0xc8(%rax),%xmm3
 3c4:	00 
 3c5:	f2 0f 10 b0 88 00 00 	movsd  0x88(%rax),%xmm6
 3cc:	00 
 3cd:	66 0f 14 db          	unpcklpd %xmm3,%xmm3
 3d1:	66 0f 14 f6          	unpcklpd %xmm6,%xmm6
 3d5:	66 0f 29 44 24 e8    	movapd %xmm0,-0x18(%rsp)
 3db:	66 0f 28 fb          	movapd %xmm3,%xmm7
 3df:	66 0f 28 e6          	movapd %xmm6,%xmm4
 3e3:	66 0f 29 74 24 18    	movapd %xmm6,0x18(%rsp)
 3e9:	66 41 0f 59 ff       	mulpd  %xmm15,%xmm7
 3ee:	66 0f 29 5c 24 f8    	movapd %xmm3,-0x8(%rsp)
 3f4:	f2 0f 10 b0 e8 00 00 	movsd  0xe8(%rax),%xmm6
 3fb:	00 
 3fc:	66 0f 28 c7          	movapd %xmm7,%xmm0
 400:	66 0f 28 f9          	movapd %xmm1,%xmm7
 404:	66 0f 14 f6          	unpcklpd %xmm6,%xmm6
 408:	66 41 0f 59 ca       	mulpd  %xmm10,%xmm1
 40d:	66 0f 28 ee          	movapd %xmm6,%xmm5
 411:	66 0f 29 74 24 28    	movapd %xmm6,0x28(%rsp)
 417:	66 0f 28 f3          	movapd %xmm3,%xmm6
 41b:	66 0f 28 dc          	movapd %xmm4,%xmm3
 41f:	66 41 0f 59 e0       	mulpd  %xmm8,%xmm4
 424:	66 41 0f 59 dc       	mulpd  %xmm12,%xmm3
 429:	66 0f 58 cb          	addpd  %xmm3,%xmm1
 42d:	66 0f 28 df          	movapd %xmm7,%xmm3
 431:	f2 0f 10 b8 b0 00 00 	movsd  0xb0(%rax),%xmm7
 438:	00 
 439:	66 41 0f 59 de       	mulpd  %xmm14,%xmm3
 43e:	66 0f 58 c1          	addpd  %xmm1,%xmm0
 442:	66 0f 28 ce          	movapd %xmm6,%xmm1
 446:	66 0f 14 ff          	unpcklpd %xmm7,%xmm7
 44a:	66 0f 58 dc          	addpd  %xmm4,%xmm3
 44e:	66 41 0f 59 c9       	mulpd  %xmm9,%xmm1
 453:	66 0f 58 c5          	addpd  %xmm5,%xmm0
 457:	f2 0f 10 b0 90 00 00 	movsd  0x90(%rax),%xmm6
 45e:	00 
 45f:	66 0f 29 7c 24 48    	movapd %xmm7,0x48(%rsp)
 465:	66 0f 58 cb          	addpd  %xmm3,%xmm1
 469:	66 0f 14 f6          	unpcklpd %xmm6,%xmm6
 46d:	66 0f 29 84 24 18 01 	movapd %xmm0,0x118(%rsp)
 474:	00 00 
 476:	66 41 0f 57 c5       	xorpd  %xmm13,%xmm0
 47b:	66 0f 28 e6          	movapd %xmm6,%xmm4
 47f:	66 0f 29 8c 24 58 01 	movapd %xmm1,0x158(%rsp)
 486:	00 00 
 488:	66 0f 5e c1          	divpd  %xmm1,%xmm0
 48c:	66 0f 28 cf          	movapd %xmm7,%xmm1
 490:	66 0f 29 74 24 58    	movapd %xmm6,0x58(%rsp)
 496:	f2 0f 10 98 d0 00 00 	movsd  0xd0(%rax),%xmm3
 49d:	00 
 49e:	f2 0f 10 a8 f0 00 00 	movsd  0xf0(%rax),%xmm5
 4a5:	00 
 4a6:	66 0f 14 db          	unpcklpd %xmm3,%xmm3
 4aa:	66 0f 14 ed          	unpcklpd %xmm5,%xmm5
 4ae:	66 0f 28 fb          	movapd %xmm3,%xmm7
 4b2:	66 0f 28 f3          	movapd %xmm3,%xmm6
 4b6:	66 41 0f 59 ff       	mulpd  %xmm15,%xmm7
 4bb:	66 0f 29 5c 24 38    	movapd %xmm3,0x38(%rsp)
 4c1:	66 0f 28 dc          	movapd %xmm4,%xmm3
 4c5:	66 0f 29 84 24 98 01 	movapd %xmm0,0x198(%rsp)
 4cc:	00 00 
 4ce:	66 41 0f 59 dc       	mulpd  %xmm12,%xmm3
 4d3:	66 0f 28 c7          	movapd %xmm7,%xmm0
 4d7:	66 0f 28 f9          	movapd %xmm1,%xmm7
 4db:	66 41 0f 59 ca       	mulpd  %xmm10,%xmm1
 4e0:	66 0f 29 6c 24 68    	movapd %xmm5,0x68(%rsp)
 4e6:	66 41 0f 59 e0       	mulpd  %xmm8,%xmm4
 4eb:	66 0f 58 cb          	addpd  %xmm3,%xmm1
 4ef:	66 0f 28 df          	movapd %xmm7,%xmm3
 4f3:	66 41 0f 59 de       	mulpd  %xmm14,%xmm3
 4f8:	66 0f 58 c1          	addpd  %xmm1,%xmm0
 4fc:	66 0f 28 ce          	movapd %xmm6,%xmm1
 500:	66 0f 58 dc          	addpd  %xmm4,%xmm3
 504:	66 41 0f 59 c9       	mulpd  %xmm9,%xmm1
 509:	66 0f 58 c5          	addpd  %xmm5,%xmm0
 50d:	66 41 0f 28 ed       	movapd %xmm13,%xmm5
 512:	66 0f 58 cb          	addpd  %xmm3,%xmm1
 516:	66 0f 29 84 24 28 01 	movapd %xmm0,0x128(%rsp)
 51d:	00 00 
 51f:	66 41 0f 57 c5       	xorpd  %xmm13,%xmm0
 524:	66 0f 29 8c 24 68 01 	movapd %xmm1,0x168(%rsp)
 52b:	00 00 
 52d:	66 0f 5e c1          	divpd  %xmm1,%xmm0
 531:	66 0f 29 84 24 a8 01 	movapd %xmm0,0x1a8(%rsp)
 538:	00 00 
 53a:	66 41 0f 28 c7       	movapd %xmm15,%xmm0
 53f:	f2 0f 10 b8 b8 00 00 	movsd  0xb8(%rax),%xmm7
 546:	00 
 547:	f2 0f 10 98 98 00 00 	movsd  0x98(%rax),%xmm3
 54e:	00 
 54f:	66 0f 14 ff          	unpcklpd %xmm7,%xmm7
 553:	f2 0f 10 a0 f8 00 00 	movsd  0xf8(%rax),%xmm4
 55a:	00 
 55b:	66 0f 14 db          	unpcklpd %xmm3,%xmm3
 55f:	66 0f 28 f7          	movapd %xmm7,%xmm6
 563:	66 0f 14 e4          	unpcklpd %xmm4,%xmm4
 567:	f2 44 0f 10 a8 d8 00 	movsd  0xd8(%rax),%xmm13
 56e:	00 00 
 570:	66 0f 28 ce          	movapd %xmm6,%xmm1
 574:	66 0f 29 7c 24 78    	movapd %xmm7,0x78(%rsp)
 57a:	66 41 0f 59 ca       	mulpd  %xmm10,%xmm1
 57f:	66 0f 28 fc          	movapd %xmm4,%xmm7
 583:	66 0f 29 9c 24 88 00 	movapd %xmm3,0x88(%rsp)
 58a:	00 00 
 58c:	66 45 0f 14 ed       	unpcklpd %xmm13,%xmm13
 591:	66 0f 29 a4 24 98 00 	movapd %xmm4,0x98(%rsp)
 598:	00 00 
 59a:	66 0f 28 e3          	movapd %xmm3,%xmm4
 59e:	66 41 0f 59 dc       	mulpd  %xmm12,%xmm3
 5a3:	66 41 0f 59 c5       	mulpd  %xmm13,%xmm0
 5a8:	66 41 0f 59 e0       	mulpd  %xmm8,%xmm4
 5ad:	66 0f 58 cb          	addpd  %xmm3,%xmm1
 5b1:	66 0f 28 de          	movapd %xmm6,%xmm3
 5b5:	66 41 0f 59 de       	mulpd  %xmm14,%xmm3
 5ba:	66 0f 58 c1          	addpd  %xmm1,%xmm0
 5be:	66 41 0f 28 c9       	movapd %xmm9,%xmm1
 5c3:	66 0f 58 dc          	addpd  %xmm4,%xmm3
 5c7:	66 41 0f 59 cd       	mulpd  %xmm13,%xmm1
 5cc:	66 0f 58 c7          	addpd  %xmm7,%xmm0
 5d0:	f2 0f 10 b8 e0 00 00 	movsd  0xe0(%rax),%xmm7
 5d7:	00 
 5d8:	66 0f 14 ff          	unpcklpd %xmm7,%xmm7
 5dc:	66 0f 58 cb          	addpd  %xmm3,%xmm1
 5e0:	f2 0f 10 98 00 01 00 	movsd  0x100(%rax),%xmm3
 5e7:	00 
 5e8:	66 0f 29 84 24 38 01 	movapd %xmm0,0x138(%rsp)
 5ef:	00 00 
 5f1:	66 0f 57 c5          	xorpd  %xmm5,%xmm0
 5f5:	66 0f 28 f7          	movapd %xmm7,%xmm6
 5f9:	66 0f 14 db          	unpcklpd %xmm3,%xmm3
 5fd:	66 0f 29 bc 24 a8 00 	movapd %xmm7,0xa8(%rsp)
 604:	00 00 
 606:	66 0f 29 8c 24 78 01 	movapd %xmm1,0x178(%rsp)
 60d:	00 00 
 60f:	66 0f 5e c1          	divpd  %xmm1,%xmm0
 613:	66 0f 29 9c 24 d8 00 	movapd %xmm3,0xd8(%rsp)
 61a:	00 00 
 61c:	f2 0f 10 a8 c0 00 00 	movsd  0xc0(%rax),%xmm5
 623:	00 
 624:	66 0f 14 ed          	unpcklpd %xmm5,%xmm5
 628:	66 0f 28 fd          	movapd %xmm5,%xmm7
 62c:	66 0f 29 ac 24 b8 00 	movapd %xmm5,0xb8(%rsp)
 633:	00 00 
 635:	66 0f 28 cf          	movapd %xmm7,%xmm1
 639:	66 0f 29 84 24 b8 01 	movapd %xmm0,0x1b8(%rsp)
 640:	00 00 
 642:	66 41 0f 59 ca       	mulpd  %xmm10,%xmm1
 647:	66 0f 28 c6          	movapd %xmm6,%xmm0
 64b:	f2 0f 10 a8 a0 00 00 	movsd  0xa0(%rax),%xmm5
 652:	00 
 653:	31 c0                	xor    %eax,%eax
 655:	66 41 0f 59 c7       	mulpd  %xmm15,%xmm0
 65a:	66 0f 14 ed          	unpcklpd %xmm5,%xmm5
 65e:	66 0f 28 e5          	movapd %xmm5,%xmm4
 662:	66 0f 29 ac 24 c8 00 	movapd %xmm5,0xc8(%rsp)
 669:	00 00 
 66b:	66 0f 28 eb          	movapd %xmm3,%xmm5
 66f:	66 0f 28 dc          	movapd %xmm4,%xmm3
 673:	66 41 0f 59 e0       	mulpd  %xmm8,%xmm4
 678:	66 41 0f 59 dc       	mulpd  %xmm12,%xmm3
 67d:	66 0f 58 cb          	addpd  %xmm3,%xmm1
 681:	66 0f 28 df          	movapd %xmm7,%xmm3
 685:	66 41 0f 59 de       	mulpd  %xmm14,%xmm3
 68a:	66 0f 58 c1          	addpd  %xmm1,%xmm0
 68e:	66 0f 28 ce          	movapd %xmm6,%xmm1
 692:	66 0f 58 dc          	addpd  %xmm4,%xmm3
 696:	66 41 0f 59 c9       	mulpd  %xmm9,%xmm1
 69b:	66 0f 58 c5          	addpd  %xmm5,%xmm0
 69f:	66 0f 58 cb          	addpd  %xmm3,%xmm1
 6a3:	66 0f 29 84 24 48 01 	movapd %xmm0,0x148(%rsp)
 6aa:	00 00 
 6ac:	66 0f 57 44 24 88    	xorpd  -0x78(%rsp),%xmm0
 6b2:	66 0f 29 8c 24 88 01 	movapd %xmm1,0x188(%rsp)
 6b9:	00 00 
 6bb:	66 0f 5e c1          	divpd  %xmm1,%xmm0
 6bf:	66 0f 28 1d 00 00 00 	movapd 0x0(%rip),%xmm3        # 6c7 <_ZNK7vecgeom3cxx25ShapeImplementationHelperINS0_23TrapezoidImplementationILin1ELin1EEEE20DistanceToInMinimizeERKNS0_5SOA3DIdEES8_iPdPi+0x6c7>
 6c6:	00 
 6c7:	66 0f 29 84 24 c8 01 	movapd %xmm0,0x1c8(%rsp)
 6ce:	00 00 
 6d0:	66 0f 28 44 24 b8    	movapd -0x48(%rsp),%xmm0
 6d6:	66 0f 57 f6          	xorpd  %xmm6,%xmm6
 6da:	66 0f 28 6c 05 00    	movapd 0x0(%rbp,%rax,1),%xmm5
 6e0:	66 41 0f 28 24 04    	movapd (%r12,%rax,1),%xmm4
 6e6:	66 0f c2 ee 06       	cmpnlepd %xmm6,%xmm5
 6eb:	66 0f c2 25 00 00 00 	cmpnltpd 0x0(%rip),%xmm4        # 6f4 <_ZNK7vecgeom3cxx25ShapeImplementationHelperINS0_23TrapezoidImplementationILin1ELin1EEEE20DistanceToInMinimizeERKNS0_5SOA3DIdEES8_iPdPi+0x6f4>
 6f2:	00 05 
 6f4:	0f 28 cd             	movaps %xmm5,%xmm1
 6f7:	66 0f 6f fc          	movdqa %xmm4,%xmm7
 6fb:	0f 54 cc             	andps  %xmm4,%xmm1
 6fe:	66 41 0f df fb       	pandn  %xmm11,%xmm7
 703:	0f 56 d1             	orps   %xmm1,%xmm2
 706:	66 0f 28 0c 03       	movapd (%rbx,%rax,1),%xmm1
 70b:	0f 54 fd             	andps  %xmm5,%xmm7
 70e:	66 41 0f df eb       	pandn  %xmm11,%xmm5
 713:	48 83 c0 10          	add    $0x10,%rax
 717:	66 0f 28 f1          	movapd %xmm1,%xmm6
 71b:	48 83 f8 40          	cmp    $0x40,%rax
 71f:	66 0f c2 f0 01       	cmpltpd %xmm0,%xmm6
 724:	0f 54 e5             	andps  %xmm5,%xmm4
 727:	66 0f 28 e9          	movapd %xmm1,%xmm5
 72b:	0f 54 f7             	andps  %xmm7,%xmm6
 72e:	66 0f c2 eb 06       	cmpnlepd %xmm3,%xmm5
 733:	0f 56 d6             	orps   %xmm6,%xmm2
 736:	0f 54 ec             	andps  %xmm4,%xmm5
 739:	66 0f 28 f0          	movapd %xmm0,%xmm6
 73d:	66 0f c2 f1 01       	cmpltpd %xmm1,%xmm6
 742:	0f 56 d5             	orps   %xmm5,%xmm2
 745:	66 0f 28 e9          	movapd %xmm1,%xmm5
 749:	66 0f c2 eb 01       	cmpltpd %xmm3,%xmm5
 74e:	0f 54 f5             	andps  %xmm5,%xmm6
 751:	66 0f 28 e9          	movapd %xmm1,%xmm5
 755:	0f 54 e6             	andps  %xmm6,%xmm4
 758:	0f 54 fe             	andps  %xmm6,%xmm7
 75b:	66 0f 54 ec          	andpd  %xmm4,%xmm5
 75f:	66 0f 54 cf          	andpd  %xmm7,%xmm1
 763:	66 0f 55 e0          	andnpd %xmm0,%xmm4
 767:	66 0f 55 fb          	andnpd %xmm3,%xmm7
 76b:	66 0f 28 c4          	movapd %xmm4,%xmm0
 76f:	66 0f 28 df          	movapd %xmm7,%xmm3
 773:	66 0f 56 c5          	orpd   %xmm5,%xmm0
 777:	66 0f 56 d9          	orpd   %xmm1,%xmm3
 77b:	0f 85 55 ff ff ff    	jne    6d6 <_ZNK7vecgeom3cxx25ShapeImplementationHelperINS0_23TrapezoidImplementationILin1ELin1EEEE20DistanceToInMinimizeERKNS0_5SOA3DIdEES8_iPdPi+0x6d6>
 781:	66 41 0f 28 e6       	movapd %xmm14,%xmm4
 786:	41 89 c9             	mov    %ecx,%r9d
 789:	66 41 0f 28 d8       	movapd %xmm8,%xmm3
 78e:	66 0f 59 e0          	mulpd  %xmm0,%xmm4
 792:	66 41 0f 28 e9       	movapd %xmm9,%xmm5
 797:	66 0f 28 74 24 08    	movapd 0x8(%rsp),%xmm6
 79d:	66 0f 59 d8          	mulpd  %xmm0,%xmm3
 7a1:	66 0f 28 7c 24 18    	movapd 0x18(%rsp),%xmm7
 7a7:	66 0f 59 e8          	mulpd  %xmm0,%xmm5
 7ab:	66 41 0f 58 e2       	addpd  %xmm10,%xmm4
 7b0:	66 0f 28 4c 24 f8    	movapd -0x8(%rsp),%xmm1
 7b6:	66 41 0f df d3       	pandn  %xmm11,%xmm2
 7bb:	66 41 0f 58 dc       	addpd  %xmm12,%xmm3
 7c0:	66 44 0f 28 74 24 48 	movapd 0x48(%rsp),%xmm14
 7c7:	66 41 0f 58 ef       	addpd  %xmm15,%xmm5
 7cc:	66 0f 59 f4          	mulpd  %xmm4,%xmm6
 7d0:	66 44 0f 28 64 24 78 	movapd 0x78(%rsp),%xmm12
 7d7:	66 0f 59 fb          	mulpd  %xmm3,%xmm7
 7db:	66 44 0f 28 7c 24 38 	movapd 0x38(%rsp),%xmm15
 7e2:	66 0f 59 cd          	mulpd  %xmm5,%xmm1
 7e6:	66 44 0f 28 8c 24 b8 	movapd 0xb8(%rsp),%xmm9
 7ed:	00 00 00 
 7f0:	66 44 0f 59 f4       	mulpd  %xmm4,%xmm14
 7f5:	66 0f 58 f7          	addpd  %xmm7,%xmm6
 7f9:	66 44 0f 28 94 24 a8 	movapd 0xa8(%rsp),%xmm10
 800:	00 00 00 
 803:	66 44 0f 59 e4       	mulpd  %xmm4,%xmm12
 808:	66 0f 28 7c 24 e8    	movapd -0x18(%rsp),%xmm7
 80e:	66 44 0f 59 fd       	mulpd  %xmm5,%xmm15
 813:	66 0f 58 ce          	addpd  %xmm6,%xmm1
 817:	66 0f 28 74 24 58    	movapd 0x58(%rsp),%xmm6
 81d:	66 44 0f 59 cc       	mulpd  %xmm4,%xmm9
 822:	66 0f 59 f3          	mulpd  %xmm3,%xmm6
 826:	66 44 0f 59 ed       	mulpd  %xmm5,%xmm13
 82b:	66 0f 58 4c 24 28    	addpd  0x28(%rsp),%xmm1
 831:	66 44 0f 59 d5       	mulpd  %xmm5,%xmm10
 836:	66 44 0f 58 f6       	addpd  %xmm6,%xmm14
 83b:	66 0f 28 b4 24 88 00 	movapd 0x88(%rsp),%xmm6
 842:	00 00 
 844:	66 0f 57 ed          	xorpd  %xmm5,%xmm5
 848:	66 0f 59 f3          	mulpd  %xmm3,%xmm6
 84c:	66 0f 59 9c 24 c8 00 	mulpd  0xc8(%rsp),%xmm3
 853:	00 00 
 855:	66 45 0f 58 fe       	addpd  %xmm14,%xmm15
 85a:	66 44 0f 58 e6       	addpd  %xmm6,%xmm12
 85f:	66 0f 28 74 24 b8    	movapd -0x48(%rsp),%xmm6
 865:	66 0f c2 0d 00 00 00 	cmplepd 0x0(%rip),%xmm1        # 86e <_ZNK7vecgeom3cxx25ShapeImplementationHelperINS0_23TrapezoidImplementationILin1ELin1EEEE20DistanceToInMinimizeERKNS0_5SOA3DIdEES8_iPdPi+0x86e>
 86c:	00 02 
 86e:	66 44 0f 58 cb       	addpd  %xmm3,%xmm9
 873:	0f 54 8c 24 08 01 00 	andps  0x108(%rsp),%xmm1
 87a:	00 
 87b:	66 45 0f 58 ec       	addpd  %xmm12,%xmm13
 880:	66 44 0f 58 7c 24 68 	addpd  0x68(%rsp),%xmm15
 887:	66 45 0f 58 d1       	addpd  %xmm9,%xmm10
 88c:	66 44 0f 58 ac 24 98 	addpd  0x98(%rsp),%xmm13
 893:	00 00 00 
 896:	66 44 0f 58 94 24 d8 	addpd  0xd8(%rsp),%xmm10
 89d:	00 00 00 
 8a0:	66 44 0f c2 3d 00 00 	cmplepd 0x0(%rip),%xmm15        # 8aa <_ZNK7vecgeom3cxx25ShapeImplementationHelperINS0_23TrapezoidImplementationILin1ELin1EEEE20DistanceToInMinimizeERKNS0_5SOA3DIdEES8_iPdPi+0x8aa>
 8a7:	00 00 02 
 8aa:	66 44 0f c2 2d 00 00 	cmplepd 0x0(%rip),%xmm13        # 8b4 <_ZNK7vecgeom3cxx25ShapeImplementationHelperINS0_23TrapezoidImplementationILin1ELin1EEEE20DistanceToInMinimizeERKNS0_5SOA3DIdEES8_iPdPi+0x8b4>
 8b1:	00 00 02 
 8b4:	41 0f 54 cf          	andps  %xmm15,%xmm1
 8b8:	66 44 0f c2 15 00 00 	cmplepd 0x0(%rip),%xmm10        # 8c2 <_ZNK7vecgeom3cxx25ShapeImplementationHelperINS0_23TrapezoidImplementationILin1ELin1EEEE20DistanceToInMinimizeERKNS0_5SOA3DIdEES8_iPdPi+0x8c2>
 8bf:	00 00 02 
 8c2:	41 0f 54 cd          	andps  %xmm13,%xmm1
 8c6:	41 0f 54 ca          	andps  %xmm10,%xmm1
 8ca:	0f 54 ca             	andps  %xmm2,%xmm1
 8cd:	66 0f 54 c1          	andpd  %xmm1,%xmm0
 8d1:	66 0f 55 0d 00 00 00 	andnpd 0x0(%rip),%xmm1        # 8d9 <_ZNK7vecgeom3cxx25ShapeImplementationHelperINS0_23TrapezoidImplementationILin1ELin1EEEE20DistanceToInMinimizeERKNS0_5SOA3DIdEES8_iPdPi+0x8d9>
 8d8:	00 
 8d9:	66 0f 56 c8          	orpd   %xmm0,%xmm1
 8dd:	66 0f 28 c1          	movapd %xmm1,%xmm0
 8e1:	66 0f 28 d1          	movapd %xmm1,%xmm2
 8e5:	66 0f 28 d9          	movapd %xmm1,%xmm3
 8e9:	66 0f c2 05 00 00 00 	cmpeqpd 0x0(%rip),%xmm0        # 8f2 <_ZNK7vecgeom3cxx25ShapeImplementationHelperINS0_23TrapezoidImplementationILin1ELin1EEEE20DistanceToInMinimizeERKNS0_5SOA3DIdEES8_iPdPi+0x8f2>
 8f0:	00 00 
 8f2:	66 0f c2 d7 06       	cmpnlepd %xmm7,%xmm2
 8f7:	0f 56 44 24 98       	orps   -0x68(%rsp),%xmm0
 8fc:	66 0f c2 de 06       	cmpnlepd %xmm6,%xmm3
 901:	0f 56 c2             	orps   %xmm2,%xmm0
 904:	66 0f 28 d6          	movapd %xmm6,%xmm2
 908:	66 41 0f df c3       	pandn  %xmm11,%xmm0
 90d:	66 0f 54 d0          	andpd  %xmm0,%xmm2
 911:	66 0f 55 05 00 00 00 	andnpd 0x0(%rip),%xmm0        # 919 <_ZNK7vecgeom3cxx25ShapeImplementationHelperINS0_23TrapezoidImplementationILin1ELin1EEEE20DistanceToInMinimizeERKNS0_5SOA3DIdEES8_iPdPi+0x919>
 918:	00 
 919:	66 0f 56 c2          	orpd   %xmm2,%xmm0
 91d:	66 0f 28 d1          	movapd %xmm1,%xmm2
 921:	66 0f c2 d7 01       	cmpltpd %xmm7,%xmm2
 926:	0f 54 d3             	andps  %xmm3,%xmm2
 929:	66 0f 54 ca          	andpd  %xmm2,%xmm1
 92d:	66 0f 55 d0          	andnpd %xmm0,%xmm2
 931:	66 0f 56 d1          	orpd   %xmm1,%xmm2
 935:	66 0f 28 c2          	movapd %xmm2,%xmm0
 939:	66 0f c2 c5 01       	cmpltpd %xmm5,%xmm0
 93e:	66 0f 55 c2          	andnpd %xmm2,%xmm0
 942:	66 0f 28 54 24 d8    	movapd -0x28(%rsp),%xmm2
 948:	66 0f 28 c8          	movapd %xmm0,%xmm1
 94c:	66 0f c2 ca 06       	cmpnlepd %xmm2,%xmm1
 951:	66 0f 28 f1          	movapd %xmm1,%xmm6
 955:	66 0f 54 d1          	andpd  %xmm1,%xmm2
 959:	66 0f 50 c1          	movmskpd %xmm1,%eax
 95d:	66 0f 55 f0          	andnpd %xmm0,%xmm6
 961:	a8 01                	test   $0x1,%al
 963:	66 0f 28 c6          	movapd %xmm6,%xmm0
 967:	66 0f 56 c2          	orpd   %xmm2,%xmm0
 96b:	66 43 0f 29 04 10    	movapd %xmm0,(%r8,%r10,1)
 971:	74 04                	je     977 <_ZNK7vecgeom3cxx25ShapeImplementationHelperINS0_23TrapezoidImplementationILin1ELin1EEEE20DistanceToInMinimizeERKNS0_5SOA3DIdEES8_iPdPi+0x977>
 973:	45 8b 4b fc          	mov    -0x4(%r11),%r9d
 977:	a8 02                	test   $0x2,%al
 979:	45 89 4b fc          	mov    %r9d,-0x4(%r11)
 97d:	41 89 c9             	mov    %ecx,%r9d
 980:	74 03                	je     985 <_ZNK7vecgeom3cxx25ShapeImplementationHelperINS0_23TrapezoidImplementationILin1ELin1EEEE20DistanceToInMinimizeERKNS0_5SOA3DIdEES8_iPdPi+0x985>
 982:	45 8b 0b             	mov    (%r11),%r9d
 985:	49 83 c2 10          	add    $0x10,%r10
 989:	45 89 0b             	mov    %r9d,(%r11)
 98c:	49 83 c3 08          	add    $0x8,%r11
 990:	4d 39 ea             	cmp    %r13,%r10
 993:	0f 85 27 f7 ff ff    	jne    c0 <_ZNK7vecgeom3cxx25ShapeImplementationHelperINS0_23TrapezoidImplementationILin1ELin1EEEE20DistanceToInMinimizeERKNS0_5SOA3DIdEES8_iPdPi+0xc0>
 999:	48 81 c4 e0 01 00 00 	add    $0x1e0,%rsp
 9a0:	5b                   	pop    %rbx
 9a1:	5d                   	pop    %rbp
 9a2:	41 5c                	pop    %r12
 9a4:	41 5d                	pop    %r13
 9a6:	41 5e                	pop    %r14
 9a8:	41 5f                	pop    %r15
 9aa:	f3 c3                	repz retq 

Disassembly of section .text._ZNK7vecgeom3cxx25ShapeImplementationHelperINS0_23TrapezoidImplementationILin1ELin1EEEE8ContainsERKNS0_8Vector3DIdEERS6_:

0000000000000000 <_ZNK7vecgeom3cxx25ShapeImplementationHelperINS0_23TrapezoidImplementationILin1ELin1EEEE8ContainsERKNS0_8Vector3DIdEERS6_>:
   0:	48 8b 47 20          	mov    0x20(%rdi),%rax
   4:	f2 0f 10 46 10       	movsd  0x10(%rsi),%xmm0
   9:	f2 0f 10 66 18       	movsd  0x18(%rsi),%xmm4
   e:	48 8b 4f 18          	mov    0x18(%rdi),%rcx
  12:	f2 0f 10 5e 20       	movsd  0x20(%rsi),%xmm3
  17:	f2 0f 5c 00          	subsd  (%rax),%xmm0
  1b:	f2 0f 10 50 18       	movsd  0x18(%rax),%xmm2
  20:	f2 0f 5c 60 08       	subsd  0x8(%rax),%xmm4
  25:	f2 0f 10 48 30       	movsd  0x30(%rax),%xmm1
  2a:	f2 0f 5c 58 10       	subsd  0x10(%rax),%xmm3
  2f:	f2 0f 10 68 38       	movsd  0x38(%rax),%xmm5
  34:	48 8b 09             	mov    (%rcx),%rcx
  37:	f2 0f 59 d0          	mulsd  %xmm0,%xmm2
  3b:	f2 0f 59 cc          	mulsd  %xmm4,%xmm1
  3f:	f2 0f 59 ec          	mulsd  %xmm4,%xmm5
  43:	f2 0f 59 60 40       	mulsd  0x40(%rax),%xmm4
  48:	f2 0f 58 d1          	addsd  %xmm1,%xmm2
  4c:	f2 0f 10 48 48       	movsd  0x48(%rax),%xmm1
  51:	f2 0f 59 cb          	mulsd  %xmm3,%xmm1
  55:	f2 0f 58 d1          	addsd  %xmm1,%xmm2
  59:	f2 0f 10 48 20       	movsd  0x20(%rax),%xmm1
  5e:	f2 0f 59 c8          	mulsd  %xmm0,%xmm1
  62:	f2 0f 59 40 28       	mulsd  0x28(%rax),%xmm0
  67:	f2 0f 58 cd          	addsd  %xmm5,%xmm1
  6b:	f2 0f 10 68 50       	movsd  0x50(%rax),%xmm5
  70:	f2 0f 59 eb          	mulsd  %xmm3,%xmm5
  74:	f2 0f 59 58 58       	mulsd  0x58(%rax),%xmm3
  79:	f2 0f 58 c4          	addsd  %xmm4,%xmm0
  7d:	31 c0                	xor    %eax,%eax
  7f:	f2 0f 11 52 10       	movsd  %xmm2,0x10(%rdx)
  84:	f2 0f 58 cd          	addsd  %xmm5,%xmm1
  88:	f2 0f 58 c3          	addsd  %xmm3,%xmm0
  8c:	f2 0f 10 1d 00 00 00 	movsd  0x0(%rip),%xmm3        # 94 <_ZNK7vecgeom3cxx25ShapeImplementationHelperINS0_23TrapezoidImplementationILin1ELin1EEEE8ContainsERKNS0_8Vector3DIdEERS6_+0x94>
  93:	00 
  94:	f2 0f 11 4a 18       	movsd  %xmm1,0x18(%rdx)
  99:	66 0f 54 d8          	andpd  %xmm0,%xmm3
  9d:	f2 0f 11 42 20       	movsd  %xmm0,0x20(%rdx)
  a2:	66 0f 2f 59 20       	comisd 0x20(%rcx),%xmm3
  a7:	76 07                	jbe    b0 <_ZNK7vecgeom3cxx25ShapeImplementationHelperINS0_23TrapezoidImplementationILin1ELin1EEEE8ContainsERKNS0_8Vector3DIdEERS6_+0xb0>
  a9:	f3 c3                	repz retq 
  ab:	0f 1f 44 00 00       	nopl   0x0(%rax,%rax,1)
  b0:	f2 0f 10 99 88 00 00 	movsd  0x88(%rcx),%xmm3
  b7:	00 
  b8:	f2 0f 10 a1 a8 00 00 	movsd  0xa8(%rcx),%xmm4
  bf:	00 
  c0:	66 0f 14 d2          	unpcklpd %xmm2,%xmm2
  c4:	66 0f 16 99 90 00 00 	movhpd 0x90(%rcx),%xmm3
  cb:	00 
  cc:	66 0f 14 c9          	unpcklpd %xmm1,%xmm1
  d0:	66 0f 16 a1 b0 00 00 	movhpd 0xb0(%rcx),%xmm4
  d7:	00 
  d8:	66 0f 14 c0          	unpcklpd %xmm0,%xmm0
  dc:	66 0f 59 da          	mulpd  %xmm2,%xmm3
  e0:	66 0f 59 e1          	mulpd  %xmm1,%xmm4
  e4:	66 0f 58 dc          	addpd  %xmm4,%xmm3
  e8:	f2 0f 10 a1 c8 00 00 	movsd  0xc8(%rcx),%xmm4
  ef:	00 
  f0:	66 0f 16 a1 d0 00 00 	movhpd 0xd0(%rcx),%xmm4
  f7:	00 
  f8:	66 0f 59 e0          	mulpd  %xmm0,%xmm4
  fc:	66 0f 58 dc          	addpd  %xmm4,%xmm3
 100:	f2 0f 10 a1 e8 00 00 	movsd  0xe8(%rcx),%xmm4
 107:	00 
 108:	66 0f 16 a1 f0 00 00 	movhpd 0xf0(%rcx),%xmm4
 10f:	00 
 110:	66 0f 58 dc          	addpd  %xmm4,%xmm3
 114:	66 0f 29 5c 24 d8    	movapd %xmm3,-0x28(%rsp)
 11a:	f2 0f 10 99 98 00 00 	movsd  0x98(%rcx),%xmm3
 121:	00 
 122:	66 0f 16 99 a0 00 00 	movhpd 0xa0(%rcx),%xmm3
 129:	00 
 12a:	66 0f 59 da          	mulpd  %xmm2,%xmm3
 12e:	f2 0f 10 91 b8 00 00 	movsd  0xb8(%rcx),%xmm2
 135:	00 
 136:	66 0f 16 91 c0 00 00 	movhpd 0xc0(%rcx),%xmm2
 13d:	00 
 13e:	66 0f 59 d1          	mulpd  %xmm1,%xmm2
 142:	f2 0f 10 89 d8 00 00 	movsd  0xd8(%rcx),%xmm1
 149:	00 
 14a:	66 0f 16 89 e0 00 00 	movhpd 0xe0(%rcx),%xmm1
 151:	00 
 152:	66 0f 58 da          	addpd  %xmm2,%xmm3
 156:	66 0f 59 c8          	mulpd  %xmm0,%xmm1
 15a:	f2 0f 10 81 f8 00 00 	movsd  0xf8(%rcx),%xmm0
 161:	00 
 162:	66 0f 16 81 00 01 00 	movhpd 0x100(%rcx),%xmm0
 169:	00 
 16a:	66 0f 58 d9          	addpd  %xmm1,%xmm3
 16e:	66 0f 58 d8          	addpd  %xmm0,%xmm3
 172:	66 0f 57 c0          	xorpd  %xmm0,%xmm0
 176:	66 0f 2f 44 24 d8    	comisd -0x28(%rsp),%xmm0
 17c:	66 0f 29 5c 24 e8    	movapd %xmm3,-0x18(%rsp)
 182:	72 24                	jb     1a8 <_ZNK7vecgeom3cxx25ShapeImplementationHelperINS0_23TrapezoidImplementationILin1ELin1EEEE8ContainsERKNS0_8Vector3DIdEERS6_+0x1a8>
 184:	66 0f 2f 44 24 e0    	comisd -0x20(%rsp),%xmm0
 18a:	72 1c                	jb     1a8 <_ZNK7vecgeom3cxx25ShapeImplementationHelperINS0_23TrapezoidImplementationILin1ELin1EEEE8ContainsERKNS0_8Vector3DIdEERS6_+0x1a8>
 18c:	66 0f 2f 44 24 e8    	comisd -0x18(%rsp),%xmm0
 192:	72 14                	jb     1a8 <_ZNK7vecgeom3cxx25ShapeImplementationHelperINS0_23TrapezoidImplementationILin1ELin1EEEE8ContainsERKNS0_8Vector3DIdEERS6_+0x1a8>
 194:	66 0f 2f 44 24 f0    	comisd -0x10(%rsp),%xmm0
 19a:	72 0c                	jb     1a8 <_ZNK7vecgeom3cxx25ShapeImplementationHelperINS0_23TrapezoidImplementationILin1ELin1EEEE8ContainsERKNS0_8Vector3DIdEERS6_+0x1a8>
 19c:	b8 01 00 00 00       	mov    $0x1,%eax
 1a1:	c3                   	retq   
 1a2:	66 0f 1f 44 00 00    	nopw   0x0(%rax,%rax,1)
 1a8:	31 c0                	xor    %eax,%eax
 1aa:	c3                   	retq   

Disassembly of section .text._ZN7vecgeom3cxx15PlacedTrapezoid11SurfaceAreaEv:

0000000000000000 <_ZN7vecgeom3cxx15PlacedTrapezoid11SurfaceAreaEv>:
   0:	48 8b 47 18          	mov    0x18(%rdi),%rax
   4:	48 8b 38             	mov    (%rax),%rdi
   7:	e9 00 00 00 00       	jmpq   c <.LC6+0x4>

Disassembly of section .text._ZNK7vecgeom3cxx15PlacedTrapezoid6NormalERKNS0_8Vector3DIdEERS3_:

0000000000000000 <_ZNK7vecgeom3cxx15PlacedTrapezoid6NormalERKNS0_8Vector3DIdEERS3_>:
   0:	48 8b 47 18          	mov    0x18(%rdi),%rax
   4:	48 8b 38             	mov    (%rax),%rdi
   7:	e9 00 00 00 00       	jmpq   c <.LC6+0x4>

Disassembly of section .text._ZN7vecgeom3cxx15PlacedTrapezoid8CapacityEv:

0000000000000000 <_ZN7vecgeom3cxx15PlacedTrapezoid8CapacityEv>:
   0:	48 8b 47 18          	mov    0x18(%rdi),%rax
   4:	48 8b 38             	mov    (%rax),%rdi
   7:	e9 00 00 00 00       	jmpq   c <.LC6+0x4>

Disassembly of section .text._ZNK7vecgeom3cxx15PlacedTrapezoid6ExtentERNS0_8Vector3DIdEES4_:

0000000000000000 <_ZNK7vecgeom3cxx15PlacedTrapezoid6ExtentERNS0_8Vector3DIdEES4_>:
   0:	48 8b 47 18          	mov    0x18(%rdi),%rax
   4:	48 8b 38             	mov    (%rax),%rdi
   7:	e9 00 00 00 00       	jmpq   c <.LC6+0x4>

Disassembly of section .text._ZNK7vecgeom3cxx15PlacedTrapezoid17GetPointOnSurfaceEv:

0000000000000000 <_ZNK7vecgeom3cxx15PlacedTrapezoid17GetPointOnSurfaceEv>:
   0:	53                   	push   %rbx
   1:	48 8b 46 18          	mov    0x18(%rsi),%rax
   5:	48 89 fb             	mov    %rdi,%rbx
   8:	48 8b 30             	mov    (%rax),%rsi
   b:	e8 00 00 00 00       	callq  10 <_ZNK7vecgeom3cxx15PlacedTrapezoid17GetPointOnSurfaceEv+0x10>
  10:	48 89 d8             	mov    %rbx,%rax
  13:	5b                   	pop    %rbx
  14:	c3                   	retq   

Disassembly of section .text._ZNK7vecgeom3cxx25ShapeImplementationHelperINS0_23TrapezoidImplementationILin1ELin1EEEE16ContainsTemplateERKNS0_5SOA3DIdEEPb:

0000000000000000 <_ZNK7vecgeom3cxx25ShapeImplementationHelperINS0_23TrapezoidImplementationILin1ELin1EEEE16ContainsTemplateERKNS0_5SOA3DIdEEPb>:
   0:	4c 8b 46 08          	mov    0x8(%rsi),%r8
   4:	45 85 c0             	test   %r8d,%r8d
   7:	0f 8e 1c 04 00 00    	jle    429 <_ZNK7vecgeom3cxx25ShapeImplementationHelperINS0_23TrapezoidImplementationILin1ELin1EEEE16ContainsTemplateERKNS0_5SOA3DIdEEPb+0x429>
   d:	48 81 ec 20 01 00 00 	sub    $0x120,%rsp
  14:	48 8b 4f 20          	mov    0x20(%rdi),%rcx
  18:	48 8b 47 18          	mov    0x18(%rdi),%rax
  1c:	41 83 e8 01          	sub    $0x1,%r8d
  20:	66 45 0f 57 c0       	xorpd  %xmm8,%xmm8
  25:	41 d1 e8             	shr    %r8d
  28:	f2 0f 10 71 20       	movsd  0x20(%rcx),%xmm6
  2d:	48 8b 00             	mov    (%rax),%rax
  30:	49 83 c0 01          	add    $0x1,%r8
  34:	f2 44 0f 10 39       	movsd  (%rcx),%xmm15
  39:	49 c1 e0 04          	shl    $0x4,%r8
  3d:	66 0f 14 f6          	unpcklpd %xmm6,%xmm6
  41:	f2 44 0f 10 71 08    	movsd  0x8(%rcx),%xmm14
  47:	f2 44 0f 10 69 10    	movsd  0x10(%rcx),%xmm13
  4d:	66 0f 29 b4 24 98 00 	movapd %xmm6,0x98(%rsp)
  54:	00 00 
  56:	66 45 0f 14 ff       	unpcklpd %xmm15,%xmm15
  5b:	66 45 0f 14 f6       	unpcklpd %xmm14,%xmm14
  60:	66 45 0f 14 ed       	unpcklpd %xmm13,%xmm13
  65:	f2 0f 10 71 28       	movsd  0x28(%rcx),%xmm6
  6a:	f2 44 0f 10 61 18    	movsd  0x18(%rcx),%xmm12
  70:	66 0f 14 f6          	unpcklpd %xmm6,%xmm6
  74:	66 45 0f 14 e4       	unpcklpd %xmm12,%xmm12
  79:	66 45 0f 74 d2       	pcmpeqb %xmm10,%xmm10
  7e:	66 0f 29 74 24 78    	movapd %xmm6,0x78(%rsp)
  84:	f2 0f 10 71 30       	movsd  0x30(%rcx),%xmm6
  89:	66 0f 14 f6          	unpcklpd %xmm6,%xmm6
  8d:	66 0f 29 74 24 28    	movapd %xmm6,0x28(%rsp)
  93:	f2 0f 10 71 38       	movsd  0x38(%rcx),%xmm6
  98:	66 0f 14 f6          	unpcklpd %xmm6,%xmm6
  9c:	66 0f 29 74 24 48    	movapd %xmm6,0x48(%rsp)
  a2:	f2 0f 10 71 40       	movsd  0x40(%rcx),%xmm6
  a7:	66 0f 14 f6          	unpcklpd %xmm6,%xmm6
  ab:	66 0f 29 74 24 08    	movapd %xmm6,0x8(%rsp)
  b1:	f2 0f 10 71 48       	movsd  0x48(%rcx),%xmm6
  b6:	66 0f 14 f6          	unpcklpd %xmm6,%xmm6
  ba:	66 0f 29 74 24 38    	movapd %xmm6,0x38(%rsp)
  c0:	f2 0f 10 71 50       	movsd  0x50(%rcx),%xmm6
  c5:	66 0f 14 f6          	unpcklpd %xmm6,%xmm6
  c9:	66 0f 29 74 24 d8    	movapd %xmm6,-0x28(%rsp)
  cf:	f2 0f 10 71 58       	movsd  0x58(%rcx),%xmm6
  d4:	48 8b 0d 00 00 00 00 	mov    0x0(%rip),%rcx        # db <_ZNK7vecgeom3cxx25ShapeImplementationHelperINS0_23TrapezoidImplementationILin1ELin1EEEE16ContainsTemplateERKNS0_5SOA3DIdEEPb+0xdb>
  db:	66 0f 14 f6          	unpcklpd %xmm6,%xmm6
  df:	66 0f 28 39          	movapd (%rcx),%xmm7
  e3:	66 0f 29 b4 24 88 00 	movapd %xmm6,0x88(%rsp)
  ea:	00 00 
  ec:	66 0f 29 7c 24 68    	movapd %xmm7,0x68(%rsp)
  f2:	f2 0f 10 70 20       	movsd  0x20(%rax),%xmm6
  f7:	66 0f 14 f6          	unpcklpd %xmm6,%xmm6
  fb:	66 0f 29 74 24 58    	movapd %xmm6,0x58(%rsp)
 101:	f2 0f 10 b0 c8 00 00 	movsd  0xc8(%rax),%xmm6
 108:	00 
 109:	66 0f 14 f6          	unpcklpd %xmm6,%xmm6
 10d:	66 0f 29 74 24 a8    	movapd %xmm6,-0x58(%rsp)
 113:	f2 0f 10 b0 a8 00 00 	movsd  0xa8(%rax),%xmm6
 11a:	00 
 11b:	66 0f 14 f6          	unpcklpd %xmm6,%xmm6
 11f:	66 0f 29 b4 24 c8 00 	movapd %xmm6,0xc8(%rsp)
 126:	00 00 
 128:	f2 0f 10 b0 88 00 00 	movsd  0x88(%rax),%xmm6
 12f:	00 
 130:	66 0f 14 f6          	unpcklpd %xmm6,%xmm6
 134:	66 0f 29 b4 24 b8 00 	movapd %xmm6,0xb8(%rsp)
 13b:	00 00 
 13d:	f2 0f 10 b8 e8 00 00 	movsd  0xe8(%rax),%xmm7
 144:	00 
 145:	f2 0f 10 b0 d0 00 00 	movsd  0xd0(%rax),%xmm6
 14c:	00 
 14d:	66 0f 14 ff          	unpcklpd %xmm7,%xmm7
 151:	66 0f 14 f6          	unpcklpd %xmm6,%xmm6
 155:	f2 44 0f 10 98 00 01 	movsd  0x100(%rax),%xmm11
 15c:	00 00 
 15e:	66 0f 29 bc 24 a8 00 	movapd %xmm7,0xa8(%rsp)
 165:	00 00 
 167:	66 45 0f 14 db       	unpcklpd %xmm11,%xmm11
 16c:	66 0f 29 b4 24 e8 00 	movapd %xmm6,0xe8(%rsp)
 173:	00 00 
 175:	f2 0f 10 b8 b0 00 00 	movsd  0xb0(%rax),%xmm7
 17c:	00 
 17d:	f2 0f 10 b0 90 00 00 	movsd  0x90(%rax),%xmm6
 184:	00 
 185:	66 0f 14 ff          	unpcklpd %xmm7,%xmm7
 189:	66 0f 14 f6          	unpcklpd %xmm6,%xmm6
 18d:	66 0f 29 bc 24 d8 00 	movapd %xmm7,0xd8(%rsp)
 194:	00 00 
 196:	66 0f 29 b4 24 08 01 	movapd %xmm6,0x108(%rsp)
 19d:	00 00 
 19f:	f2 0f 10 b8 f0 00 00 	movsd  0xf0(%rax),%xmm7
 1a6:	00 
 1a7:	f2 0f 10 b0 d8 00 00 	movsd  0xd8(%rax),%xmm6
 1ae:	00 
 1af:	66 0f 14 ff          	unpcklpd %xmm7,%xmm7
 1b3:	66 0f 14 f6          	unpcklpd %xmm6,%xmm6
 1b7:	66 0f 29 bc 24 f8 00 	movapd %xmm7,0xf8(%rsp)
 1be:	00 00 
 1c0:	66 0f 29 74 24 88    	movapd %xmm6,-0x78(%rsp)
 1c6:	f2 0f 10 b8 b8 00 00 	movsd  0xb8(%rax),%xmm7
 1cd:	00 
 1ce:	f2 0f 10 b0 98 00 00 	movsd  0x98(%rax),%xmm6
 1d5:	00 
 1d6:	66 0f 14 ff          	unpcklpd %xmm7,%xmm7
 1da:	66 0f 14 f6          	unpcklpd %xmm6,%xmm6
 1de:	66 0f 29 7c 24 98    	movapd %xmm7,-0x68(%rsp)
 1e4:	66 0f 29 74 24 b8    	movapd %xmm6,-0x48(%rsp)
 1ea:	f2 0f 10 b8 f8 00 00 	movsd  0xf8(%rax),%xmm7
 1f1:	00 
 1f2:	f2 0f 10 b0 e0 00 00 	movsd  0xe0(%rax),%xmm6
 1f9:	00 
 1fa:	66 0f 14 ff          	unpcklpd %xmm7,%xmm7
 1fe:	66 0f 14 f6          	unpcklpd %xmm6,%xmm6
 202:	66 0f 29 7c 24 c8    	movapd %xmm7,-0x38(%rsp)
 208:	66 0f 29 74 24 18    	movapd %xmm6,0x18(%rsp)
 20e:	f2 0f 10 b8 c0 00 00 	movsd  0xc0(%rax),%xmm7
 215:	00 
 216:	f2 0f 10 b0 a0 00 00 	movsd  0xa0(%rax),%xmm6
 21d:	00 
 21e:	31 c0                	xor    %eax,%eax
 220:	66 0f 14 ff          	unpcklpd %xmm7,%xmm7
 224:	66 0f 14 f6          	unpcklpd %xmm6,%xmm6
 228:	66 0f 29 7c 24 e8    	movapd %xmm7,-0x18(%rsp)
 22e:	66 0f 29 74 24 f8    	movapd %xmm6,-0x8(%rsp)
 234:	0f 1f 40 00          	nopl   0x0(%rax)
 238:	48 8b 4e 18          	mov    0x18(%rsi),%rcx
 23c:	66 0f 28 54 24 28    	movapd 0x28(%rsp),%xmm2
 242:	66 0f 28 04 01       	movapd (%rcx,%rax,1),%xmm0
 247:	48 8b 4e 20          	mov    0x20(%rsi),%rcx
 24b:	66 41 0f 5c c7       	subpd  %xmm15,%xmm0
 250:	66 0f 28 6c 24 48    	movapd 0x48(%rsp),%xmm5
 256:	66 0f 28 24 01       	movapd (%rcx,%rax,1),%xmm4
 25b:	48 8b 4e 28          	mov    0x28(%rsi),%rcx
 25f:	66 41 0f 5c e6       	subpd  %xmm14,%xmm4
 264:	66 0f 28 7c 24 b8    	movapd -0x48(%rsp),%xmm7
 26a:	66 0f 28 c8          	movapd %xmm0,%xmm1
 26e:	66 0f 28 1c 01       	movapd (%rcx,%rax,1),%xmm3
 273:	66 41 0f 59 cc       	mulpd  %xmm12,%xmm1
 278:	66 41 0f 5c dd       	subpd  %xmm13,%xmm3
 27d:	66 44 0f 28 4c 24 f8 	movapd -0x8(%rsp),%xmm9
 284:	66 0f 59 d4          	mulpd  %xmm4,%xmm2
 288:	66 0f 28 74 24 68    	movapd 0x68(%rsp),%xmm6
 28e:	66 0f 59 ec          	mulpd  %xmm4,%xmm5
 292:	66 0f 59 64 24 08    	mulpd  0x8(%rsp),%xmm4
 298:	66 0f 58 ca          	addpd  %xmm2,%xmm1
 29c:	66 0f 28 54 24 38    	movapd 0x38(%rsp),%xmm2
 2a2:	66 0f 59 d3          	mulpd  %xmm3,%xmm2
 2a6:	66 0f 58 ca          	addpd  %xmm2,%xmm1
 2aa:	66 0f 28 94 24 98 00 	movapd 0x98(%rsp),%xmm2
 2b1:	00 00 
 2b3:	66 0f 59 d0          	mulpd  %xmm0,%xmm2
 2b7:	66 0f 59 44 24 78    	mulpd  0x78(%rsp),%xmm0
 2bd:	66 0f 59 f9          	mulpd  %xmm1,%xmm7
 2c1:	66 0f 58 d5          	addpd  %xmm5,%xmm2
 2c5:	66 0f 28 6c 24 d8    	movapd -0x28(%rsp),%xmm5
 2cb:	66 44 0f 59 c9       	mulpd  %xmm1,%xmm9
 2d0:	66 0f 59 eb          	mulpd  %xmm3,%xmm5
 2d4:	66 0f 58 c4          	addpd  %xmm4,%xmm0
 2d8:	66 0f 28 a4 24 d8 00 	movapd 0xd8(%rsp),%xmm4
 2df:	00 00 
 2e1:	66 0f 59 9c 24 88 00 	mulpd  0x88(%rsp),%xmm3
 2e8:	00 00 
 2ea:	66 0f 58 d5          	addpd  %xmm5,%xmm2
 2ee:	66 0f 28 ac 24 08 01 	movapd 0x108(%rsp),%xmm5
 2f5:	00 00 
 2f7:	66 0f 59 e9          	mulpd  %xmm1,%xmm5
 2fb:	66 0f 58 c3          	addpd  %xmm3,%xmm0
 2ff:	66 0f 28 9c 24 e8 00 	movapd 0xe8(%rsp),%xmm3
 306:	00 00 
 308:	66 0f 59 e2          	mulpd  %xmm2,%xmm4
 30c:	66 0f 59 8c 24 b8 00 	mulpd  0xb8(%rsp),%xmm1
 313:	00 00 
 315:	66 0f 59 d8          	mulpd  %xmm0,%xmm3
 319:	66 0f 58 e5          	addpd  %xmm5,%xmm4
 31d:	66 0f 28 6c 24 98    	movapd -0x68(%rsp),%xmm5
 323:	66 0f 54 f0          	andpd  %xmm0,%xmm6
 327:	66 0f 59 ea          	mulpd  %xmm2,%xmm5
 32b:	66 0f c2 74 24 58 06 	cmpnlepd 0x58(%rsp),%xmm6
 332:	66 0f 58 dc          	addpd  %xmm4,%xmm3
 336:	66 0f 28 64 24 88    	movapd -0x78(%rsp),%xmm4
 33c:	66 0f 58 ef          	addpd  %xmm7,%xmm5
 340:	66 0f 59 e0          	mulpd  %xmm0,%xmm4
 344:	66 0f 28 7c 24 e8    	movapd -0x18(%rsp),%xmm7
 34a:	66 0f 59 fa          	mulpd  %xmm2,%xmm7
 34e:	66 0f 58 9c 24 f8 00 	addpd  0xf8(%rsp),%xmm3
 355:	00 00 
 357:	66 0f 59 94 24 c8 00 	mulpd  0xc8(%rsp),%xmm2
 35e:	00 00 
 360:	66 0f 58 e5          	addpd  %xmm5,%xmm4
 364:	66 0f 28 6c 24 18    	movapd 0x18(%rsp),%xmm5
 36a:	66 0f 59 e8          	mulpd  %xmm0,%xmm5
 36e:	66 41 0f 58 f9       	addpd  %xmm9,%xmm7
 373:	66 0f 59 44 24 a8    	mulpd  -0x58(%rsp),%xmm0
 379:	66 0f 58 64 24 c8    	addpd  -0x38(%rsp),%xmm4
 37f:	66 0f 58 d1          	addpd  %xmm1,%xmm2
 383:	66 0f 58 ef          	addpd  %xmm7,%xmm5
 387:	66 0f 58 c2          	addpd  %xmm2,%xmm0
 38b:	66 41 0f 58 eb       	addpd  %xmm11,%xmm5
 390:	66 0f 58 84 24 a8 00 	addpd  0xa8(%rsp),%xmm0
 397:	00 00 
 399:	66 41 0f c2 c0 06    	cmpnlepd %xmm8,%xmm0
 39f:	0f 56 c6             	orps   %xmm6,%xmm0
 3a2:	66 0f d7 c8          	pmovmskb %xmm0,%ecx
 3a6:	66 0f 6f c8          	movdqa %xmm0,%xmm1
 3aa:	81 f9 ff ff 00 00    	cmp    $0xffff,%ecx
 3b0:	74 3f                	je     3f1 <_ZNK7vecgeom3cxx25ShapeImplementationHelperINS0_23TrapezoidImplementationILin1ELin1EEEE16ContainsTemplateERKNS0_5SOA3DIdEEPb+0x3f1>
 3b2:	66 41 0f c2 d8 06    	cmpnlepd %xmm8,%xmm3
 3b8:	0f 56 c3             	orps   %xmm3,%xmm0
 3bb:	66 0f d7 c8          	pmovmskb %xmm0,%ecx
 3bf:	66 0f 6f c8          	movdqa %xmm0,%xmm1
 3c3:	81 f9 ff ff 00 00    	cmp    $0xffff,%ecx
 3c9:	74 26                	je     3f1 <_ZNK7vecgeom3cxx25ShapeImplementationHelperINS0_23TrapezoidImplementationILin1ELin1EEEE16ContainsTemplateERKNS0_5SOA3DIdEEPb+0x3f1>
 3cb:	66 41 0f c2 e0 06    	cmpnlepd %xmm8,%xmm4
 3d1:	0f 56 c4             	orps   %xmm4,%xmm0
 3d4:	66 0f d7 c8          	pmovmskb %xmm0,%ecx
 3d8:	66 0f 6f c8          	movdqa %xmm0,%xmm1
 3dc:	81 f9 ff ff 00 00    	cmp    $0xffff,%ecx
 3e2:	74 0d                	je     3f1 <_ZNK7vecgeom3cxx25ShapeImplementationHelperINS0_23TrapezoidImplementationILin1ELin1EEEE16ContainsTemplateERKNS0_5SOA3DIdEEPb+0x3f1>
 3e4:	66 41 0f c2 e8 06    	cmpnlepd %xmm8,%xmm5
 3ea:	0f 56 c5             	orps   %xmm5,%xmm0
 3ed:	66 0f 6f c8          	movdqa %xmm0,%xmm1
 3f1:	66 41 0f df ca       	pandn  %xmm10,%xmm1
 3f6:	48 83 c0 10          	add    $0x10,%rax
 3fa:	66 0f 50 c9          	movmskpd %xmm1,%ecx
 3fe:	89 cf                	mov    %ecx,%edi
 400:	d1 f9                	sar    %ecx
 402:	83 e7 01             	and    $0x1,%edi
 405:	83 e1 01             	and    $0x1,%ecx
 408:	40 88 3a             	mov    %dil,(%rdx)
 40b:	88 4a 01             	mov    %cl,0x1(%rdx)
 40e:	80 22 01             	andb   $0x1,(%rdx)
 411:	80 62 01 01          	andb   $0x1,0x1(%rdx)
 415:	48 83 c2 02          	add    $0x2,%rdx
 419:	4c 39 c0             	cmp    %r8,%rax
 41c:	0f 85 16 fe ff ff    	jne    238 <_ZNK7vecgeom3cxx25ShapeImplementationHelperINS0_23TrapezoidImplementationILin1ELin1EEEE16ContainsTemplateERKNS0_5SOA3DIdEEPb+0x238>
 422:	48 81 c4 20 01 00 00 	add    $0x120,%rsp
 429:	f3 c3                	repz retq 

Disassembly of section .text._ZNK7vecgeom3cxx25ShapeImplementationHelperINS0_23TrapezoidImplementationILin1ELin1EEEE8ContainsERKNS0_5SOA3DIdEEPb:

0000000000000000 <_ZNK7vecgeom3cxx25ShapeImplementationHelperINS0_23TrapezoidImplementationILin1ELin1EEEE8ContainsERKNS0_5SOA3DIdEEPb>:
   0:	e9 00 00 00 00       	jmpq   5 <_ZNK7vecgeom3cxx25ShapeImplementationHelperINS0_23TrapezoidImplementationILin1ELin1EEEE8ContainsERKNS0_5SOA3DIdEEPb+0x5>

Disassembly of section .text._ZNK7vecgeom3cxx25ShapeImplementationHelperINS0_23TrapezoidImplementationILin1ELin1EEEE14InsideTemplateERKNS0_5SOA3DIdEEPi:

0000000000000000 <_ZNK7vecgeom3cxx25ShapeImplementationHelperINS0_23TrapezoidImplementationILin1ELin1EEEE14InsideTemplateERKNS0_5SOA3DIdEEPi>:
   0:	48 8b 46 08          	mov    0x8(%rsi),%rax
   4:	85 c0                	test   %eax,%eax
   6:	0f 8e 51 03 00 00    	jle    35d <_ZNK7vecgeom3cxx25ShapeImplementationHelperINS0_23TrapezoidImplementationILin1ELin1EEEE14InsideTemplateERKNS0_5SOA3DIdEEPi+0x35d>
   c:	48 8b 0d 00 00 00 00 	mov    0x0(%rip),%rcx        # 13 <_ZNK7vecgeom3cxx25ShapeImplementationHelperINS0_23TrapezoidImplementationILin1ELin1EEEE14InsideTemplateERKNS0_5SOA3DIdEEPi+0x13>
  13:	83 e8 01             	sub    $0x1,%eax
  16:	4c 8b 5e 28          	mov    0x28(%rsi),%r11
  1a:	d1 e8                	shr    %eax
  1c:	66 45 0f ef e4       	pxor   %xmm12,%xmm12
  21:	4c 8d 04 c5 08 00 00 	lea    0x8(,%rax,8),%r8
  28:	00 
  29:	f2 44 0f 10 2d 00 00 	movsd  0x0(%rip),%xmm13        # 32 <_ZNK7vecgeom3cxx25ShapeImplementationHelperINS0_23TrapezoidImplementationILin1ELin1EEEE14InsideTemplateERKNS0_5SOA3DIdEEPi+0x32>
  30:	00 00 
  32:	66 44 0f 28 39       	movapd (%rcx),%xmm15
  37:	4c 8b 56 20          	mov    0x20(%rsi),%r10
  3b:	4c 8b 4e 18          	mov    0x18(%rsi),%r9
  3f:	31 f6                	xor    %esi,%esi
  41:	66 44 0f 28 0d 00 00 	movapd 0x0(%rip),%xmm9        # 4a <_ZNK7vecgeom3cxx25ShapeImplementationHelperINS0_23TrapezoidImplementationILin1ELin1EEEE14InsideTemplateERKNS0_5SOA3DIdEEPi+0x4a>
  48:	00 00 
  4a:	66 44 0f 28 15 00 00 	movapd 0x0(%rip),%xmm10        # 53 <_ZNK7vecgeom3cxx25ShapeImplementationHelperINS0_23TrapezoidImplementationILin1ELin1EEEE14InsideTemplateERKNS0_5SOA3DIdEEPi+0x53>
  51:	00 00 
  53:	0f 1f 44 00 00       	nopl   0x0(%rax,%rax,1)
  58:	48 8b 4f 20          	mov    0x20(%rdi),%rcx
  5c:	48 8b 47 18          	mov    0x18(%rdi),%rax
  60:	66 41 0f 28 2c 71    	movapd (%r9,%rsi,2),%xmm5
  66:	f2 0f 10 01          	movsd  (%rcx),%xmm0
  6a:	48 8b 00             	mov    (%rax),%rax
  6d:	66 41 0f 28 24 72    	movapd (%r10,%rsi,2),%xmm4
  73:	66 0f 14 c0          	unpcklpd %xmm0,%xmm0
  77:	66 41 0f 28 1c 73    	movapd (%r11,%rsi,2),%xmm3
  7d:	66 0f 5c e8          	subpd  %xmm0,%xmm5
  81:	f2 0f 10 41 08       	movsd  0x8(%rcx),%xmm0
  86:	f2 0f 10 49 18       	movsd  0x18(%rcx),%xmm1
  8b:	66 0f 14 c0          	unpcklpd %xmm0,%xmm0
  8f:	66 0f 14 c9          	unpcklpd %xmm1,%xmm1
  93:	f2 0f 10 51 20       	movsd  0x20(%rcx),%xmm2
  98:	66 0f 5c e0          	subpd  %xmm0,%xmm4
  9c:	f2 0f 10 41 10       	movsd  0x10(%rcx),%xmm0
  a1:	66 0f 59 cd          	mulpd  %xmm5,%xmm1
  a5:	66 0f 14 c0          	unpcklpd %xmm0,%xmm0
  a9:	66 0f 14 d2          	unpcklpd %xmm2,%xmm2
  ad:	f2 0f 10 b0 90 00 00 	movsd  0x90(%rax),%xmm6
  b4:	00 
  b5:	66 0f 5c d8          	subpd  %xmm0,%xmm3
  b9:	f2 0f 10 41 30       	movsd  0x30(%rcx),%xmm0
  be:	66 0f 59 d5          	mulpd  %xmm5,%xmm2
  c2:	66 0f 14 c0          	unpcklpd %xmm0,%xmm0
  c6:	66 0f 14 f6          	unpcklpd %xmm6,%xmm6
  ca:	f2 44 0f 10 80 98 00 	movsd  0x98(%rax),%xmm8
  d1:	00 00 
  d3:	66 0f 59 c4          	mulpd  %xmm4,%xmm0
  d7:	66 45 0f 14 c0       	unpcklpd %xmm8,%xmm8
  dc:	66 0f 58 c8          	addpd  %xmm0,%xmm1
  e0:	f2 0f 10 41 48       	movsd  0x48(%rcx),%xmm0
  e5:	66 0f 14 c0          	unpcklpd %xmm0,%xmm0
  e9:	66 0f 59 c3          	mulpd  %xmm3,%xmm0
  ed:	66 0f 58 c8          	addpd  %xmm0,%xmm1
  f1:	f2 0f 10 41 38       	movsd  0x38(%rcx),%xmm0
  f6:	66 0f 14 c0          	unpcklpd %xmm0,%xmm0
  fa:	66 0f 59 f1          	mulpd  %xmm1,%xmm6
  fe:	66 0f 59 c4          	mulpd  %xmm4,%xmm0
 102:	66 44 0f 59 c1       	mulpd  %xmm1,%xmm8
 107:	66 0f 58 d0          	addpd  %xmm0,%xmm2
 10b:	f2 0f 10 41 50       	movsd  0x50(%rcx),%xmm0
 110:	66 0f 14 c0          	unpcklpd %xmm0,%xmm0
 114:	66 0f 59 c3          	mulpd  %xmm3,%xmm0
 118:	66 0f 58 d0          	addpd  %xmm0,%xmm2
 11c:	f2 0f 10 41 28       	movsd  0x28(%rcx),%xmm0
 121:	66 0f 14 c0          	unpcklpd %xmm0,%xmm0
 125:	66 0f 59 c5          	mulpd  %xmm5,%xmm0
 129:	f2 0f 10 69 40       	movsd  0x40(%rcx),%xmm5
 12e:	66 0f 14 ed          	unpcklpd %xmm5,%xmm5
 132:	66 0f 59 ec          	mulpd  %xmm4,%xmm5
 136:	f2 0f 10 61 58       	movsd  0x58(%rcx),%xmm4
 13b:	66 0f 14 e4          	unpcklpd %xmm4,%xmm4
 13f:	66 0f 58 c5          	addpd  %xmm5,%xmm0
 143:	f2 0f 10 a8 88 00 00 	movsd  0x88(%rax),%xmm5
 14a:	00 
 14b:	66 0f 59 e3          	mulpd  %xmm3,%xmm4
 14f:	f2 0f 10 58 20       	movsd  0x20(%rax),%xmm3
 154:	66 0f 14 ed          	unpcklpd %xmm5,%xmm5
 158:	66 0f 58 c4          	addpd  %xmm4,%xmm0
 15c:	66 0f 28 e3          	movapd %xmm3,%xmm4
 160:	f2 41 0f 5c dd       	subsd  %xmm13,%xmm3
 165:	66 0f 59 e9          	mulpd  %xmm1,%xmm5
 169:	f2 41 0f 58 e5       	addsd  %xmm13,%xmm4
 16e:	66 44 0f 28 d8       	movapd %xmm0,%xmm11
 173:	66 0f 14 db          	unpcklpd %xmm3,%xmm3
 177:	66 45 0f 54 df       	andpd  %xmm15,%xmm11
 17c:	66 0f 14 e4          	unpcklpd %xmm4,%xmm4
 180:	66 45 0f 28 f3       	movapd %xmm11,%xmm14
 185:	66 44 0f c2 db 01    	cmpltpd %xmm3,%xmm11
 18b:	f2 0f 10 98 c8 00 00 	movsd  0xc8(%rax),%xmm3
 192:	00 
 193:	66 44 0f c2 f4 06    	cmpnlepd %xmm4,%xmm14
 199:	f2 0f 10 a0 a8 00 00 	movsd  0xa8(%rax),%xmm4
 1a0:	00 
 1a1:	66 0f 14 db          	unpcklpd %xmm3,%xmm3
 1a5:	41 0f 28 fb          	movaps %xmm11,%xmm7
 1a9:	66 0f 14 e4          	unpcklpd %xmm4,%xmm4
 1ad:	66 0f 59 d8          	mulpd  %xmm0,%xmm3
 1b1:	66 0f 59 e2          	mulpd  %xmm2,%xmm4
 1b5:	66 0f 58 e5          	addpd  %xmm5,%xmm4
 1b9:	f2 0f 10 a8 b0 00 00 	movsd  0xb0(%rax),%xmm5
 1c0:	00 
 1c1:	66 0f 14 ed          	unpcklpd %xmm5,%xmm5
 1c5:	66 0f 58 dc          	addpd  %xmm4,%xmm3
 1c9:	f2 0f 10 a0 e8 00 00 	movsd  0xe8(%rax),%xmm4
 1d0:	00 
 1d1:	66 0f 59 ea          	mulpd  %xmm2,%xmm5
 1d5:	66 0f 14 e4          	unpcklpd %xmm4,%xmm4
 1d9:	66 0f 58 dc          	addpd  %xmm4,%xmm3
 1dd:	f2 0f 10 a0 d0 00 00 	movsd  0xd0(%rax),%xmm4
 1e4:	00 
 1e5:	66 0f 58 ee          	addpd  %xmm6,%xmm5
 1e9:	f2 0f 10 b0 b8 00 00 	movsd  0xb8(%rax),%xmm6
 1f0:	00 
 1f1:	66 0f 14 e4          	unpcklpd %xmm4,%xmm4
 1f5:	66 0f 14 f6          	unpcklpd %xmm6,%xmm6
 1f9:	66 0f 59 e0          	mulpd  %xmm0,%xmm4
 1fd:	66 0f 59 f2          	mulpd  %xmm2,%xmm6
 201:	66 0f 58 e5          	addpd  %xmm5,%xmm4
 205:	f2 0f 10 a8 f0 00 00 	movsd  0xf0(%rax),%xmm5
 20c:	00 
 20d:	66 41 0f 58 f0       	addpd  %xmm8,%xmm6
 212:	f2 44 0f 10 80 c0 00 	movsd  0xc0(%rax),%xmm8
 219:	00 00 
 21b:	66 0f 14 ed          	unpcklpd %xmm5,%xmm5
 21f:	66 45 0f 14 c0       	unpcklpd %xmm8,%xmm8
 224:	66 0f 58 e5          	addpd  %xmm5,%xmm4
 228:	f2 0f 10 a8 d8 00 00 	movsd  0xd8(%rax),%xmm5
 22f:	00 
 230:	66 44 0f 59 c2       	mulpd  %xmm2,%xmm8
 235:	66 0f 14 ed          	unpcklpd %xmm5,%xmm5
 239:	66 0f 59 e8          	mulpd  %xmm0,%xmm5
 23d:	66 0f 58 ee          	addpd  %xmm6,%xmm5
 241:	f2 0f 10 b0 f8 00 00 	movsd  0xf8(%rax),%xmm6
 248:	00 
 249:	66 0f 14 f6          	unpcklpd %xmm6,%xmm6
 24d:	66 0f 58 ee          	addpd  %xmm6,%xmm5
 251:	f2 0f 10 b0 e0 00 00 	movsd  0xe0(%rax),%xmm6
 258:	00 
 259:	66 0f 14 f6          	unpcklpd %xmm6,%xmm6
 25d:	66 0f 59 f0          	mulpd  %xmm0,%xmm6
 261:	f2 0f 10 80 a0 00 00 	movsd  0xa0(%rax),%xmm0
 268:	00 
 269:	66 0f 14 c0          	unpcklpd %xmm0,%xmm0
 26d:	66 0f 59 c1          	mulpd  %xmm1,%xmm0
 271:	66 44 0f 58 c0       	addpd  %xmm0,%xmm8
 276:	f2 0f 10 80 00 01 00 	movsd  0x100(%rax),%xmm0
 27d:	00 
 27e:	66 0f 14 c0          	unpcklpd %xmm0,%xmm0
 282:	66 41 0f 58 f0       	addpd  %xmm8,%xmm6
 287:	66 0f 58 f0          	addpd  %xmm0,%xmm6
 28b:	66 0f 28 c3          	movapd %xmm3,%xmm0
 28f:	66 41 0f c2 c1 06    	cmpnlepd %xmm9,%xmm0
 295:	41 0f 56 c6          	orps   %xmm14,%xmm0
 299:	66 0f d7 c0          	pmovmskb %xmm0,%eax
 29d:	3d ff ff 00 00       	cmp    $0xffff,%eax
 2a2:	74 6c                	je     310 <_ZNK7vecgeom3cxx25ShapeImplementationHelperINS0_23TrapezoidImplementationILin1ELin1EEEE14InsideTemplateERKNS0_5SOA3DIdEEPi+0x310>
 2a4:	66 0f 28 cc          	movapd %xmm4,%xmm1
 2a8:	66 41 0f c2 da 01    	cmpltpd %xmm10,%xmm3
 2ae:	66 41 0f c2 c9 06    	cmpnlepd %xmm9,%xmm1
 2b4:	0f 54 fb             	andps  %xmm3,%xmm7
 2b7:	0f 56 c1             	orps   %xmm1,%xmm0
 2ba:	66 0f d7 c0          	pmovmskb %xmm0,%eax
 2be:	3d ff ff 00 00       	cmp    $0xffff,%eax
 2c3:	74 4b                	je     310 <_ZNK7vecgeom3cxx25ShapeImplementationHelperINS0_23TrapezoidImplementationILin1ELin1EEEE14InsideTemplateERKNS0_5SOA3DIdEEPi+0x310>
 2c5:	66 0f 28 cd          	movapd %xmm5,%xmm1
 2c9:	66 41 0f c2 e2 01    	cmpltpd %xmm10,%xmm4
 2cf:	66 41 0f c2 c9 06    	cmpnlepd %xmm9,%xmm1
 2d5:	0f 54 fc             	andps  %xmm4,%xmm7
 2d8:	0f 56 c1             	orps   %xmm1,%xmm0
 2db:	66 0f d7 c0          	pmovmskb %xmm0,%eax
 2df:	3d ff ff 00 00       	cmp    $0xffff,%eax
 2e4:	74 2a                	je     310 <_ZNK7vecgeom3cxx25ShapeImplementationHelperINS0_23TrapezoidImplementationILin1ELin1EEEE14InsideTemplateERKNS0_5SOA3DIdEEPi+0x310>
 2e6:	66 0f 28 ce          	movapd %xmm6,%xmm1
 2ea:	66 41 0f c2 ea 01    	cmpltpd %xmm10,%xmm5
 2f0:	66 41 0f c2 c9 06    	cmpnlepd %xmm9,%xmm1
 2f6:	0f 54 fd             	andps  %xmm5,%xmm7
 2f9:	0f 56 c1             	orps   %xmm1,%xmm0
 2fc:	66 0f d7 c0          	pmovmskb %xmm0,%eax
 300:	3d ff ff 00 00       	cmp    $0xffff,%eax
 305:	74 09                	je     310 <_ZNK7vecgeom3cxx25ShapeImplementationHelperINS0_23TrapezoidImplementationILin1ELin1EEEE14InsideTemplateERKNS0_5SOA3DIdEEPi+0x310>
 307:	66 41 0f c2 f2 01    	cmpltpd %xmm10,%xmm6
 30d:	0f 54 fe             	andps  %xmm6,%xmm7
 310:	66 41 0f 63 fc       	packsswb %xmm12,%xmm7
 315:	66 41 0f 63 c4       	packsswb %xmm12,%xmm0
 31a:	66 0f 6f 0d 00 00 00 	movdqa 0x0(%rip),%xmm1        # 322 <_ZNK7vecgeom3cxx25ShapeImplementationHelperINS0_23TrapezoidImplementationILin1ELin1EEEE14InsideTemplateERKNS0_5SOA3DIdEEPi+0x322>
 321:	00 
 322:	66 0f df 3d 00 00 00 	pandn  0x0(%rip),%xmm7        # 32a <_ZNK7vecgeom3cxx25ShapeImplementationHelperINS0_23TrapezoidImplementationILin1ELin1EEEE14InsideTemplateERKNS0_5SOA3DIdEEPi+0x32a>
 329:	00 
 32a:	66 0f 6f d0          	movdqa %xmm0,%xmm2
 32e:	66 0f db c8          	pand   %xmm0,%xmm1
 332:	66 0f df d7          	pandn  %xmm7,%xmm2
 336:	66 0f eb ca          	por    %xmm2,%xmm1
 33a:	66 0f 7f 4c 24 e8    	movdqa %xmm1,-0x18(%rsp)
 340:	48 8b 44 24 e8       	mov    -0x18(%rsp),%rax
 345:	89 04 32             	mov    %eax,(%rdx,%rsi,1)
 348:	48 c1 f8 20          	sar    $0x20,%rax
 34c:	89 44 32 04          	mov    %eax,0x4(%rdx,%rsi,1)
 350:	48 83 c6 08          	add    $0x8,%rsi
 354:	4c 39 c6             	cmp    %r8,%rsi
 357:	0f 85 fb fc ff ff    	jne    58 <_ZNK7vecgeom3cxx25ShapeImplementationHelperINS0_23TrapezoidImplementationILin1ELin1EEEE14InsideTemplateERKNS0_5SOA3DIdEEPi+0x58>
 35d:	f3 c3                	repz retq 

Disassembly of section .text._ZNK7vecgeom3cxx25ShapeImplementationHelperINS0_23TrapezoidImplementationILin1ELin1EEEE6InsideERKNS0_5SOA3DIdEEPi:

0000000000000000 <_ZNK7vecgeom3cxx25ShapeImplementationHelperINS0_23TrapezoidImplementationILin1ELin1EEEE6InsideERKNS0_5SOA3DIdEEPi>:
   0:	e9 00 00 00 00       	jmpq   5 <_ZNK7vecgeom3cxx25ShapeImplementationHelperINS0_23TrapezoidImplementationILin1ELin1EEEE6InsideERKNS0_5SOA3DIdEEPi+0x5>

Disassembly of section .text._ZNK7vecgeom3cxx25ShapeImplementationHelperINS0_23TrapezoidImplementationILin1ELin1EEEE26SafetyToInMinimizeTemplateERKNS0_5SOA3DIdEEPd:

0000000000000000 <_ZNK7vecgeom3cxx25ShapeImplementationHelperINS0_23TrapezoidImplementationILin1ELin1EEEE26SafetyToInMinimizeTemplateERKNS0_5SOA3DIdEEPd>:
   0:	48 8b 46 08          	mov    0x8(%rsi),%rax
   4:	85 c0                	test   %eax,%eax
   6:	0f 8e c4 02 00 00    	jle    2d0 <_ZNK7vecgeom3cxx25ShapeImplementationHelperINS0_23TrapezoidImplementationILin1ELin1EEEE26SafetyToInMinimizeTemplateERKNS0_5SOA3DIdEEPd+0x2d0>
   c:	48 8b 0d 00 00 00 00 	mov    0x0(%rip),%rcx        # 13 <_ZNK7vecgeom3cxx25ShapeImplementationHelperINS0_23TrapezoidImplementationILin1ELin1EEEE26SafetyToInMinimizeTemplateERKNS0_5SOA3DIdEEPd+0x13>
  13:	83 e8 01             	sub    $0x1,%eax
  16:	45 31 c0             	xor    %r8d,%r8d
  19:	d1 e8                	shr    %eax
  1b:	4c 8d 50 01          	lea    0x1(%rax),%r10
  1f:	66 44 0f 28 01       	movapd (%rcx),%xmm8
  24:	49 c1 e2 04          	shl    $0x4,%r10
  28:	0f 1f 84 00 00 00 00 	nopl   0x0(%rax,%rax,1)
  2f:	00 
  30:	48 8b 4f 20          	mov    0x20(%rdi),%rcx
  34:	4c 8b 4e 18          	mov    0x18(%rsi),%r9
  38:	48 8b 47 18          	mov    0x18(%rdi),%rax
  3c:	66 42 0f 28 3c 02    	movapd (%rdx,%r8,1),%xmm7
  42:	f2 0f 10 01          	movsd  (%rcx),%xmm0
  46:	48 8b 00             	mov    (%rax),%rax
  49:	66 43 0f 28 2c 01    	movapd (%r9,%r8,1),%xmm5
  4f:	66 0f 14 c0          	unpcklpd %xmm0,%xmm0
  53:	4c 8b 4e 20          	mov    0x20(%rsi),%r9
  57:	f2 0f 10 49 18       	movsd  0x18(%rcx),%xmm1
  5c:	f2 0f 10 51 20       	movsd  0x20(%rcx),%xmm2
  61:	66 0f 5c e8          	subpd  %xmm0,%xmm5
  65:	f2 0f 10 41 08       	movsd  0x8(%rcx),%xmm0
  6a:	66 43 0f 28 24 01    	movapd (%r9,%r8,1),%xmm4
  70:	66 0f 14 c0          	unpcklpd %xmm0,%xmm0
  74:	4c 8b 4e 28          	mov    0x28(%rsi),%r9
  78:	66 0f 14 c9          	unpcklpd %xmm1,%xmm1
  7c:	66 0f 14 d2          	unpcklpd %xmm2,%xmm2
  80:	66 0f 5c e0          	subpd  %xmm0,%xmm4
  84:	f2 0f 10 41 10       	movsd  0x10(%rcx),%xmm0
  89:	66 43 0f 28 1c 01    	movapd (%r9,%r8,1),%xmm3
  8f:	66 0f 14 c0          	unpcklpd %xmm0,%xmm0
  93:	66 0f 59 cd          	mulpd  %xmm5,%xmm1
  97:	66 0f 5c d8          	subpd  %xmm0,%xmm3
  9b:	f2 0f 10 41 30       	movsd  0x30(%rcx),%xmm0
  a0:	66 0f 59 d5          	mulpd  %xmm5,%xmm2
  a4:	66 0f 14 c0          	unpcklpd %xmm0,%xmm0
  a8:	f2 0f 10 b0 c8 00 00 	movsd  0xc8(%rax),%xmm6
  af:	00 
  b0:	f2 44 0f 10 90 98 00 	movsd  0x98(%rax),%xmm10
  b7:	00 00 
  b9:	66 0f 59 c4          	mulpd  %xmm4,%xmm0
  bd:	66 0f 14 f6          	unpcklpd %xmm6,%xmm6
  c1:	66 45 0f 14 d2       	unpcklpd %xmm10,%xmm10
  c6:	66 0f 58 c8          	addpd  %xmm0,%xmm1
  ca:	f2 0f 10 41 48       	movsd  0x48(%rcx),%xmm0
  cf:	66 0f 14 c0          	unpcklpd %xmm0,%xmm0
  d3:	66 0f 59 c3          	mulpd  %xmm3,%xmm0
  d7:	66 0f 58 c8          	addpd  %xmm0,%xmm1
  db:	f2 0f 10 41 38       	movsd  0x38(%rcx),%xmm0
  e0:	66 0f 14 c0          	unpcklpd %xmm0,%xmm0
  e4:	66 44 0f 59 d1       	mulpd  %xmm1,%xmm10
  e9:	66 0f 59 c4          	mulpd  %xmm4,%xmm0
  ed:	66 0f 58 d0          	addpd  %xmm0,%xmm2
  f1:	f2 0f 10 41 50       	movsd  0x50(%rcx),%xmm0
  f6:	66 0f 14 c0          	unpcklpd %xmm0,%xmm0
  fa:	66 0f 59 c3          	mulpd  %xmm3,%xmm0
  fe:	66 0f 58 d0          	addpd  %xmm0,%xmm2
 102:	f2 0f 10 41 28       	movsd  0x28(%rcx),%xmm0
 107:	66 0f 14 c0          	unpcklpd %xmm0,%xmm0
 10b:	66 0f 59 c5          	mulpd  %xmm5,%xmm0
 10f:	f2 0f 10 69 40       	movsd  0x40(%rcx),%xmm5
 114:	66 0f 14 ed          	unpcklpd %xmm5,%xmm5
 118:	66 0f 59 ec          	mulpd  %xmm4,%xmm5
 11c:	f2 0f 10 61 58       	movsd  0x58(%rcx),%xmm4
 121:	66 0f 14 e4          	unpcklpd %xmm4,%xmm4
 125:	66 0f 58 c5          	addpd  %xmm5,%xmm0
 129:	f2 0f 10 a8 d0 00 00 	movsd  0xd0(%rax),%xmm5
 130:	00 
 131:	66 0f 59 e3          	mulpd  %xmm3,%xmm4
 135:	f2 0f 10 58 20       	movsd  0x20(%rax),%xmm3
 13a:	66 0f 14 ed          	unpcklpd %xmm5,%xmm5
 13e:	66 0f 14 db          	unpcklpd %xmm3,%xmm3
 142:	66 0f 58 c4          	addpd  %xmm4,%xmm0
 146:	f2 0f 10 a0 88 00 00 	movsd  0x88(%rax),%xmm4
 14d:	00 
 14e:	66 0f 14 e4          	unpcklpd %xmm4,%xmm4
 152:	66 44 0f 28 c8       	movapd %xmm0,%xmm9
 157:	66 0f 59 e1          	mulpd  %xmm1,%xmm4
 15b:	66 45 0f 54 c8       	andpd  %xmm8,%xmm9
 160:	66 0f 59 f0          	mulpd  %xmm0,%xmm6
 164:	66 44 0f 5c cb       	subpd  %xmm3,%xmm9
 169:	f2 0f 10 98 a8 00 00 	movsd  0xa8(%rax),%xmm3
 170:	00 
 171:	66 0f 59 e8          	mulpd  %xmm0,%xmm5
 175:	66 0f 14 db          	unpcklpd %xmm3,%xmm3
 179:	66 0f 59 da          	mulpd  %xmm2,%xmm3
 17d:	66 0f 58 dc          	addpd  %xmm4,%xmm3
 181:	f2 0f 10 a0 90 00 00 	movsd  0x90(%rax),%xmm4
 188:	00 
 189:	66 0f 14 e4          	unpcklpd %xmm4,%xmm4
 18d:	66 0f 58 f3          	addpd  %xmm3,%xmm6
 191:	f2 0f 10 98 e8 00 00 	movsd  0xe8(%rax),%xmm3
 198:	00 
 199:	66 0f 59 e1          	mulpd  %xmm1,%xmm4
 19d:	66 0f 14 db          	unpcklpd %xmm3,%xmm3
 1a1:	66 0f 58 f3          	addpd  %xmm3,%xmm6
 1a5:	f2 0f 10 98 b0 00 00 	movsd  0xb0(%rax),%xmm3
 1ac:	00 
 1ad:	66 0f 14 db          	unpcklpd %xmm3,%xmm3
 1b1:	66 0f 59 da          	mulpd  %xmm2,%xmm3
 1b5:	66 0f 58 dc          	addpd  %xmm4,%xmm3
 1b9:	f2 0f 10 a0 d8 00 00 	movsd  0xd8(%rax),%xmm4
 1c0:	00 
 1c1:	66 0f 14 e4          	unpcklpd %xmm4,%xmm4
 1c5:	66 0f 58 eb          	addpd  %xmm3,%xmm5
 1c9:	f2 0f 10 98 f0 00 00 	movsd  0xf0(%rax),%xmm3
 1d0:	00 
 1d1:	66 0f 59 e0          	mulpd  %xmm0,%xmm4
 1d5:	66 0f 14 db          	unpcklpd %xmm3,%xmm3
 1d9:	66 0f 58 eb          	addpd  %xmm3,%xmm5
 1dd:	f2 0f 10 98 b8 00 00 	movsd  0xb8(%rax),%xmm3
 1e4:	00 
 1e5:	66 0f 14 db          	unpcklpd %xmm3,%xmm3
 1e9:	66 0f 59 da          	mulpd  %xmm2,%xmm3
 1ed:	66 41 0f 58 da       	addpd  %xmm10,%xmm3
 1f2:	66 0f 58 e3          	addpd  %xmm3,%xmm4
 1f6:	f2 0f 10 98 f8 00 00 	movsd  0xf8(%rax),%xmm3
 1fd:	00 
 1fe:	66 0f 14 db          	unpcklpd %xmm3,%xmm3
 202:	66 0f 58 e3          	addpd  %xmm3,%xmm4
 206:	f2 0f 10 98 e0 00 00 	movsd  0xe0(%rax),%xmm3
 20d:	00 
 20e:	66 0f 14 db          	unpcklpd %xmm3,%xmm3
 212:	66 0f 59 d8          	mulpd  %xmm0,%xmm3
 216:	f2 0f 10 80 c0 00 00 	movsd  0xc0(%rax),%xmm0
 21d:	00 
 21e:	66 0f 14 c0          	unpcklpd %xmm0,%xmm0
 222:	66 0f 59 c2          	mulpd  %xmm2,%xmm0
 226:	f2 0f 10 90 a0 00 00 	movsd  0xa0(%rax),%xmm2
 22d:	00 
 22e:	66 0f 14 d2          	unpcklpd %xmm2,%xmm2
 232:	66 0f 59 d1          	mulpd  %xmm1,%xmm2
 236:	66 0f 28 ce          	movapd %xmm6,%xmm1
 23a:	66 41 0f c2 c9 06    	cmpnlepd %xmm9,%xmm1
 240:	66 0f 58 c2          	addpd  %xmm2,%xmm0
 244:	66 0f 54 f1          	andpd  %xmm1,%xmm6
 248:	66 41 0f 55 c9       	andnpd %xmm9,%xmm1
 24d:	66 0f 58 d8          	addpd  %xmm0,%xmm3
 251:	f2 0f 10 80 00 01 00 	movsd  0x100(%rax),%xmm0
 258:	00 
 259:	66 0f 56 ce          	orpd   %xmm6,%xmm1
 25d:	66 0f 14 c0          	unpcklpd %xmm0,%xmm0
 261:	66 0f 58 d8          	addpd  %xmm0,%xmm3
 265:	66 0f 28 c5          	movapd %xmm5,%xmm0
 269:	66 0f c2 c1 06       	cmpnlepd %xmm1,%xmm0
 26e:	66 0f 54 e8          	andpd  %xmm0,%xmm5
 272:	66 0f 55 c1          	andnpd %xmm1,%xmm0
 276:	66 0f 28 cc          	movapd %xmm4,%xmm1
 27a:	66 0f 56 c5          	orpd   %xmm5,%xmm0
 27e:	66 0f c2 c8 06       	cmpnlepd %xmm0,%xmm1
 283:	66 0f 54 e1          	andpd  %xmm1,%xmm4
 287:	66 0f 55 c8          	andnpd %xmm0,%xmm1
 28b:	66 0f 28 c3          	movapd %xmm3,%xmm0
 28f:	66 0f 56 cc          	orpd   %xmm4,%xmm1
 293:	66 0f c2 c1 06       	cmpnlepd %xmm1,%xmm0
 298:	66 0f 54 d8          	andpd  %xmm0,%xmm3
 29c:	66 0f 55 c1          	andnpd %xmm1,%xmm0
 2a0:	66 0f 28 cf          	movapd %xmm7,%xmm1
 2a4:	66 0f 56 c3          	orpd   %xmm3,%xmm0
 2a8:	66 0f c2 c8 01       	cmpltpd %xmm0,%xmm1
 2ad:	66 0f 54 f9          	andpd  %xmm1,%xmm7
 2b1:	66 0f 55 c8          	andnpd %xmm0,%xmm1
 2b5:	66 0f 28 c1          	movapd %xmm1,%xmm0
 2b9:	66 0f 56 c7          	orpd   %xmm7,%xmm0
 2bd:	66 42 0f 29 04 02    	movapd %xmm0,(%rdx,%r8,1)
 2c3:	49 83 c0 10          	add    $0x10,%r8
 2c7:	4d 39 d0             	cmp    %r10,%r8
 2ca:	0f 85 60 fd ff ff    	jne    30 <_ZNK7vecgeom3cxx25ShapeImplementationHelperINS0_23TrapezoidImplementationILin1ELin1EEEE26SafetyToInMinimizeTemplateERKNS0_5SOA3DIdEEPd+0x30>
 2d0:	f3 c3                	repz retq 

Disassembly of section .text._ZNK7vecgeom3cxx25ShapeImplementationHelperINS0_23TrapezoidImplementationILin1ELin1EEEE18SafetyToInMinimizeERKNS0_5SOA3DIdEEPd:

0000000000000000 <_ZNK7vecgeom3cxx25ShapeImplementationHelperINS0_23TrapezoidImplementationILin1ELin1EEEE18SafetyToInMinimizeERKNS0_5SOA3DIdEEPd>:
   0:	e9 00 00 00 00       	jmpq   5 <_ZNK7vecgeom3cxx25ShapeImplementationHelperINS0_23TrapezoidImplementationILin1ELin1EEEE18SafetyToInMinimizeERKNS0_5SOA3DIdEEPd+0x5>

Disassembly of section .text.startup:

0000000000000000 <_GLOBAL__sub_I_UnplacedTrapezoid.cpp>:
   0:	48 8d 15 00 00 00 00 	lea    0x0(%rip),%rdx        # 7 <_GLOBAL__sub_I_UnplacedTrapezoid.cpp+0x7>
   7:	48 83 ec 08          	sub    $0x8,%rsp
   b:	be 8d 07 00 00       	mov    $0x78d,%esi
  10:	bf 03 00 00 00       	mov    $0x3,%edi
  15:	e8 00 00 00 00       	callq  1a <_GLOBAL__sub_I_UnplacedTrapezoid.cpp+0x1a>
  1a:	48 8d 3d 00 00 00 00 	lea    0x0(%rip),%rdi        # 21 <_GLOBAL__sub_I_UnplacedTrapezoid.cpp+0x21>
  21:	e8 00 00 00 00       	callq  26 <_GLOBAL__sub_I_UnplacedTrapezoid.cpp+0x26>
  26:	48 8b 3d 00 00 00 00 	mov    0x0(%rip),%rdi        # 2d <_GLOBAL__sub_I_UnplacedTrapezoid.cpp+0x2d>
  2d:	48 8d 15 00 00 00 00 	lea    0x0(%rip),%rdx        # 34 <_GLOBAL__sub_I_UnplacedTrapezoid.cpp+0x34>
  34:	48 8d 35 00 00 00 00 	lea    0x0(%rip),%rsi        # 3b <_GLOBAL__sub_I_UnplacedTrapezoid.cpp+0x3b>
  3b:	48 83 c4 08          	add    $0x8,%rsp
  3f:	e9 00 00 00 00       	jmpq   44 <.LC19+0x4>
